EXPORTS 
	?$TSS0@?1??instance@registry@details@spdlog@@SAAEAV234@XZ@4HA 	 DATA
	??_R0?AU_Crt_new_delete@std@@@8 	 DATA
	??_R0?AV?$A_formatter@Unull_scoped_padder@details@spdlog@@@details@spdlog@@@8 	 DATA
	??_R0?AV?$A_formatter@Vscoped_padder@details@spdlog@@@details@spdlog@@@8 	 DATA
	??_R0?AV?$B_formatter@Unull_scoped_padder@details@spdlog@@@details@spdlog@@@8 	 DATA
	??_R0?AV?$B_formatter@Vscoped_padder@details@spdlog@@@details@spdlog@@@8 	 DATA
	??_R0?AV?$C_formatter@Unull_scoped_padder@details@spdlog@@@details@spdlog@@@8 	 DATA
	??_R0?AV?$C_formatter@Vscoped_padder@details@spdlog@@@details@spdlog@@@8 	 DATA
	??_R0?AV?$D_formatter@Unull_scoped_padder@details@spdlog@@@details@spdlog@@@8 	 DATA
	??_R0?AV?$D_formatter@Vscoped_padder@details@spdlog@@@details@spdlog@@@8 	 DATA
	??_R0?AV?$E_formatter@Unull_scoped_padder@details@spdlog@@@details@spdlog@@@8 	 DATA
	??_R0?AV?$E_formatter@Vscoped_padder@details@spdlog@@@details@spdlog@@@8 	 DATA
	??_R0?AV?$F_formatter@Unull_scoped_padder@details@spdlog@@@details@spdlog@@@8 	 DATA
	??_R0?AV?$F_formatter@Vscoped_padder@details@spdlog@@@details@spdlog@@@8 	 DATA
	??_R0?AV?$H_formatter@Unull_scoped_padder@details@spdlog@@@details@spdlog@@@8 	 DATA
	??_R0?AV?$H_formatter@Vscoped_padder@details@spdlog@@@details@spdlog@@@8 	 DATA
	??_R0?AV?$I_formatter@Unull_scoped_padder@details@spdlog@@@details@spdlog@@@8 	 DATA
	??_R0?AV?$I_formatter@Vscoped_padder@details@spdlog@@@details@spdlog@@@8 	 DATA
	??_R0?AV?$M_formatter@Unull_scoped_padder@details@spdlog@@@details@spdlog@@@8 	 DATA
	??_R0?AV?$M_formatter@Vscoped_padder@details@spdlog@@@details@spdlog@@@8 	 DATA
	??_R0?AV?$R_formatter@Unull_scoped_padder@details@spdlog@@@details@spdlog@@@8 	 DATA
	??_R0?AV?$R_formatter@Vscoped_padder@details@spdlog@@@details@spdlog@@@8 	 DATA
	??_R0?AV?$S_formatter@Unull_scoped_padder@details@spdlog@@@details@spdlog@@@8 	 DATA
	??_R0?AV?$S_formatter@Vscoped_padder@details@spdlog@@@details@spdlog@@@8 	 DATA
	??_R0?AV?$T_formatter@Unull_scoped_padder@details@spdlog@@@details@spdlog@@@8 	 DATA
	??_R0?AV?$T_formatter@Vscoped_padder@details@spdlog@@@details@spdlog@@@8 	 DATA
	??_R0?AV?$Y_formatter@Unull_scoped_padder@details@spdlog@@@details@spdlog@@@8 	 DATA
	??_R0?AV?$Y_formatter@Vscoped_padder@details@spdlog@@@details@spdlog@@@8 	 DATA
	??_R0?AV?$_Ref_count_obj2@V?$wincolor_stdout_sink@Uconsole_mutex@details@spdlog@@@sinks@spdlog@@@std@@@8 	 DATA
	??_R0?AV?$_Ref_count_obj2@Vlogger@spdlog@@@std@@@8 	 DATA
	??_R0?AV?$a_formatter@Unull_scoped_padder@details@spdlog@@@details@spdlog@@@8 	 DATA
	??_R0?AV?$a_formatter@Vscoped_padder@details@spdlog@@@details@spdlog@@@8 	 DATA
	??_R0?AV?$b_formatter@Unull_scoped_padder@details@spdlog@@@details@spdlog@@@8 	 DATA
	??_R0?AV?$b_formatter@Vscoped_padder@details@spdlog@@@details@spdlog@@@8 	 DATA
	??_R0?AV?$c_formatter@Unull_scoped_padder@details@spdlog@@@details@spdlog@@@8 	 DATA
	??_R0?AV?$c_formatter@Vscoped_padder@details@spdlog@@@details@spdlog@@@8 	 DATA
	??_R0?AV?$d_formatter@Unull_scoped_padder@details@spdlog@@@details@spdlog@@@8 	 DATA
	??_R0?AV?$d_formatter@Vscoped_padder@details@spdlog@@@details@spdlog@@@8 	 DATA
	??_R0?AV?$e_formatter@Unull_scoped_padder@details@spdlog@@@details@spdlog@@@8 	 DATA
	??_R0?AV?$e_formatter@Vscoped_padder@details@spdlog@@@details@spdlog@@@8 	 DATA
	??_R0?AV?$elapsed_formatter@Unull_scoped_padder@details@spdlog@@V?$duration@_JU?$ratio@$00$00@std@@@chrono@std@@@details@spdlog@@@8 	 DATA
	??_R0?AV?$elapsed_formatter@Unull_scoped_padder@details@spdlog@@V?$duration@_JU?$ratio@$00$0DLJKMKAA@@std@@@chrono@std@@@details@spdlog@@@8 	 DATA
	??_R0?AV?$elapsed_formatter@Unull_scoped_padder@details@spdlog@@V?$duration@_JU?$ratio@$00$0DOI@@std@@@chrono@std@@@details@spdlog@@@8 	 DATA
	??_R0?AV?$elapsed_formatter@Unull_scoped_padder@details@spdlog@@V?$duration@_JU?$ratio@$00$0PECEA@@std@@@chrono@std@@@details@spdlog@@@8 	 DATA
	??_R0?AV?$elapsed_formatter@Vscoped_padder@details@spdlog@@V?$duration@_JU?$ratio@$00$00@std@@@chrono@std@@@details@spdlog@@@8 	 DATA
	??_R0?AV?$elapsed_formatter@Vscoped_padder@details@spdlog@@V?$duration@_JU?$ratio@$00$0DLJKMKAA@@std@@@chrono@std@@@details@spdlog@@@8 	 DATA
	??_R0?AV?$elapsed_formatter@Vscoped_padder@details@spdlog@@V?$duration@_JU?$ratio@$00$0DOI@@std@@@chrono@std@@@details@spdlog@@@8 	 DATA
	??_R0?AV?$elapsed_formatter@Vscoped_padder@details@spdlog@@V?$duration@_JU?$ratio@$00$0PECEA@@std@@@chrono@std@@@details@spdlog@@@8 	 DATA
	??_R0?AV?$f_formatter@Unull_scoped_padder@details@spdlog@@@details@spdlog@@@8 	 DATA
	??_R0?AV?$f_formatter@Vscoped_padder@details@spdlog@@@details@spdlog@@@8 	 DATA
	??_R0?AV?$format_facet@Vlocale@std@@@v11@fmt@@@8 	 DATA
	??_R0?AV?$level_formatter@Unull_scoped_padder@details@spdlog@@@details@spdlog@@@8 	 DATA
	??_R0?AV?$level_formatter@Vscoped_padder@details@spdlog@@@details@spdlog@@@8 	 DATA
	??_R0?AV?$m_formatter@Unull_scoped_padder@details@spdlog@@@details@spdlog@@@8 	 DATA
	??_R0?AV?$m_formatter@Vscoped_padder@details@spdlog@@@details@spdlog@@@8 	 DATA
	??_R0?AV?$mdc_formatter@Unull_scoped_padder@details@spdlog@@@details@spdlog@@@8 	 DATA
	??_R0?AV?$mdc_formatter@Vscoped_padder@details@spdlog@@@details@spdlog@@@8 	 DATA
	??_R0?AV?$name_formatter@Unull_scoped_padder@details@spdlog@@@details@spdlog@@@8 	 DATA
	??_R0?AV?$name_formatter@Vscoped_padder@details@spdlog@@@details@spdlog@@@8 	 DATA
	??_R0?AV?$numpunct@D@std@@@8 	 DATA
	??_R0?AV?$p_formatter@Unull_scoped_padder@details@spdlog@@@details@spdlog@@@8 	 DATA
	??_R0?AV?$p_formatter@Vscoped_padder@details@spdlog@@@details@spdlog@@@8 	 DATA
	??_R0?AV?$pid_formatter@Unull_scoped_padder@details@spdlog@@@details@spdlog@@@8 	 DATA
	??_R0?AV?$pid_formatter@Vscoped_padder@details@spdlog@@@details@spdlog@@@8 	 DATA
	??_R0?AV?$r_formatter@Unull_scoped_padder@details@spdlog@@@details@spdlog@@@8 	 DATA
	??_R0?AV?$r_formatter@Vscoped_padder@details@spdlog@@@details@spdlog@@@8 	 DATA
	??_R0?AV?$short_filename_formatter@Unull_scoped_padder@details@spdlog@@@details@spdlog@@@8 	 DATA
	??_R0?AV?$short_filename_formatter@Vscoped_padder@details@spdlog@@@details@spdlog@@@8 	 DATA
	??_R0?AV?$short_level_formatter@Unull_scoped_padder@details@spdlog@@@details@spdlog@@@8 	 DATA
	??_R0?AV?$short_level_formatter@Vscoped_padder@details@spdlog@@@details@spdlog@@@8 	 DATA
	??_R0?AV?$source_filename_formatter@Unull_scoped_padder@details@spdlog@@@details@spdlog@@@8 	 DATA
	??_R0?AV?$source_filename_formatter@Vscoped_padder@details@spdlog@@@details@spdlog@@@8 	 DATA
	??_R0?AV?$source_funcname_formatter@Unull_scoped_padder@details@spdlog@@@details@spdlog@@@8 	 DATA
	??_R0?AV?$source_funcname_formatter@Vscoped_padder@details@spdlog@@@details@spdlog@@@8 	 DATA
	??_R0?AV?$source_linenum_formatter@Unull_scoped_padder@details@spdlog@@@details@spdlog@@@8 	 DATA
	??_R0?AV?$source_linenum_formatter@Vscoped_padder@details@spdlog@@@details@spdlog@@@8 	 DATA
	??_R0?AV?$source_location_formatter@Unull_scoped_padder@details@spdlog@@@details@spdlog@@@8 	 DATA
	??_R0?AV?$source_location_formatter@Vscoped_padder@details@spdlog@@@details@spdlog@@@8 	 DATA
	??_R0?AV?$t_formatter@Unull_scoped_padder@details@spdlog@@@details@spdlog@@@8 	 DATA
	??_R0?AV?$t_formatter@Vscoped_padder@details@spdlog@@@details@spdlog@@@8 	 DATA
	??_R0?AV?$v_formatter@Unull_scoped_padder@details@spdlog@@@details@spdlog@@@8 	 DATA
	??_R0?AV?$v_formatter@Vscoped_padder@details@spdlog@@@details@spdlog@@@8 	 DATA
	??_R0?AV?$wincolor_sink@Uconsole_mutex@details@spdlog@@@sinks@spdlog@@@8 	 DATA
	??_R0?AV?$wincolor_stdout_sink@Uconsole_mutex@details@spdlog@@@sinks@spdlog@@@8 	 DATA
	??_R0?AV?$z_formatter@Unull_scoped_padder@details@spdlog@@@details@spdlog@@@8 	 DATA
	??_R0?AV?$z_formatter@Vscoped_padder@details@spdlog@@@details@spdlog@@@8 	 DATA
	??_R0?AVApplication@Hazel@@@8 	 DATA
	??_R0?AV_Facet_base@std@@@8 	 DATA
	??_R0?AV_Generic_error_category@std@@@8 	 DATA
	??_R0?AV_Ref_count_base@std@@@8 	 DATA
	??_R0?AV_System_error@std@@@8 	 DATA
	??_R0?AVaggregate_formatter@details@spdlog@@@8 	 DATA
	??_R0?AVbad_alloc@std@@@8 	 DATA
	??_R0?AVbad_array_new_length@std@@@8 	 DATA
	??_R0?AVbad_cast@std@@@8 	 DATA
	??_R0?AVch_formatter@details@spdlog@@@8 	 DATA
	??_R0?AVcolor_start_formatter@details@spdlog@@@8 	 DATA
	??_R0?AVcolor_stop_formatter@details@spdlog@@@8 	 DATA
	??_R0?AVerror_category@std@@@8 	 DATA
	??_R0?AVexception@std@@@8 	 DATA
	??_R0?AVfacet@locale@std@@@8 	 DATA
	??_R0?AVflag_formatter@details@spdlog@@@8 	 DATA
	??_R0?AVformat_error@v11@fmt@@@8 	 DATA
	??_R0?AVformatter@spdlog@@@8 	 DATA
	??_R0?AVfull_formatter@details@spdlog@@@8 	 DATA
	??_R0?AVlogger@spdlog@@@8 	 DATA
	??_R0?AVpattern_formatter@spdlog@@@8 	 DATA
	??_R0?AVruntime_error@std@@@8 	 DATA
	??_R0?AVsink@sinks@spdlog@@@8 	 DATA
	??_R0?AVspdlog_ex@spdlog@@@8 	 DATA
	??_R0?AVsystem_error@std@@@8 	 DATA
	??__J?1??get_context@mdc@spdlog@@SAAEAV?$map@V?$basic_string@DU?$char_traits@D@std@@V?$allocator@D@2@@std@@V12@U?$less@V?$basic_string@DU?$char_traits@D@std@@V?$allocator@D@2@@std@@@2@V?$allocator@U?$pair@$$CBV?$basic_string@DU?$char_traits@D@std@@V?$allocator@D@2@@std@@V12@@std@@@2@@std@@XZ@51 	 DATA
	?_OptionsStorage@?1??__local_stdio_printf_options@@9@4_KA 	 DATA
	?_Psave@?$_Facetptr@V?$format_facet@Vlocale@std@@@v11@fmt@@@std@@2PEBVfacet@locale@2@EB 	 DATA
	?_Psave@?$_Facetptr@V?$numpunct@D@std@@@std@@2PEBVfacet@locale@2@EB 	 DATA
	?_Static@?1???$_Immortalize_memcpy_image@V_Generic_error_category@std@@@std@@YAAEBV_Generic_error_category@1@XZ@4V21@B 	 DATA
	?context@?1??get_context@mdc@spdlog@@SAAEAV?$map@V?$basic_string@DU?$char_traits@D@std@@V?$allocator@D@2@@std@@V12@U?$less@V?$basic_string@DU?$char_traits@D@std@@V?$allocator@D@2@@std@@@2@V?$allocator@U?$pair@$$CBV?$basic_string@DU?$char_traits@D@std@@V?$allocator@D@2@@std@@V12@@std@@@2@@std@@XZ@4V45@A 	 DATA
	?err_counter@?6??err_handler_@logger@spdlog@@IEAAXAEBV?$basic_string@DU?$char_traits@D@std@@V?$allocator@D@2@@std@@@Z@4_KA 	 DATA
	?id@?$format_facet@Vlocale@std@@@v11@fmt@@2V0locale@std@@A 	 DATA
	?id@?$numpunct@D@std@@2V0locale@2@A 	 DATA
	?id@?$numpunct@_W@std@@2V0locale@2@A 	 DATA
	?last_report_time@?6??err_handler_@logger@spdlog@@IEAAXAEBV?$basic_string@DU?$char_traits@D@std@@V?$allocator@D@2@@std@@@Z@4V?$time_point@Usystem_clock@chrono@std@@V?$duration@_JU?$ratio@$00$0JIJGIA@@std@@@23@@chrono@5@A 	 DATA
	?mutex@?6??err_handler_@logger@spdlog@@IEAAXAEBV?$basic_string@DU?$char_traits@D@std@@V?$allocator@D@2@@std@@@Z@4V05@A 	 DATA
	?s_ClientLogger@Log@Hazel@@0V?$shared_ptr@Vlogger@spdlog@@@std@@A 	 DATA
	?s_CoreLogger@Log@Hazel@@0V?$shared_ptr@Vlogger@spdlog@@@std@@A 	 DATA
	?s_instance@?1??instance@registry@details@spdlog@@SAAEAV234@XZ@4V234@A 	 DATA
	?s_mutex@?1??mutex@console_mutex@details@spdlog@@SAAEAV1std@@XZ@4V15@A 	 DATA
	_Avx2WmemEnabledWeakValue 	 DATA
	??$?0$$QEAV?$basic_string@DU?$char_traits@D@std@@V?$allocator@D@2@@std@@$$Z$$V@?$pair@$$CBV?$basic_string@DU?$char_traits@D@std@@V?$allocator@D@2@@std@@V?$shared_ptr@Vlogger@spdlog@@@2@@std@@QEAA@Upiecewise_construct_t@1@V?$tuple@$$QEAV?$basic_string@DU?$char_traits@D@std@@V?$allocator@D@2@@std@@@1@V?$tuple@$$V@1@@Z
	??$?0$$V@?$_Compressed_pair@U?$default_delete@Vaggregate_formatter@details@spdlog@@@std@@PEAVaggregate_formatter@details@spdlog@@$00@std@@QEAA@U_Zero_then_variadic_args_t@1@@Z
	??$?0$$V@?$_Compressed_pair@U?$default_delete@Vcustom_flag_formatter@spdlog@@@std@@PEAVcustom_flag_formatter@spdlog@@$00@std@@QEAA@U_Zero_then_variadic_args_t@1@@Z
	??$?0$$V@?$_Compressed_pair@U?$default_delete@Vperiodic_worker@details@spdlog@@@std@@PEAVperiodic_worker@details@spdlog@@$00@std@@QEAA@U_Zero_then_variadic_args_t@1@@Z
	??$?0$$V@?$_Compressed_pair@V?$allocator@D@std@@V?$_String_val@U?$_Simple_types@D@std@@@2@$00@std@@QEAA@U_Zero_then_variadic_args_t@1@@Z
	??$?0$$V@?$_Compressed_pair@V?$allocator@U?$_Tree_node@U?$pair@$$CBV?$basic_string@DU?$char_traits@D@std@@V?$allocator@D@2@@std@@V12@@std@@PEAX@std@@@std@@V?$_Tree_val@U?$_Tree_simple_types@U?$pair@$$CBV?$basic_string@DU?$char_traits@D@std@@V?$allocator@D@2@@std@@V12@@std@@@std@@@2@$00@std@@QEAA@U_Zero_then_variadic_args_t@1@@Z
	??$?0$$V@?$_Compressed_pair@V?$allocator@V?$unique_ptr@Vflag_formatter@details@spdlog@@U?$default_delete@Vflag_formatter@details@spdlog@@@std@@@std@@@std@@V?$_Vector_val@U?$_Simple_types@V?$unique_ptr@Vflag_formatter@details@spdlog@@U?$default_delete@Vflag_formatter@details@spdlog@@@std@@@std@@@std@@@2@$00@std@@QEAA@U_Zero_then_variadic_args_t@1@@Z
	??$?0$$V@?$_Compressed_pair@V?$allocator@Vlog_msg_buffer@details@spdlog@@@std@@V?$_Vector_val@U?$_Simple_types@Vlog_msg_buffer@details@spdlog@@@std@@@2@$00@std@@QEAA@U_Zero_then_variadic_args_t@1@@Z
	??$?0$$V@?$_Ref_count_obj2@V?$wincolor_stdout_sink@Uconsole_mutex@details@spdlog@@@sinks@spdlog@@@std@@QEAA@XZ
	??$?0$00$0A@$00$0A@@?$basic_format_args@Vcontext@v11@fmt@@@v11@fmt@@QEAA@AEBU?$format_arg_store@Vcontext@v11@fmt@@$00$0A@$00@detail@12@@Z
	??$?0$01$0A@$0BM@$0A@@?$basic_format_args@Vcontext@v11@fmt@@@v11@fmt@@QEAA@AEBU?$format_arg_store@Vcontext@v11@fmt@@$01$0A@$0BM@@detail@12@@Z
	??$?0$01$0A@$0MN@$0A@@?$basic_format_args@Vcontext@v11@fmt@@@v11@fmt@@QEAA@AEBU?$format_arg_store@Vcontext@v11@fmt@@$01$0A@$0MN@@detail@12@@Z
	??$?0$02$0A@$0BMM@$0A@@?$basic_format_args@Vcontext@v11@fmt@@@v11@fmt@@QEAA@AEBU?$format_arg_store@Vcontext@v11@fmt@@$02$0A@$0BMM@@detail@12@@Z
	??$?0$0A@@id@locale@std@@QEAA@XZ
	??$?0AEAE@?$basic_format_arg@Vcontext@v11@fmt@@@v11@fmt@@QEAA@AEAE@Z
	??$?0AEAH@?$basic_format_arg@Vcontext@v11@fmt@@@v11@fmt@@QEAA@AEAH@Z
	??$?0AEAI@?$basic_format_arg@Vcontext@v11@fmt@@@v11@fmt@@QEAA@AEAI@Z
	??$?0AEAM@?$basic_format_arg@Vcontext@v11@fmt@@@v11@fmt@@QEAA@AEAM@Z
	??$?0AEAN@?$basic_format_arg@Vcontext@v11@fmt@@@v11@fmt@@QEAA@AEAN@Z
	??$?0AEAO@?$basic_format_arg@Vcontext@v11@fmt@@@v11@fmt@@QEAA@AEAO@Z
	??$?0AEAPEAU?$_List_node@U?$pair@$$CBDV?$unique_ptr@Vcustom_flag_formatter@spdlog@@U?$default_delete@Vcustom_flag_formatter@spdlog@@@std@@@std@@@std@@PEAX@std@@_N$0A@@?$pair@PEAU?$_List_node@U?$pair@$$CBDV?$unique_ptr@Vcustom_flag_formatter@spdlog@@U?$default_delete@Vcustom_flag_formatter@spdlog@@@std@@@std@@@std@@PEAX@std@@_N@std@@QEAA@AEAPEAU?$_List_node@U?$pair@$$CBDV?$unique_ptr@Vcustom_flag_formatter@spdlog@@U?$default_delete@Vcustom_flag_formatter@spdlog@@@std@@@std@@@std@@PEAX@1@$$QEA_N@Z
	??$?0AEAPEAU?$_List_node@U?$pair@$$CBV?$basic_string@DU?$char_traits@D@std@@V?$allocator@D@2@@std@@V?$shared_ptr@Vlogger@spdlog@@@2@@std@@PEAX@std@@_N$0A@@?$pair@PEAU?$_List_node@U?$pair@$$CBV?$basic_string@DU?$char_traits@D@std@@V?$allocator@D@2@@std@@V?$shared_ptr@Vlogger@spdlog@@@2@@std@@PEAX@std@@_N@std@@QEAA@AEAPEAU?$_List_node@U?$pair@$$CBV?$basic_string@DU?$char_traits@D@std@@V?$allocator@D@2@@std@@V?$shared_ptr@Vlogger@spdlog@@@2@@std@@PEAX@1@$$QEA_N@Z
	??$?0AEAPEAV?$A_formatter@Unull_scoped_padder@details@spdlog@@@details@spdlog@@@?$_Compressed_pair@U?$default_delete@V?$A_formatter@Unull_scoped_padder@details@spdlog@@@details@spdlog@@@std@@PEAV?$A_formatter@Unull_scoped_padder@details@spdlog@@@details@spdlog@@$00@std@@QEAA@U_Zero_then_variadic_args_t@1@AEAPEAV?$A_formatter@Unull_scoped_padder@details@spdlog@@@details@spdlog@@@Z
	??$?0AEAPEAV?$A_formatter@Vscoped_padder@details@spdlog@@@details@spdlog@@@?$_Compressed_pair@U?$default_delete@V?$A_formatter@Vscoped_padder@details@spdlog@@@details@spdlog@@@std@@PEAV?$A_formatter@Vscoped_padder@details@spdlog@@@details@spdlog@@$00@std@@QEAA@U_Zero_then_variadic_args_t@1@AEAPEAV?$A_formatter@Vscoped_padder@details@spdlog@@@details@spdlog@@@Z
	??$?0AEAPEAV?$B_formatter@Unull_scoped_padder@details@spdlog@@@details@spdlog@@@?$_Compressed_pair@U?$default_delete@V?$B_formatter@Unull_scoped_padder@details@spdlog@@@details@spdlog@@@std@@PEAV?$B_formatter@Unull_scoped_padder@details@spdlog@@@details@spdlog@@$00@std@@QEAA@U_Zero_then_variadic_args_t@1@AEAPEAV?$B_formatter@Unull_scoped_padder@details@spdlog@@@details@spdlog@@@Z
	??$?0AEAPEAV?$B_formatter@Vscoped_padder@details@spdlog@@@details@spdlog@@@?$_Compressed_pair@U?$default_delete@V?$B_formatter@Vscoped_padder@details@spdlog@@@details@spdlog@@@std@@PEAV?$B_formatter@Vscoped_padder@details@spdlog@@@details@spdlog@@$00@std@@QEAA@U_Zero_then_variadic_args_t@1@AEAPEAV?$B_formatter@Vscoped_padder@details@spdlog@@@details@spdlog@@@Z
	??$?0AEAPEAV?$C_formatter@Unull_scoped_padder@details@spdlog@@@details@spdlog@@@?$_Compressed_pair@U?$default_delete@V?$C_formatter@Unull_scoped_padder@details@spdlog@@@details@spdlog@@@std@@PEAV?$C_formatter@Unull_scoped_padder@details@spdlog@@@details@spdlog@@$00@std@@QEAA@U_Zero_then_variadic_args_t@1@AEAPEAV?$C_formatter@Unull_scoped_padder@details@spdlog@@@details@spdlog@@@Z
	??$?0AEAPEAV?$C_formatter@Vscoped_padder@details@spdlog@@@details@spdlog@@@?$_Compressed_pair@U?$default_delete@V?$C_formatter@Vscoped_padder@details@spdlog@@@details@spdlog@@@std@@PEAV?$C_formatter@Vscoped_padder@details@spdlog@@@details@spdlog@@$00@std@@QEAA@U_Zero_then_variadic_args_t@1@AEAPEAV?$C_formatter@Vscoped_padder@details@spdlog@@@details@spdlog@@@Z
	??$?0AEAPEAV?$D_formatter@Unull_scoped_padder@details@spdlog@@@details@spdlog@@@?$_Compressed_pair@U?$default_delete@V?$D_formatter@Unull_scoped_padder@details@spdlog@@@details@spdlog@@@std@@PEAV?$D_formatter@Unull_scoped_padder@details@spdlog@@@details@spdlog@@$00@std@@QEAA@U_Zero_then_variadic_args_t@1@AEAPEAV?$D_formatter@Unull_scoped_padder@details@spdlog@@@details@spdlog@@@Z
	??$?0AEAPEAV?$D_formatter@Vscoped_padder@details@spdlog@@@details@spdlog@@@?$_Compressed_pair@U?$default_delete@V?$D_formatter@Vscoped_padder@details@spdlog@@@details@spdlog@@@std@@PEAV?$D_formatter@Vscoped_padder@details@spdlog@@@details@spdlog@@$00@std@@QEAA@U_Zero_then_variadic_args_t@1@AEAPEAV?$D_formatter@Vscoped_padder@details@spdlog@@@details@spdlog@@@Z
	??$?0AEAPEAV?$E_formatter@Unull_scoped_padder@details@spdlog@@@details@spdlog@@@?$_Compressed_pair@U?$default_delete@V?$E_formatter@Unull_scoped_padder@details@spdlog@@@details@spdlog@@@std@@PEAV?$E_formatter@Unull_scoped_padder@details@spdlog@@@details@spdlog@@$00@std@@QEAA@U_Zero_then_variadic_args_t@1@AEAPEAV?$E_formatter@Unull_scoped_padder@details@spdlog@@@details@spdlog@@@Z
	??$?0AEAPEAV?$E_formatter@Vscoped_padder@details@spdlog@@@details@spdlog@@@?$_Compressed_pair@U?$default_delete@V?$E_formatter@Vscoped_padder@details@spdlog@@@details@spdlog@@@std@@PEAV?$E_formatter@Vscoped_padder@details@spdlog@@@details@spdlog@@$00@std@@QEAA@U_Zero_then_variadic_args_t@1@AEAPEAV?$E_formatter@Vscoped_padder@details@spdlog@@@details@spdlog@@@Z
	??$?0AEAPEAV?$F_formatter@Unull_scoped_padder@details@spdlog@@@details@spdlog@@@?$_Compressed_pair@U?$default_delete@V?$F_formatter@Unull_scoped_padder@details@spdlog@@@details@spdlog@@@std@@PEAV?$F_formatter@Unull_scoped_padder@details@spdlog@@@details@spdlog@@$00@std@@QEAA@U_Zero_then_variadic_args_t@1@AEAPEAV?$F_formatter@Unull_scoped_padder@details@spdlog@@@details@spdlog@@@Z
	??$?0AEAPEAV?$F_formatter@Vscoped_padder@details@spdlog@@@details@spdlog@@@?$_Compressed_pair@U?$default_delete@V?$F_formatter@Vscoped_padder@details@spdlog@@@details@spdlog@@@std@@PEAV?$F_formatter@Vscoped_padder@details@spdlog@@@details@spdlog@@$00@std@@QEAA@U_Zero_then_variadic_args_t@1@AEAPEAV?$F_formatter@Vscoped_padder@details@spdlog@@@details@spdlog@@@Z
	??$?0AEAPEAV?$H_formatter@Unull_scoped_padder@details@spdlog@@@details@spdlog@@@?$_Compressed_pair@U?$default_delete@V?$H_formatter@Unull_scoped_padder@details@spdlog@@@details@spdlog@@@std@@PEAV?$H_formatter@Unull_scoped_padder@details@spdlog@@@details@spdlog@@$00@std@@QEAA@U_Zero_then_variadic_args_t@1@AEAPEAV?$H_formatter@Unull_scoped_padder@details@spdlog@@@details@spdlog@@@Z
	??$?0AEAPEAV?$H_formatter@Vscoped_padder@details@spdlog@@@details@spdlog@@@?$_Compressed_pair@U?$default_delete@V?$H_formatter@Vscoped_padder@details@spdlog@@@details@spdlog@@@std@@PEAV?$H_formatter@Vscoped_padder@details@spdlog@@@details@spdlog@@$00@std@@QEAA@U_Zero_then_variadic_args_t@1@AEAPEAV?$H_formatter@Vscoped_padder@details@spdlog@@@details@spdlog@@@Z
	??$?0AEAPEAV?$I_formatter@Unull_scoped_padder@details@spdlog@@@details@spdlog@@@?$_Compressed_pair@U?$default_delete@V?$I_formatter@Unull_scoped_padder@details@spdlog@@@details@spdlog@@@std@@PEAV?$I_formatter@Unull_scoped_padder@details@spdlog@@@details@spdlog@@$00@std@@QEAA@U_Zero_then_variadic_args_t@1@AEAPEAV?$I_formatter@Unull_scoped_padder@details@spdlog@@@details@spdlog@@@Z
	??$?0AEAPEAV?$I_formatter@Vscoped_padder@details@spdlog@@@details@spdlog@@@?$_Compressed_pair@U?$default_delete@V?$I_formatter@Vscoped_padder@details@spdlog@@@details@spdlog@@@std@@PEAV?$I_formatter@Vscoped_padder@details@spdlog@@@details@spdlog@@$00@std@@QEAA@U_Zero_then_variadic_args_t@1@AEAPEAV?$I_formatter@Vscoped_padder@details@spdlog@@@details@spdlog@@@Z
	??$?0AEAPEAV?$M_formatter@Unull_scoped_padder@details@spdlog@@@details@spdlog@@@?$_Compressed_pair@U?$default_delete@V?$M_formatter@Unull_scoped_padder@details@spdlog@@@details@spdlog@@@std@@PEAV?$M_formatter@Unull_scoped_padder@details@spdlog@@@details@spdlog@@$00@std@@QEAA@U_Zero_then_variadic_args_t@1@AEAPEAV?$M_formatter@Unull_scoped_padder@details@spdlog@@@details@spdlog@@@Z
	??$?0AEAPEAV?$M_formatter@Vscoped_padder@details@spdlog@@@details@spdlog@@@?$_Compressed_pair@U?$default_delete@V?$M_formatter@Vscoped_padder@details@spdlog@@@details@spdlog@@@std@@PEAV?$M_formatter@Vscoped_padder@details@spdlog@@@details@spdlog@@$00@std@@QEAA@U_Zero_then_variadic_args_t@1@AEAPEAV?$M_formatter@Vscoped_padder@details@spdlog@@@details@spdlog@@@Z
	??$?0AEAPEAV?$R_formatter@Unull_scoped_padder@details@spdlog@@@details@spdlog@@@?$_Compressed_pair@U?$default_delete@V?$R_formatter@Unull_scoped_padder@details@spdlog@@@details@spdlog@@@std@@PEAV?$R_formatter@Unull_scoped_padder@details@spdlog@@@details@spdlog@@$00@std@@QEAA@U_Zero_then_variadic_args_t@1@AEAPEAV?$R_formatter@Unull_scoped_padder@details@spdlog@@@details@spdlog@@@Z
	??$?0AEAPEAV?$R_formatter@Vscoped_padder@details@spdlog@@@details@spdlog@@@?$_Compressed_pair@U?$default_delete@V?$R_formatter@Vscoped_padder@details@spdlog@@@details@spdlog@@@std@@PEAV?$R_formatter@Vscoped_padder@details@spdlog@@@details@spdlog@@$00@std@@QEAA@U_Zero_then_variadic_args_t@1@AEAPEAV?$R_formatter@Vscoped_padder@details@spdlog@@@details@spdlog@@@Z
	??$?0AEAPEAV?$S_formatter@Unull_scoped_padder@details@spdlog@@@details@spdlog@@@?$_Compressed_pair@U?$default_delete@V?$S_formatter@Unull_scoped_padder@details@spdlog@@@details@spdlog@@@std@@PEAV?$S_formatter@Unull_scoped_padder@details@spdlog@@@details@spdlog@@$00@std@@QEAA@U_Zero_then_variadic_args_t@1@AEAPEAV?$S_formatter@Unull_scoped_padder@details@spdlog@@@details@spdlog@@@Z
	??$?0AEAPEAV?$S_formatter@Vscoped_padder@details@spdlog@@@details@spdlog@@@?$_Compressed_pair@U?$default_delete@V?$S_formatter@Vscoped_padder@details@spdlog@@@details@spdlog@@@std@@PEAV?$S_formatter@Vscoped_padder@details@spdlog@@@details@spdlog@@$00@std@@QEAA@U_Zero_then_variadic_args_t@1@AEAPEAV?$S_formatter@Vscoped_padder@details@spdlog@@@details@spdlog@@@Z
	??$?0AEAPEAV?$T_formatter@Unull_scoped_padder@details@spdlog@@@details@spdlog@@@?$_Compressed_pair@U?$default_delete@V?$T_formatter@Unull_scoped_padder@details@spdlog@@@details@spdlog@@@std@@PEAV?$T_formatter@Unull_scoped_padder@details@spdlog@@@details@spdlog@@$00@std@@QEAA@U_Zero_then_variadic_args_t@1@AEAPEAV?$T_formatter@Unull_scoped_padder@details@spdlog@@@details@spdlog@@@Z
	??$?0AEAPEAV?$T_formatter@Vscoped_padder@details@spdlog@@@details@spdlog@@@?$_Compressed_pair@U?$default_delete@V?$T_formatter@Vscoped_padder@details@spdlog@@@details@spdlog@@@std@@PEAV?$T_formatter@Vscoped_padder@details@spdlog@@@details@spdlog@@$00@std@@QEAA@U_Zero_then_variadic_args_t@1@AEAPEAV?$T_formatter@Vscoped_padder@details@spdlog@@@details@spdlog@@@Z
	??$?0AEAPEAV?$Y_formatter@Unull_scoped_padder@details@spdlog@@@details@spdlog@@@?$_Compressed_pair@U?$default_delete@V?$Y_formatter@Unull_scoped_padder@details@spdlog@@@details@spdlog@@@std@@PEAV?$Y_formatter@Unull_scoped_padder@details@spdlog@@@details@spdlog@@$00@std@@QEAA@U_Zero_then_variadic_args_t@1@AEAPEAV?$Y_formatter@Unull_scoped_padder@details@spdlog@@@details@spdlog@@@Z
	??$?0AEAPEAV?$Y_formatter@Vscoped_padder@details@spdlog@@@details@spdlog@@@?$_Compressed_pair@U?$default_delete@V?$Y_formatter@Vscoped_padder@details@spdlog@@@details@spdlog@@@std@@PEAV?$Y_formatter@Vscoped_padder@details@spdlog@@@details@spdlog@@$00@std@@QEAA@U_Zero_then_variadic_args_t@1@AEAPEAV?$Y_formatter@Vscoped_padder@details@spdlog@@@details@spdlog@@@Z
	??$?0AEAPEAV?$a_formatter@Unull_scoped_padder@details@spdlog@@@details@spdlog@@@?$_Compressed_pair@U?$default_delete@V?$a_formatter@Unull_scoped_padder@details@spdlog@@@details@spdlog@@@std@@PEAV?$a_formatter@Unull_scoped_padder@details@spdlog@@@details@spdlog@@$00@std@@QEAA@U_Zero_then_variadic_args_t@1@AEAPEAV?$a_formatter@Unull_scoped_padder@details@spdlog@@@details@spdlog@@@Z
	??$?0AEAPEAV?$a_formatter@Vscoped_padder@details@spdlog@@@details@spdlog@@@?$_Compressed_pair@U?$default_delete@V?$a_formatter@Vscoped_padder@details@spdlog@@@details@spdlog@@@std@@PEAV?$a_formatter@Vscoped_padder@details@spdlog@@@details@spdlog@@$00@std@@QEAA@U_Zero_then_variadic_args_t@1@AEAPEAV?$a_formatter@Vscoped_padder@details@spdlog@@@details@spdlog@@@Z
	??$?0AEAPEAV?$b_formatter@Unull_scoped_padder@details@spdlog@@@details@spdlog@@@?$_Compressed_pair@U?$default_delete@V?$b_formatter@Unull_scoped_padder@details@spdlog@@@details@spdlog@@@std@@PEAV?$b_formatter@Unull_scoped_padder@details@spdlog@@@details@spdlog@@$00@std@@QEAA@U_Zero_then_variadic_args_t@1@AEAPEAV?$b_formatter@Unull_scoped_padder@details@spdlog@@@details@spdlog@@@Z
	??$?0AEAPEAV?$b_formatter@Vscoped_padder@details@spdlog@@@details@spdlog@@@?$_Compressed_pair@U?$default_delete@V?$b_formatter@Vscoped_padder@details@spdlog@@@details@spdlog@@@std@@PEAV?$b_formatter@Vscoped_padder@details@spdlog@@@details@spdlog@@$00@std@@QEAA@U_Zero_then_variadic_args_t@1@AEAPEAV?$b_formatter@Vscoped_padder@details@spdlog@@@details@spdlog@@@Z
	??$?0AEAPEAV?$c_formatter@Unull_scoped_padder@details@spdlog@@@details@spdlog@@@?$_Compressed_pair@U?$default_delete@V?$c_formatter@Unull_scoped_padder@details@spdlog@@@details@spdlog@@@std@@PEAV?$c_formatter@Unull_scoped_padder@details@spdlog@@@details@spdlog@@$00@std@@QEAA@U_Zero_then_variadic_args_t@1@AEAPEAV?$c_formatter@Unull_scoped_padder@details@spdlog@@@details@spdlog@@@Z
	??$?0AEAPEAV?$c_formatter@Vscoped_padder@details@spdlog@@@details@spdlog@@@?$_Compressed_pair@U?$default_delete@V?$c_formatter@Vscoped_padder@details@spdlog@@@details@spdlog@@@std@@PEAV?$c_formatter@Vscoped_padder@details@spdlog@@@details@spdlog@@$00@std@@QEAA@U_Zero_then_variadic_args_t@1@AEAPEAV?$c_formatter@Vscoped_padder@details@spdlog@@@details@spdlog@@@Z
	??$?0AEAPEAV?$d_formatter@Unull_scoped_padder@details@spdlog@@@details@spdlog@@@?$_Compressed_pair@U?$default_delete@V?$d_formatter@Unull_scoped_padder@details@spdlog@@@details@spdlog@@@std@@PEAV?$d_formatter@Unull_scoped_padder@details@spdlog@@@details@spdlog@@$00@std@@QEAA@U_Zero_then_variadic_args_t@1@AEAPEAV?$d_formatter@Unull_scoped_padder@details@spdlog@@@details@spdlog@@@Z
	??$?0AEAPEAV?$d_formatter@Vscoped_padder@details@spdlog@@@details@spdlog@@@?$_Compressed_pair@U?$default_delete@V?$d_formatter@Vscoped_padder@details@spdlog@@@details@spdlog@@@std@@PEAV?$d_formatter@Vscoped_padder@details@spdlog@@@details@spdlog@@$00@std@@QEAA@U_Zero_then_variadic_args_t@1@AEAPEAV?$d_formatter@Vscoped_padder@details@spdlog@@@details@spdlog@@@Z
	??$?0AEAPEAV?$e_formatter@Unull_scoped_padder@details@spdlog@@@details@spdlog@@@?$_Compressed_pair@U?$default_delete@V?$e_formatter@Unull_scoped_padder@details@spdlog@@@details@spdlog@@@std@@PEAV?$e_formatter@Unull_scoped_padder@details@spdlog@@@details@spdlog@@$00@std@@QEAA@U_Zero_then_variadic_args_t@1@AEAPEAV?$e_formatter@Unull_scoped_padder@details@spdlog@@@details@spdlog@@@Z
	??$?0AEAPEAV?$e_formatter@Vscoped_padder@details@spdlog@@@details@spdlog@@@?$_Compressed_pair@U?$default_delete@V?$e_formatter@Vscoped_padder@details@spdlog@@@details@spdlog@@@std@@PEAV?$e_formatter@Vscoped_padder@details@spdlog@@@details@spdlog@@$00@std@@QEAA@U_Zero_then_variadic_args_t@1@AEAPEAV?$e_formatter@Vscoped_padder@details@spdlog@@@details@spdlog@@@Z
	??$?0AEAPEAV?$elapsed_formatter@Unull_scoped_padder@details@spdlog@@V?$duration@_JU?$ratio@$00$00@std@@@chrono@std@@@details@spdlog@@@?$_Compressed_pair@U?$default_delete@V?$elapsed_formatter@Unull_scoped_padder@details@spdlog@@V?$duration@_JU?$ratio@$00$00@std@@@chrono@std@@@details@spdlog@@@std@@PEAV?$elapsed_formatter@Unull_scoped_padder@details@spdlog@@V?$duration@_JU?$ratio@$00$00@std@@@chrono@std@@@details@spdlog@@$00@std@@QEAA@U_Zero_then_variadic_args_t@1@AEAPEAV?$elapsed_formatter@Unull_scoped_padder@details@spdlog@@V?$duration@_JU?$ratio@$00$00@std@@@chrono@std@@@details@spdlog@@@Z
	??$?0AEAPEAV?$elapsed_formatter@Unull_scoped_padder@details@spdlog@@V?$duration@_JU?$ratio@$00$0DLJKMKAA@@std@@@chrono@std@@@details@spdlog@@@?$_Compressed_pair@U?$default_delete@V?$elapsed_formatter@Unull_scoped_padder@details@spdlog@@V?$duration@_JU?$ratio@$00$0DLJKMKAA@@std@@@chrono@std@@@details@spdlog@@@std@@PEAV?$elapsed_formatter@Unull_scoped_padder@details@spdlog@@V?$duration@_JU?$ratio@$00$0DLJKMKAA@@std@@@chrono@std@@@details@spdlog@@$00@std@@QEAA@U_Zero_then_variadic_args_t@1@AEAPEAV?$elapsed_formatter@Unull_scoped_padder@details@spdlog@@V?$duration@_JU?$ratio@$00$0DLJKMKAA@@std@@@chrono@std@@@details@spdlog@@@Z
	??$?0AEAPEAV?$elapsed_formatter@Unull_scoped_padder@details@spdlog@@V?$duration@_JU?$ratio@$00$0DOI@@std@@@chrono@std@@@details@spdlog@@@?$_Compressed_pair@U?$default_delete@V?$elapsed_formatter@Unull_scoped_padder@details@spdlog@@V?$duration@_JU?$ratio@$00$0DOI@@std@@@chrono@std@@@details@spdlog@@@std@@PEAV?$elapsed_formatter@Unull_scoped_padder@details@spdlog@@V?$duration@_JU?$ratio@$00$0DOI@@std@@@chrono@std@@@details@spdlog@@$00@std@@QEAA@U_Zero_then_variadic_args_t@1@AEAPEAV?$elapsed_formatter@Unull_scoped_padder@details@spdlog@@V?$duration@_JU?$ratio@$00$0DOI@@std@@@chrono@std@@@details@spdlog@@@Z
	??$?0AEAPEAV?$elapsed_formatter@Unull_scoped_padder@details@spdlog@@V?$duration@_JU?$ratio@$00$0PECEA@@std@@@chrono@std@@@details@spdlog@@@?$_Compressed_pair@U?$default_delete@V?$elapsed_formatter@Unull_scoped_padder@details@spdlog@@V?$duration@_JU?$ratio@$00$0PECEA@@std@@@chrono@std@@@details@spdlog@@@std@@PEAV?$elapsed_formatter@Unull_scoped_padder@details@spdlog@@V?$duration@_JU?$ratio@$00$0PECEA@@std@@@chrono@std@@@details@spdlog@@$00@std@@QEAA@U_Zero_then_variadic_args_t@1@AEAPEAV?$elapsed_formatter@Unull_scoped_padder@details@spdlog@@V?$duration@_JU?$ratio@$00$0PECEA@@std@@@chrono@std@@@details@spdlog@@@Z
	??$?0AEAPEAV?$elapsed_formatter@Vscoped_padder@details@spdlog@@V?$duration@_JU?$ratio@$00$00@std@@@chrono@std@@@details@spdlog@@@?$_Compressed_pair@U?$default_delete@V?$elapsed_formatter@Vscoped_padder@details@spdlog@@V?$duration@_JU?$ratio@$00$00@std@@@chrono@std@@@details@spdlog@@@std@@PEAV?$elapsed_formatter@Vscoped_padder@details@spdlog@@V?$duration@_JU?$ratio@$00$00@std@@@chrono@std@@@details@spdlog@@$00@std@@QEAA@U_Zero_then_variadic_args_t@1@AEAPEAV?$elapsed_formatter@Vscoped_padder@details@spdlog@@V?$duration@_JU?$ratio@$00$00@std@@@chrono@std@@@details@spdlog@@@Z
	??$?0AEAPEAV?$elapsed_formatter@Vscoped_padder@details@spdlog@@V?$duration@_JU?$ratio@$00$0DLJKMKAA@@std@@@chrono@std@@@details@spdlog@@@?$_Compressed_pair@U?$default_delete@V?$elapsed_formatter@Vscoped_padder@details@spdlog@@V?$duration@_JU?$ratio@$00$0DLJKMKAA@@std@@@chrono@std@@@details@spdlog@@@std@@PEAV?$elapsed_formatter@Vscoped_padder@details@spdlog@@V?$duration@_JU?$ratio@$00$0DLJKMKAA@@std@@@chrono@std@@@details@spdlog@@$00@std@@QEAA@U_Zero_then_variadic_args_t@1@AEAPEAV?$elapsed_formatter@Vscoped_padder@details@spdlog@@V?$duration@_JU?$ratio@$00$0DLJKMKAA@@std@@@chrono@std@@@details@spdlog@@@Z
	??$?0AEAPEAV?$elapsed_formatter@Vscoped_padder@details@spdlog@@V?$duration@_JU?$ratio@$00$0DOI@@std@@@chrono@std@@@details@spdlog@@@?$_Compressed_pair@U?$default_delete@V?$elapsed_formatter@Vscoped_padder@details@spdlog@@V?$duration@_JU?$ratio@$00$0DOI@@std@@@chrono@std@@@details@spdlog@@@std@@PEAV?$elapsed_formatter@Vscoped_padder@details@spdlog@@V?$duration@_JU?$ratio@$00$0DOI@@std@@@chrono@std@@@details@spdlog@@$00@std@@QEAA@U_Zero_then_variadic_args_t@1@AEAPEAV?$elapsed_formatter@Vscoped_padder@details@spdlog@@V?$duration@_JU?$ratio@$00$0DOI@@std@@@chrono@std@@@details@spdlog@@@Z
	??$?0AEAPEAV?$elapsed_formatter@Vscoped_padder@details@spdlog@@V?$duration@_JU?$ratio@$00$0PECEA@@std@@@chrono@std@@@details@spdlog@@@?$_Compressed_pair@U?$default_delete@V?$elapsed_formatter@Vscoped_padder@details@spdlog@@V?$duration@_JU?$ratio@$00$0PECEA@@std@@@chrono@std@@@details@spdlog@@@std@@PEAV?$elapsed_formatter@Vscoped_padder@details@spdlog@@V?$duration@_JU?$ratio@$00$0PECEA@@std@@@chrono@std@@@details@spdlog@@$00@std@@QEAA@U_Zero_then_variadic_args_t@1@AEAPEAV?$elapsed_formatter@Vscoped_padder@details@spdlog@@V?$duration@_JU?$ratio@$00$0PECEA@@std@@@chrono@std@@@details@spdlog@@@Z
	??$?0AEAPEAV?$f_formatter@Unull_scoped_padder@details@spdlog@@@details@spdlog@@@?$_Compressed_pair@U?$default_delete@V?$f_formatter@Unull_scoped_padder@details@spdlog@@@details@spdlog@@@std@@PEAV?$f_formatter@Unull_scoped_padder@details@spdlog@@@details@spdlog@@$00@std@@QEAA@U_Zero_then_variadic_args_t@1@AEAPEAV?$f_formatter@Unull_scoped_padder@details@spdlog@@@details@spdlog@@@Z
	??$?0AEAPEAV?$f_formatter@Vscoped_padder@details@spdlog@@@details@spdlog@@@?$_Compressed_pair@U?$default_delete@V?$f_formatter@Vscoped_padder@details@spdlog@@@details@spdlog@@@std@@PEAV?$f_formatter@Vscoped_padder@details@spdlog@@@details@spdlog@@$00@std@@QEAA@U_Zero_then_variadic_args_t@1@AEAPEAV?$f_formatter@Vscoped_padder@details@spdlog@@@details@spdlog@@@Z
	??$?0AEAPEAV?$level_formatter@Unull_scoped_padder@details@spdlog@@@details@spdlog@@@?$_Compressed_pair@U?$default_delete@V?$level_formatter@Unull_scoped_padder@details@spdlog@@@details@spdlog@@@std@@PEAV?$level_formatter@Unull_scoped_padder@details@spdlog@@@details@spdlog@@$00@std@@QEAA@U_Zero_then_variadic_args_t@1@AEAPEAV?$level_formatter@Unull_scoped_padder@details@spdlog@@@details@spdlog@@@Z
	??$?0AEAPEAV?$level_formatter@Vscoped_padder@details@spdlog@@@details@spdlog@@@?$_Compressed_pair@U?$default_delete@V?$level_formatter@Vscoped_padder@details@spdlog@@@details@spdlog@@@std@@PEAV?$level_formatter@Vscoped_padder@details@spdlog@@@details@spdlog@@$00@std@@QEAA@U_Zero_then_variadic_args_t@1@AEAPEAV?$level_formatter@Vscoped_padder@details@spdlog@@@details@spdlog@@@Z
	??$?0AEAPEAV?$m_formatter@Unull_scoped_padder@details@spdlog@@@details@spdlog@@@?$_Compressed_pair@U?$default_delete@V?$m_formatter@Unull_scoped_padder@details@spdlog@@@details@spdlog@@@std@@PEAV?$m_formatter@Unull_scoped_padder@details@spdlog@@@details@spdlog@@$00@std@@QEAA@U_Zero_then_variadic_args_t@1@AEAPEAV?$m_formatter@Unull_scoped_padder@details@spdlog@@@details@spdlog@@@Z
	??$?0AEAPEAV?$m_formatter@Vscoped_padder@details@spdlog@@@details@spdlog@@@?$_Compressed_pair@U?$default_delete@V?$m_formatter@Vscoped_padder@details@spdlog@@@details@spdlog@@@std@@PEAV?$m_formatter@Vscoped_padder@details@spdlog@@@details@spdlog@@$00@std@@QEAA@U_Zero_then_variadic_args_t@1@AEAPEAV?$m_formatter@Vscoped_padder@details@spdlog@@@details@spdlog@@@Z
	??$?0AEAPEAV?$mdc_formatter@Unull_scoped_padder@details@spdlog@@@details@spdlog@@@?$_Compressed_pair@U?$default_delete@V?$mdc_formatter@Unull_scoped_padder@details@spdlog@@@details@spdlog@@@std@@PEAV?$mdc_formatter@Unull_scoped_padder@details@spdlog@@@details@spdlog@@$00@std@@QEAA@U_Zero_then_variadic_args_t@1@AEAPEAV?$mdc_formatter@Unull_scoped_padder@details@spdlog@@@details@spdlog@@@Z
	??$?0AEAPEAV?$mdc_formatter@Vscoped_padder@details@spdlog@@@details@spdlog@@@?$_Compressed_pair@U?$default_delete@V?$mdc_formatter@Vscoped_padder@details@spdlog@@@details@spdlog@@@std@@PEAV?$mdc_formatter@Vscoped_padder@details@spdlog@@@details@spdlog@@$00@std@@QEAA@U_Zero_then_variadic_args_t@1@AEAPEAV?$mdc_formatter@Vscoped_padder@details@spdlog@@@details@spdlog@@@Z
	??$?0AEAPEAV?$name_formatter@Unull_scoped_padder@details@spdlog@@@details@spdlog@@@?$_Compressed_pair@U?$default_delete@V?$name_formatter@Unull_scoped_padder@details@spdlog@@@details@spdlog@@@std@@PEAV?$name_formatter@Unull_scoped_padder@details@spdlog@@@details@spdlog@@$00@std@@QEAA@U_Zero_then_variadic_args_t@1@AEAPEAV?$name_formatter@Unull_scoped_padder@details@spdlog@@@details@spdlog@@@Z
	??$?0AEAPEAV?$name_formatter@Vscoped_padder@details@spdlog@@@details@spdlog@@@?$_Compressed_pair@U?$default_delete@V?$name_formatter@Vscoped_padder@details@spdlog@@@details@spdlog@@@std@@PEAV?$name_formatter@Vscoped_padder@details@spdlog@@@details@spdlog@@$00@std@@QEAA@U_Zero_then_variadic_args_t@1@AEAPEAV?$name_formatter@Vscoped_padder@details@spdlog@@@details@spdlog@@@Z
	??$?0AEAPEAV?$p_formatter@Unull_scoped_padder@details@spdlog@@@details@spdlog@@@?$_Compressed_pair@U?$default_delete@V?$p_formatter@Unull_scoped_padder@details@spdlog@@@details@spdlog@@@std@@PEAV?$p_formatter@Unull_scoped_padder@details@spdlog@@@details@spdlog@@$00@std@@QEAA@U_Zero_then_variadic_args_t@1@AEAPEAV?$p_formatter@Unull_scoped_padder@details@spdlog@@@details@spdlog@@@Z
	??$?0AEAPEAV?$p_formatter@Vscoped_padder@details@spdlog@@@details@spdlog@@@?$_Compressed_pair@U?$default_delete@V?$p_formatter@Vscoped_padder@details@spdlog@@@details@spdlog@@@std@@PEAV?$p_formatter@Vscoped_padder@details@spdlog@@@details@spdlog@@$00@std@@QEAA@U_Zero_then_variadic_args_t@1@AEAPEAV?$p_formatter@Vscoped_padder@details@spdlog@@@details@spdlog@@@Z
	??$?0AEAPEAV?$pid_formatter@Unull_scoped_padder@details@spdlog@@@details@spdlog@@@?$_Compressed_pair@U?$default_delete@V?$pid_formatter@Unull_scoped_padder@details@spdlog@@@details@spdlog@@@std@@PEAV?$pid_formatter@Unull_scoped_padder@details@spdlog@@@details@spdlog@@$00@std@@QEAA@U_Zero_then_variadic_args_t@1@AEAPEAV?$pid_formatter@Unull_scoped_padder@details@spdlog@@@details@spdlog@@@Z
	??$?0AEAPEAV?$pid_formatter@Vscoped_padder@details@spdlog@@@details@spdlog@@@?$_Compressed_pair@U?$default_delete@V?$pid_formatter@Vscoped_padder@details@spdlog@@@details@spdlog@@@std@@PEAV?$pid_formatter@Vscoped_padder@details@spdlog@@@details@spdlog@@$00@std@@QEAA@U_Zero_then_variadic_args_t@1@AEAPEAV?$pid_formatter@Vscoped_padder@details@spdlog@@@details@spdlog@@@Z
	??$?0AEAPEAV?$r_formatter@Unull_scoped_padder@details@spdlog@@@details@spdlog@@@?$_Compressed_pair@U?$default_delete@V?$r_formatter@Unull_scoped_padder@details@spdlog@@@details@spdlog@@@std@@PEAV?$r_formatter@Unull_scoped_padder@details@spdlog@@@details@spdlog@@$00@std@@QEAA@U_Zero_then_variadic_args_t@1@AEAPEAV?$r_formatter@Unull_scoped_padder@details@spdlog@@@details@spdlog@@@Z
	??$?0AEAPEAV?$r_formatter@Vscoped_padder@details@spdlog@@@details@spdlog@@@?$_Compressed_pair@U?$default_delete@V?$r_formatter@Vscoped_padder@details@spdlog@@@details@spdlog@@@std@@PEAV?$r_formatter@Vscoped_padder@details@spdlog@@@details@spdlog@@$00@std@@QEAA@U_Zero_then_variadic_args_t@1@AEAPEAV?$r_formatter@Vscoped_padder@details@spdlog@@@details@spdlog@@@Z
	??$?0AEAPEAV?$short_filename_formatter@Unull_scoped_padder@details@spdlog@@@details@spdlog@@@?$_Compressed_pair@U?$default_delete@V?$short_filename_formatter@Unull_scoped_padder@details@spdlog@@@details@spdlog@@@std@@PEAV?$short_filename_formatter@Unull_scoped_padder@details@spdlog@@@details@spdlog@@$00@std@@QEAA@U_Zero_then_variadic_args_t@1@AEAPEAV?$short_filename_formatter@Unull_scoped_padder@details@spdlog@@@details@spdlog@@@Z
	??$?0AEAPEAV?$short_filename_formatter@Vscoped_padder@details@spdlog@@@details@spdlog@@@?$_Compressed_pair@U?$default_delete@V?$short_filename_formatter@Vscoped_padder@details@spdlog@@@details@spdlog@@@std@@PEAV?$short_filename_formatter@Vscoped_padder@details@spdlog@@@details@spdlog@@$00@std@@QEAA@U_Zero_then_variadic_args_t@1@AEAPEAV?$short_filename_formatter@Vscoped_padder@details@spdlog@@@details@spdlog@@@Z
	??$?0AEAPEAV?$short_level_formatter@Unull_scoped_padder@details@spdlog@@@details@spdlog@@@?$_Compressed_pair@U?$default_delete@V?$short_level_formatter@Unull_scoped_padder@details@spdlog@@@details@spdlog@@@std@@PEAV?$short_level_formatter@Unull_scoped_padder@details@spdlog@@@details@spdlog@@$00@std@@QEAA@U_Zero_then_variadic_args_t@1@AEAPEAV?$short_level_formatter@Unull_scoped_padder@details@spdlog@@@details@spdlog@@@Z
	??$?0AEAPEAV?$short_level_formatter@Vscoped_padder@details@spdlog@@@details@spdlog@@@?$_Compressed_pair@U?$default_delete@V?$short_level_formatter@Vscoped_padder@details@spdlog@@@details@spdlog@@@std@@PEAV?$short_level_formatter@Vscoped_padder@details@spdlog@@@details@spdlog@@$00@std@@QEAA@U_Zero_then_variadic_args_t@1@AEAPEAV?$short_level_formatter@Vscoped_padder@details@spdlog@@@details@spdlog@@@Z
	??$?0AEAPEAV?$source_filename_formatter@Unull_scoped_padder@details@spdlog@@@details@spdlog@@@?$_Compressed_pair@U?$default_delete@V?$source_filename_formatter@Unull_scoped_padder@details@spdlog@@@details@spdlog@@@std@@PEAV?$source_filename_formatter@Unull_scoped_padder@details@spdlog@@@details@spdlog@@$00@std@@QEAA@U_Zero_then_variadic_args_t@1@AEAPEAV?$source_filename_formatter@Unull_scoped_padder@details@spdlog@@@details@spdlog@@@Z
	??$?0AEAPEAV?$source_filename_formatter@Vscoped_padder@details@spdlog@@@details@spdlog@@@?$_Compressed_pair@U?$default_delete@V?$source_filename_formatter@Vscoped_padder@details@spdlog@@@details@spdlog@@@std@@PEAV?$source_filename_formatter@Vscoped_padder@details@spdlog@@@details@spdlog@@$00@std@@QEAA@U_Zero_then_variadic_args_t@1@AEAPEAV?$source_filename_formatter@Vscoped_padder@details@spdlog@@@details@spdlog@@@Z
	??$?0AEAPEAV?$source_funcname_formatter@Unull_scoped_padder@details@spdlog@@@details@spdlog@@@?$_Compressed_pair@U?$default_delete@V?$source_funcname_formatter@Unull_scoped_padder@details@spdlog@@@details@spdlog@@@std@@PEAV?$source_funcname_formatter@Unull_scoped_padder@details@spdlog@@@details@spdlog@@$00@std@@QEAA@U_Zero_then_variadic_args_t@1@AEAPEAV?$source_funcname_formatter@Unull_scoped_padder@details@spdlog@@@details@spdlog@@@Z
	??$?0AEAPEAV?$source_funcname_formatter@Vscoped_padder@details@spdlog@@@details@spdlog@@@?$_Compressed_pair@U?$default_delete@V?$source_funcname_formatter@Vscoped_padder@details@spdlog@@@details@spdlog@@@std@@PEAV?$source_funcname_formatter@Vscoped_padder@details@spdlog@@@details@spdlog@@$00@std@@QEAA@U_Zero_then_variadic_args_t@1@AEAPEAV?$source_funcname_formatter@Vscoped_padder@details@spdlog@@@details@spdlog@@@Z
	??$?0AEAPEAV?$source_linenum_formatter@Unull_scoped_padder@details@spdlog@@@details@spdlog@@@?$_Compressed_pair@U?$default_delete@V?$source_linenum_formatter@Unull_scoped_padder@details@spdlog@@@details@spdlog@@@std@@PEAV?$source_linenum_formatter@Unull_scoped_padder@details@spdlog@@@details@spdlog@@$00@std@@QEAA@U_Zero_then_variadic_args_t@1@AEAPEAV?$source_linenum_formatter@Unull_scoped_padder@details@spdlog@@@details@spdlog@@@Z
	??$?0AEAPEAV?$source_linenum_formatter@Vscoped_padder@details@spdlog@@@details@spdlog@@@?$_Compressed_pair@U?$default_delete@V?$source_linenum_formatter@Vscoped_padder@details@spdlog@@@details@spdlog@@@std@@PEAV?$source_linenum_formatter@Vscoped_padder@details@spdlog@@@details@spdlog@@$00@std@@QEAA@U_Zero_then_variadic_args_t@1@AEAPEAV?$source_linenum_formatter@Vscoped_padder@details@spdlog@@@details@spdlog@@@Z
	??$?0AEAPEAV?$source_location_formatter@Unull_scoped_padder@details@spdlog@@@details@spdlog@@@?$_Compressed_pair@U?$default_delete@V?$source_location_formatter@Unull_scoped_padder@details@spdlog@@@details@spdlog@@@std@@PEAV?$source_location_formatter@Unull_scoped_padder@details@spdlog@@@details@spdlog@@$00@std@@QEAA@U_Zero_then_variadic_args_t@1@AEAPEAV?$source_location_formatter@Unull_scoped_padder@details@spdlog@@@details@spdlog@@@Z
	??$?0AEAPEAV?$source_location_formatter@Vscoped_padder@details@spdlog@@@details@spdlog@@@?$_Compressed_pair@U?$default_delete@V?$source_location_formatter@Vscoped_padder@details@spdlog@@@details@spdlog@@@std@@PEAV?$source_location_formatter@Vscoped_padder@details@spdlog@@@details@spdlog@@$00@std@@QEAA@U_Zero_then_variadic_args_t@1@AEAPEAV?$source_location_formatter@Vscoped_padder@details@spdlog@@@details@spdlog@@@Z
	??$?0AEAPEAV?$t_formatter@Unull_scoped_padder@details@spdlog@@@details@spdlog@@@?$_Compressed_pair@U?$default_delete@V?$t_formatter@Unull_scoped_padder@details@spdlog@@@details@spdlog@@@std@@PEAV?$t_formatter@Unull_scoped_padder@details@spdlog@@@details@spdlog@@$00@std@@QEAA@U_Zero_then_variadic_args_t@1@AEAPEAV?$t_formatter@Unull_scoped_padder@details@spdlog@@@details@spdlog@@@Z
	??$?0AEAPEAV?$t_formatter@Vscoped_padder@details@spdlog@@@details@spdlog@@@?$_Compressed_pair@U?$default_delete@V?$t_formatter@Vscoped_padder@details@spdlog@@@details@spdlog@@@std@@PEAV?$t_formatter@Vscoped_padder@details@spdlog@@@details@spdlog@@$00@std@@QEAA@U_Zero_then_variadic_args_t@1@AEAPEAV?$t_formatter@Vscoped_padder@details@spdlog@@@details@spdlog@@@Z
	??$?0AEAPEAV?$v_formatter@Unull_scoped_padder@details@spdlog@@@details@spdlog@@@?$_Compressed_pair@U?$default_delete@V?$v_formatter@Unull_scoped_padder@details@spdlog@@@details@spdlog@@@std@@PEAV?$v_formatter@Unull_scoped_padder@details@spdlog@@@details@spdlog@@$00@std@@QEAA@U_Zero_then_variadic_args_t@1@AEAPEAV?$v_formatter@Unull_scoped_padder@details@spdlog@@@details@spdlog@@@Z
	??$?0AEAPEAV?$v_formatter@Vscoped_padder@details@spdlog@@@details@spdlog@@@?$_Compressed_pair@U?$default_delete@V?$v_formatter@Vscoped_padder@details@spdlog@@@details@spdlog@@@std@@PEAV?$v_formatter@Vscoped_padder@details@spdlog@@@details@spdlog@@$00@std@@QEAA@U_Zero_then_variadic_args_t@1@AEAPEAV?$v_formatter@Vscoped_padder@details@spdlog@@@details@spdlog@@@Z
	??$?0AEAPEAV?$z_formatter@Unull_scoped_padder@details@spdlog@@@details@spdlog@@@?$_Compressed_pair@U?$default_delete@V?$z_formatter@Unull_scoped_padder@details@spdlog@@@details@spdlog@@@std@@PEAV?$z_formatter@Unull_scoped_padder@details@spdlog@@@details@spdlog@@$00@std@@QEAA@U_Zero_then_variadic_args_t@1@AEAPEAV?$z_formatter@Unull_scoped_padder@details@spdlog@@@details@spdlog@@@Z
	??$?0AEAPEAV?$z_formatter@Vscoped_padder@details@spdlog@@@details@spdlog@@@?$_Compressed_pair@U?$default_delete@V?$z_formatter@Vscoped_padder@details@spdlog@@@details@spdlog@@@std@@PEAV?$z_formatter@Vscoped_padder@details@spdlog@@@details@spdlog@@$00@std@@QEAA@U_Zero_then_variadic_args_t@1@AEAPEAV?$z_formatter@Vscoped_padder@details@spdlog@@@details@spdlog@@@Z
	??$?0AEAPEAV_Facet_base@std@@@?$_Compressed_pair@U?$default_delete@V_Facet_base@std@@@std@@PEAV_Facet_base@2@$00@std@@QEAA@U_Zero_then_variadic_args_t@1@AEAPEAV_Facet_base@1@@Z
	??$?0AEAPEAVaggregate_formatter@details@spdlog@@@?$_Compressed_pair@U?$default_delete@Vaggregate_formatter@details@spdlog@@@std@@PEAVaggregate_formatter@details@spdlog@@$00@std@@QEAA@U_Zero_then_variadic_args_t@1@AEAPEAVaggregate_formatter@details@spdlog@@@Z
	??$?0AEAPEAVch_formatter@details@spdlog@@@?$_Compressed_pair@U?$default_delete@Vch_formatter@details@spdlog@@@std@@PEAVch_formatter@details@spdlog@@$00@std@@QEAA@U_Zero_then_variadic_args_t@1@AEAPEAVch_formatter@details@spdlog@@@Z
	??$?0AEAPEAVcolor_start_formatter@details@spdlog@@@?$_Compressed_pair@U?$default_delete@Vcolor_start_formatter@details@spdlog@@@std@@PEAVcolor_start_formatter@details@spdlog@@$00@std@@QEAA@U_Zero_then_variadic_args_t@1@AEAPEAVcolor_start_formatter@details@spdlog@@@Z
	??$?0AEAPEAVcolor_stop_formatter@details@spdlog@@@?$_Compressed_pair@U?$default_delete@Vcolor_stop_formatter@details@spdlog@@@std@@PEAVcolor_stop_formatter@details@spdlog@@$00@std@@QEAA@U_Zero_then_variadic_args_t@1@AEAPEAVcolor_stop_formatter@details@spdlog@@@Z
	??$?0AEAPEAVformatter@spdlog@@@?$_Compressed_pair@U?$default_delete@Vformatter@spdlog@@@std@@PEAVformatter@spdlog@@$00@std@@QEAA@U_Zero_then_variadic_args_t@1@AEAPEAVformatter@spdlog@@@Z
	??$?0AEAPEAVfull_formatter@details@spdlog@@@?$_Compressed_pair@U?$default_delete@Vfull_formatter@details@spdlog@@@std@@PEAVfull_formatter@details@spdlog@@$00@std@@QEAA@U_Zero_then_variadic_args_t@1@AEAPEAVfull_formatter@details@spdlog@@@Z
	??$?0AEAPEAVpattern_formatter@spdlog@@@?$_Compressed_pair@U?$default_delete@Vpattern_formatter@spdlog@@@std@@PEAVpattern_formatter@spdlog@@$00@std@@QEAA@U_Zero_then_variadic_args_t@1@AEAPEAVpattern_formatter@spdlog@@@Z
	??$?0AEAPEBDV?$shared_ptr@V?$wincolor_stdout_sink@Uconsole_mutex@details@spdlog@@@sinks@spdlog@@@std@@@?$_Ref_count_obj2@Vlogger@spdlog@@@std@@QEAA@AEAPEBD$$QEAV?$shared_ptr@V?$wincolor_stdout_sink@Uconsole_mutex@details@spdlog@@@sinks@spdlog@@@1@@Z
	??$?0AEAVlogger@spdlog@@@?$_Ref_count_obj2@Vlogger@spdlog@@@std@@QEAA@AEAVlogger@spdlog@@@Z
	??$?0AEAW4color_mode@spdlog@@@?$_Ref_count_obj2@V?$wincolor_stdout_sink@Uconsole_mutex@details@spdlog@@@sinks@spdlog@@@std@@QEAA@AEAW4color_mode@spdlog@@@Z
	??$?0AEA_J@?$basic_format_arg@Vcontext@v11@fmt@@@v11@fmt@@QEAA@AEA_J@Z
	??$?0AEA_K@?$basic_format_arg@Vcontext@v11@fmt@@@v11@fmt@@QEAA@AEA_K@Z
	??$?0AEBD$$Z$$V@?$pair@$$CBDV?$unique_ptr@Vcustom_flag_formatter@spdlog@@U?$default_delete@Vcustom_flag_formatter@spdlog@@@std@@@std@@@std@@QEAA@Upiecewise_construct_t@1@V?$tuple@AEBD@1@V?$tuple@$$V@1@@Z
	??$?0AEBD$0A@@?$tuple@AEBD@std@@QEAA@AEBD@Z
	??$?0AEBD@?$_Tuple_val@AEBD@std@@QEAA@AEBD@Z
	??$?0AEBU?$less@V?$basic_string@DU?$char_traits@D@std@@V?$allocator@D@2@@std@@@std@@U_Zero_then_variadic_args_t@1@@?$_Compressed_pair@U?$less@V?$basic_string@DU?$char_traits@D@std@@V?$allocator@D@2@@std@@@std@@V?$_Compressed_pair@V?$allocator@U?$_Tree_node@U?$pair@$$CBV?$basic_string@DU?$char_traits@D@std@@V?$allocator@D@2@@std@@V12@@std@@PEAX@std@@@std@@V?$_Tree_val@U?$_Tree_simple_types@U?$pair@$$CBV?$basic_string@DU?$char_traits@D@std@@V?$allocator@D@2@@std@@V12@@std@@@std@@@2@$00@2@$00@std@@QEAA@U_One_then_variadic_args_t@1@AEBU?$less@V?$basic_string@DU?$char_traits@D@std@@V?$allocator@D@2@@std@@@1@$$QEAU_Zero_then_variadic_args_t@1@@Z
	??$?0AEBUpiecewise_construct_t@std@@V?$tuple@$$QEAV?$basic_string@DU?$char_traits@D@std@@V?$allocator@D@2@@std@@@1@V?$tuple@$$V@1@@?$_List_node_emplace_op2@V?$allocator@U?$_List_node@U?$pair@$$CBV?$basic_string@DU?$char_traits@D@std@@V?$allocator@D@2@@std@@V?$shared_ptr@Vlogger@spdlog@@@2@@std@@PEAX@std@@@std@@@std@@QEAA@AEAV?$allocator@U?$_List_node@U?$pair@$$CBV?$basic_string@DU?$char_traits@D@std@@V?$allocator@D@2@@std@@V?$shared_ptr@Vlogger@spdlog@@@2@@std@@PEAX@std@@@1@AEBUpiecewise_construct_t@1@$$QEAV?$tuple@$$QEAV?$basic_string@DU?$char_traits@D@std@@V?$allocator@D@2@@std@@@1@$$QEAV?$tuple@$$V@1@@Z
	??$?0AEBUpiecewise_construct_t@std@@V?$tuple@AEBD@1@V?$tuple@$$V@1@@?$_List_node_emplace_op2@V?$allocator@U?$_List_node@U?$pair@$$CBDV?$unique_ptr@Vcustom_flag_formatter@spdlog@@U?$default_delete@Vcustom_flag_formatter@spdlog@@@std@@@std@@@std@@PEAX@std@@@std@@@std@@QEAA@AEAV?$allocator@U?$_List_node@U?$pair@$$CBDV?$unique_ptr@Vcustom_flag_formatter@spdlog@@U?$default_delete@Vcustom_flag_formatter@spdlog@@@std@@@std@@@std@@PEAX@std@@@1@AEBUpiecewise_construct_t@1@$$QEAV?$tuple@AEBD@1@$$QEAV?$tuple@$$V@1@@Z
	??$?0AEBUpiecewise_construct_t@std@@V?$tuple@AEBV?$basic_string@DU?$char_traits@D@std@@V?$allocator@D@2@@std@@@1@V?$tuple@$$V@1@@?$_List_node_emplace_op2@V?$allocator@U?$_List_node@U?$pair@$$CBV?$basic_string@DU?$char_traits@D@std@@V?$allocator@D@2@@std@@V?$shared_ptr@Vlogger@spdlog@@@2@@std@@PEAX@std@@@std@@@std@@QEAA@AEAV?$allocator@U?$_List_node@U?$pair@$$CBV?$basic_string@DU?$char_traits@D@std@@V?$allocator@D@2@@std@@V?$shared_ptr@Vlogger@spdlog@@@2@@std@@PEAX@std@@@1@AEBUpiecewise_construct_t@1@$$QEAV?$tuple@AEBV?$basic_string@DU?$char_traits@D@std@@V?$allocator@D@2@@std@@@1@$$QEAV?$tuple@$$V@1@@Z
	??$?0AEBV?$allocator@U?$pair@$$CBDV?$unique_ptr@Vcustom_flag_formatter@spdlog@@U?$default_delete@Vcustom_flag_formatter@spdlog@@@std@@@std@@@std@@@std@@$$V@?$_Compressed_pair@V?$allocator@U?$_List_node@U?$pair@$$CBDV?$unique_ptr@Vcustom_flag_formatter@spdlog@@U?$default_delete@Vcustom_flag_formatter@spdlog@@@std@@@std@@@std@@PEAX@std@@@std@@V?$_List_val@U?$_List_simple_types@U?$pair@$$CBDV?$unique_ptr@Vcustom_flag_formatter@spdlog@@U?$default_delete@Vcustom_flag_formatter@spdlog@@@std@@@std@@@std@@@std@@@2@$00@std@@QEAA@U_One_then_variadic_args_t@1@AEBV?$allocator@U?$pair@$$CBDV?$unique_ptr@Vcustom_flag_formatter@spdlog@@U?$default_delete@Vcustom_flag_formatter@spdlog@@@std@@@std@@@std@@@1@@Z
	??$?0AEBV?$allocator@U?$pair@$$CBDV?$unique_ptr@Vcustom_flag_formatter@spdlog@@U?$default_delete@Vcustom_flag_formatter@spdlog@@@std@@@std@@@std@@@std@@$$V@?$_Compressed_pair@V?$allocator@V?$_List_unchecked_iterator@V?$_List_val@U?$_List_simple_types@U?$pair@$$CBDV?$unique_ptr@Vcustom_flag_formatter@spdlog@@U?$default_delete@Vcustom_flag_formatter@spdlog@@@std@@@std@@@std@@@std@@@std@@@std@@@std@@V?$_Vector_val@U?$_Simple_types@V?$_List_unchecked_iterator@V?$_List_val@U?$_List_simple_types@U?$pair@$$CBDV?$unique_ptr@Vcustom_flag_formatter@spdlog@@U?$default_delete@Vcustom_flag_formatter@spdlog@@@std@@@std@@@std@@@std@@@std@@@std@@@std@@@2@$00@std@@QEAA@U_One_then_variadic_args_t@1@AEBV?$allocator@U?$pair@$$CBDV?$unique_ptr@Vcustom_flag_formatter@spdlog@@U?$default_delete@Vcustom_flag_formatter@spdlog@@@std@@@std@@@std@@@1@@Z
	??$?0AEBV?$allocator@U?$pair@$$CBDV?$unique_ptr@Vcustom_flag_formatter@spdlog@@U?$default_delete@Vcustom_flag_formatter@spdlog@@@std@@@std@@@std@@@std@@$0A@@?$_Hash_vec@V?$allocator@V?$_List_unchecked_iterator@V?$_List_val@U?$_List_simple_types@U?$pair@$$CBDV?$unique_ptr@Vcustom_flag_formatter@spdlog@@U?$default_delete@Vcustom_flag_formatter@spdlog@@@std@@@std@@@std@@@std@@@std@@@std@@@std@@@std@@QEAA@AEBV?$allocator@U?$pair@$$CBDV?$unique_ptr@Vcustom_flag_formatter@spdlog@@U?$default_delete@Vcustom_flag_formatter@spdlog@@@std@@@std@@@std@@@1@@Z
	??$?0AEBV?$allocator@U?$pair@$$CBV?$basic_string@DU?$char_traits@D@std@@V?$allocator@D@2@@std@@V?$shared_ptr@Vlogger@spdlog@@@2@@std@@@std@@$$V@?$_Compressed_pair@V?$allocator@U?$_List_node@U?$pair@$$CBV?$basic_string@DU?$char_traits@D@std@@V?$allocator@D@2@@std@@V?$shared_ptr@Vlogger@spdlog@@@2@@std@@PEAX@std@@@std@@V?$_List_val@U?$_List_simple_types@U?$pair@$$CBV?$basic_string@DU?$char_traits@D@std@@V?$allocator@D@2@@std@@V?$shared_ptr@Vlogger@spdlog@@@2@@std@@@std@@@2@$00@std@@QEAA@U_One_then_variadic_args_t@1@AEBV?$allocator@U?$pair@$$CBV?$basic_string@DU?$char_traits@D@std@@V?$allocator@D@2@@std@@V?$shared_ptr@Vlogger@spdlog@@@2@@std@@@1@@Z
	??$?0AEBV?$allocator@U?$pair@$$CBV?$basic_string@DU?$char_traits@D@std@@V?$allocator@D@2@@std@@V?$shared_ptr@Vlogger@spdlog@@@2@@std@@@std@@$$V@?$_Compressed_pair@V?$allocator@V?$_List_unchecked_iterator@V?$_List_val@U?$_List_simple_types@U?$pair@$$CBV?$basic_string@DU?$char_traits@D@std@@V?$allocator@D@2@@std@@V?$shared_ptr@Vlogger@spdlog@@@2@@std@@@std@@@std@@@std@@@std@@V?$_Vector_val@U?$_Simple_types@V?$_List_unchecked_iterator@V?$_List_val@U?$_List_simple_types@U?$pair@$$CBV?$basic_string@DU?$char_traits@D@std@@V?$allocator@D@2@@std@@V?$shared_ptr@Vlogger@spdlog@@@2@@std@@@std@@@std@@@std@@@std@@@2@$00@std@@QEAA@U_One_then_variadic_args_t@1@AEBV?$allocator@U?$pair@$$CBV?$basic_string@DU?$char_traits@D@std@@V?$allocator@D@2@@std@@V?$shared_ptr@Vlogger@spdlog@@@2@@std@@@1@@Z
	??$?0AEBV?$allocator@U?$pair@$$CBV?$basic_string@DU?$char_traits@D@std@@V?$allocator@D@2@@std@@V?$shared_ptr@Vlogger@spdlog@@@2@@std@@@std@@$0A@@?$_Hash_vec@V?$allocator@V?$_List_unchecked_iterator@V?$_List_val@U?$_List_simple_types@U?$pair@$$CBV?$basic_string@DU?$char_traits@D@std@@V?$allocator@D@2@@std@@V?$shared_ptr@Vlogger@spdlog@@@2@@std@@@std@@@std@@@std@@@std@@@std@@QEAA@AEBV?$allocator@U?$pair@$$CBV?$basic_string@DU?$char_traits@D@std@@V?$allocator@D@2@@std@@V?$shared_ptr@Vlogger@spdlog@@@2@@std@@@1@@Z
	??$?0AEBV?$allocator@U?$pair@$$CBV?$basic_string@DU?$char_traits@D@std@@V?$allocator@D@2@@std@@W4level_enum@level@spdlog@@@std@@@std@@$$V@?$_Compressed_pair@V?$allocator@U?$_List_node@U?$pair@$$CBV?$basic_string@DU?$char_traits@D@std@@V?$allocator@D@2@@std@@W4level_enum@level@spdlog@@@std@@PEAX@std@@@std@@V?$_List_val@U?$_List_simple_types@U?$pair@$$CBV?$basic_string@DU?$char_traits@D@std@@V?$allocator@D@2@@std@@W4level_enum@level@spdlog@@@std@@@std@@@2@$00@std@@QEAA@U_One_then_variadic_args_t@1@AEBV?$allocator@U?$pair@$$CBV?$basic_string@DU?$char_traits@D@std@@V?$allocator@D@2@@std@@W4level_enum@level@spdlog@@@std@@@1@@Z
	??$?0AEBV?$allocator@U?$pair@$$CBV?$basic_string@DU?$char_traits@D@std@@V?$allocator@D@2@@std@@W4level_enum@level@spdlog@@@std@@@std@@$$V@?$_Compressed_pair@V?$allocator@V?$_List_unchecked_iterator@V?$_List_val@U?$_List_simple_types@U?$pair@$$CBV?$basic_string@DU?$char_traits@D@std@@V?$allocator@D@2@@std@@W4level_enum@level@spdlog@@@std@@@std@@@std@@@std@@@std@@V?$_Vector_val@U?$_Simple_types@V?$_List_unchecked_iterator@V?$_List_val@U?$_List_simple_types@U?$pair@$$CBV?$basic_string@DU?$char_traits@D@std@@V?$allocator@D@2@@std@@W4level_enum@level@spdlog@@@std@@@std@@@std@@@std@@@std@@@2@$00@std@@QEAA@U_One_then_variadic_args_t@1@AEBV?$allocator@U?$pair@$$CBV?$basic_string@DU?$char_traits@D@std@@V?$allocator@D@2@@std@@W4level_enum@level@spdlog@@@std@@@1@@Z
	??$?0AEBV?$allocator@U?$pair@$$CBV?$basic_string@DU?$char_traits@D@std@@V?$allocator@D@2@@std@@W4level_enum@level@spdlog@@@std@@@std@@$0A@@?$_Hash_vec@V?$allocator@V?$_List_unchecked_iterator@V?$_List_val@U?$_List_simple_types@U?$pair@$$CBV?$basic_string@DU?$char_traits@D@std@@V?$allocator@D@2@@std@@W4level_enum@level@spdlog@@@std@@@std@@@std@@@std@@@std@@@std@@QEAA@AEBV?$allocator@U?$pair@$$CBV?$basic_string@DU?$char_traits@D@std@@V?$allocator@D@2@@std@@W4level_enum@level@spdlog@@@std@@@1@@Z
	??$?0AEBV?$allocator@V?$shared_ptr@Vsink@sinks@spdlog@@@std@@@std@@$$V@?$_Compressed_pair@V?$allocator@V?$shared_ptr@Vsink@sinks@spdlog@@@std@@@std@@V?$_Vector_val@U?$_Simple_types@V?$shared_ptr@Vsink@sinks@spdlog@@@std@@@std@@@2@$00@std@@QEAA@U_One_then_variadic_args_t@1@AEBV?$allocator@V?$shared_ptr@Vsink@sinks@spdlog@@@std@@@1@@Z
	??$?0AEBV?$allocator@Vlog_msg_buffer@details@spdlog@@@std@@$$V@?$_Compressed_pair@V?$allocator@Vlog_msg_buffer@details@spdlog@@@std@@V?$_Vector_val@U?$_Simple_types@Vlog_msg_buffer@details@spdlog@@@std@@@2@$00@std@@QEAA@U_One_then_variadic_args_t@1@AEBV?$allocator@Vlog_msg_buffer@details@spdlog@@@1@@Z
	??$?0AEBV?$basic_string@DU?$char_traits@D@std@@V?$allocator@D@2@@std@@$$Z$$V@?$pair@$$CBV?$basic_string@DU?$char_traits@D@std@@V?$allocator@D@2@@std@@V?$shared_ptr@Vlogger@spdlog@@@2@@std@@QEAA@Upiecewise_construct_t@1@V?$tuple@AEBV?$basic_string@DU?$char_traits@D@std@@V?$allocator@D@2@@std@@@1@V?$tuple@$$V@1@@Z
	??$?0AEBV?$basic_string@DU?$char_traits@D@std@@V?$allocator@D@2@@std@@$0A@@?$tuple@AEBV?$basic_string@DU?$char_traits@D@std@@V?$allocator@D@2@@std@@@std@@QEAA@AEBV?$basic_string@DU?$char_traits@D@std@@V?$allocator@D@2@@1@@Z
	??$?0AEBV?$basic_string@DU?$char_traits@D@std@@V?$allocator@D@2@@std@@@?$_Tuple_val@AEBV?$basic_string@DU?$char_traits@D@std@@V?$allocator@D@2@@std@@@std@@QEAA@AEBV?$basic_string@DU?$char_traits@D@std@@V?$allocator@D@2@@1@@Z
	??$?0E$0A@@loc_value@v11@fmt@@QEAA@E@Z
	??$?0H$0A@@?$duration@_JU?$ratio@$00$00@std@@@chrono@std@@QEAA@AEBH@Z
	??$?0H$0A@@loc_value@v11@fmt@@QEAA@H@Z
	??$?0I$0A@@loc_value@v11@fmt@@QEAA@I@Z
	??$?0M$0A@@loc_value@v11@fmt@@QEAA@M@Z
	??$?0M@?$_Compressed_pair@U?$equal_to@D@std@@M$00@std@@QEAA@U_Zero_then_variadic_args_t@1@$$QEAM@Z
	??$?0M@?$_Compressed_pair@U?$equal_to@V?$basic_string@DU?$char_traits@D@std@@V?$allocator@D@2@@std@@@std@@M$00@std@@QEAA@U_Zero_then_variadic_args_t@1@$$QEAM@Z
	??$?0N$0A@@loc_value@v11@fmt@@QEAA@N@Z
	??$?0N@?$basic_fp@_K@detail@v11@fmt@@QEAA@N@Z
	??$?0O$0A@@loc_value@v11@fmt@@QEAA@O@Z
	??$?0PEAU?$_List_node@U?$pair@$$CBDV?$unique_ptr@Vcustom_flag_formatter@spdlog@@U?$default_delete@Vcustom_flag_formatter@spdlog@@@std@@@std@@@std@@PEAX@std@@_N$0A@@?$pair@PEAU?$_List_node@U?$pair@$$CBDV?$unique_ptr@Vcustom_flag_formatter@spdlog@@U?$default_delete@Vcustom_flag_formatter@spdlog@@@std@@@std@@@std@@PEAX@std@@_N@std@@QEAA@$$QEAPEAU?$_List_node@U?$pair@$$CBDV?$unique_ptr@Vcustom_flag_formatter@spdlog@@U?$default_delete@Vcustom_flag_formatter@spdlog@@@std@@@std@@@std@@PEAX@1@$$QEA_N@Z
	??$?0PEAU?$_List_node@U?$pair@$$CBV?$basic_string@DU?$char_traits@D@std@@V?$allocator@D@2@@std@@V?$shared_ptr@Vlogger@spdlog@@@2@@std@@PEAX@std@@_N$0A@@?$pair@PEAU?$_List_node@U?$pair@$$CBV?$basic_string@DU?$char_traits@D@std@@V?$allocator@D@2@@std@@V?$shared_ptr@Vlogger@spdlog@@@2@@std@@PEAX@std@@_N@std@@QEAA@$$QEAPEAU?$_List_node@U?$pair@$$CBV?$basic_string@DU?$char_traits@D@std@@V?$allocator@D@2@@std@@V?$shared_ptr@Vlogger@spdlog@@@2@@std@@PEAX@1@$$QEA_N@Z
	??$?0PEBV?$shared_ptr@Vsink@sinks@spdlog@@@std@@$0A@@?$vector@V?$shared_ptr@Vsink@sinks@spdlog@@@std@@V?$allocator@V?$shared_ptr@Vsink@sinks@spdlog@@@std@@@2@@std@@QEAA@PEBV?$shared_ptr@Vsink@sinks@spdlog@@@1@0AEBV?$allocator@V?$shared_ptr@Vsink@sinks@spdlog@@@std@@@1@@Z
	??$?0PEBV?$shared_ptr@Vsink@sinks@spdlog@@@std@@@logger@spdlog@@QEAA@V?$basic_string@DU?$char_traits@D@std@@V?$allocator@D@2@@std@@PEBV?$shared_ptr@Vsink@sinks@spdlog@@@3@1@Z
	??$?0U?$default_delete@V?$A_formatter@Unull_scoped_padder@details@spdlog@@@details@spdlog@@@std@@$0A@@?$unique_ptr@V?$A_formatter@Unull_scoped_padder@details@spdlog@@@details@spdlog@@U?$default_delete@V?$A_formatter@Unull_scoped_padder@details@spdlog@@@details@spdlog@@@std@@@std@@QEAA@PEAV?$A_formatter@Unull_scoped_padder@details@spdlog@@@details@spdlog@@@Z
	??$?0U?$default_delete@V?$A_formatter@Unull_scoped_padder@details@spdlog@@@details@spdlog@@@std@@PEAV?$A_formatter@Unull_scoped_padder@details@spdlog@@@details@spdlog@@@?$_Compressed_pair@U?$default_delete@Vflag_formatter@details@spdlog@@@std@@PEAVflag_formatter@details@spdlog@@$00@std@@QEAA@U_One_then_variadic_args_t@1@$$QEAU?$default_delete@V?$A_formatter@Unull_scoped_padder@details@spdlog@@@details@spdlog@@@1@$$QEAPEAV?$A_formatter@Unull_scoped_padder@details@spdlog@@@details@spdlog@@@Z
	??$?0U?$default_delete@V?$A_formatter@Vscoped_padder@details@spdlog@@@details@spdlog@@@std@@$0A@@?$unique_ptr@V?$A_formatter@Vscoped_padder@details@spdlog@@@details@spdlog@@U?$default_delete@V?$A_formatter@Vscoped_padder@details@spdlog@@@details@spdlog@@@std@@@std@@QEAA@PEAV?$A_formatter@Vscoped_padder@details@spdlog@@@details@spdlog@@@Z
	??$?0U?$default_delete@V?$A_formatter@Vscoped_padder@details@spdlog@@@details@spdlog@@@std@@PEAV?$A_formatter@Vscoped_padder@details@spdlog@@@details@spdlog@@@?$_Compressed_pair@U?$default_delete@Vflag_formatter@details@spdlog@@@std@@PEAVflag_formatter@details@spdlog@@$00@std@@QEAA@U_One_then_variadic_args_t@1@$$QEAU?$default_delete@V?$A_formatter@Vscoped_padder@details@spdlog@@@details@spdlog@@@1@$$QEAPEAV?$A_formatter@Vscoped_padder@details@spdlog@@@details@spdlog@@@Z
	??$?0U?$default_delete@V?$B_formatter@Unull_scoped_padder@details@spdlog@@@details@spdlog@@@std@@$0A@@?$unique_ptr@V?$B_formatter@Unull_scoped_padder@details@spdlog@@@details@spdlog@@U?$default_delete@V?$B_formatter@Unull_scoped_padder@details@spdlog@@@details@spdlog@@@std@@@std@@QEAA@PEAV?$B_formatter@Unull_scoped_padder@details@spdlog@@@details@spdlog@@@Z
	??$?0U?$default_delete@V?$B_formatter@Unull_scoped_padder@details@spdlog@@@details@spdlog@@@std@@PEAV?$B_formatter@Unull_scoped_padder@details@spdlog@@@details@spdlog@@@?$_Compressed_pair@U?$default_delete@Vflag_formatter@details@spdlog@@@std@@PEAVflag_formatter@details@spdlog@@$00@std@@QEAA@U_One_then_variadic_args_t@1@$$QEAU?$default_delete@V?$B_formatter@Unull_scoped_padder@details@spdlog@@@details@spdlog@@@1@$$QEAPEAV?$B_formatter@Unull_scoped_padder@details@spdlog@@@details@spdlog@@@Z
	??$?0U?$default_delete@V?$B_formatter@Vscoped_padder@details@spdlog@@@details@spdlog@@@std@@$0A@@?$unique_ptr@V?$B_formatter@Vscoped_padder@details@spdlog@@@details@spdlog@@U?$default_delete@V?$B_formatter@Vscoped_padder@details@spdlog@@@details@spdlog@@@std@@@std@@QEAA@PEAV?$B_formatter@Vscoped_padder@details@spdlog@@@details@spdlog@@@Z
	??$?0U?$default_delete@V?$B_formatter@Vscoped_padder@details@spdlog@@@details@spdlog@@@std@@PEAV?$B_formatter@Vscoped_padder@details@spdlog@@@details@spdlog@@@?$_Compressed_pair@U?$default_delete@Vflag_formatter@details@spdlog@@@std@@PEAVflag_formatter@details@spdlog@@$00@std@@QEAA@U_One_then_variadic_args_t@1@$$QEAU?$default_delete@V?$B_formatter@Vscoped_padder@details@spdlog@@@details@spdlog@@@1@$$QEAPEAV?$B_formatter@Vscoped_padder@details@spdlog@@@details@spdlog@@@Z
	??$?0U?$default_delete@V?$C_formatter@Unull_scoped_padder@details@spdlog@@@details@spdlog@@@std@@$0A@@?$unique_ptr@V?$C_formatter@Unull_scoped_padder@details@spdlog@@@details@spdlog@@U?$default_delete@V?$C_formatter@Unull_scoped_padder@details@spdlog@@@details@spdlog@@@std@@@std@@QEAA@PEAV?$C_formatter@Unull_scoped_padder@details@spdlog@@@details@spdlog@@@Z
	??$?0U?$default_delete@V?$C_formatter@Unull_scoped_padder@details@spdlog@@@details@spdlog@@@std@@PEAV?$C_formatter@Unull_scoped_padder@details@spdlog@@@details@spdlog@@@?$_Compressed_pair@U?$default_delete@Vflag_formatter@details@spdlog@@@std@@PEAVflag_formatter@details@spdlog@@$00@std@@QEAA@U_One_then_variadic_args_t@1@$$QEAU?$default_delete@V?$C_formatter@Unull_scoped_padder@details@spdlog@@@details@spdlog@@@1@$$QEAPEAV?$C_formatter@Unull_scoped_padder@details@spdlog@@@details@spdlog@@@Z
	??$?0U?$default_delete@V?$C_formatter@Vscoped_padder@details@spdlog@@@details@spdlog@@@std@@$0A@@?$unique_ptr@V?$C_formatter@Vscoped_padder@details@spdlog@@@details@spdlog@@U?$default_delete@V?$C_formatter@Vscoped_padder@details@spdlog@@@details@spdlog@@@std@@@std@@QEAA@PEAV?$C_formatter@Vscoped_padder@details@spdlog@@@details@spdlog@@@Z
	??$?0U?$default_delete@V?$C_formatter@Vscoped_padder@details@spdlog@@@details@spdlog@@@std@@PEAV?$C_formatter@Vscoped_padder@details@spdlog@@@details@spdlog@@@?$_Compressed_pair@U?$default_delete@Vflag_formatter@details@spdlog@@@std@@PEAVflag_formatter@details@spdlog@@$00@std@@QEAA@U_One_then_variadic_args_t@1@$$QEAU?$default_delete@V?$C_formatter@Vscoped_padder@details@spdlog@@@details@spdlog@@@1@$$QEAPEAV?$C_formatter@Vscoped_padder@details@spdlog@@@details@spdlog@@@Z
	??$?0U?$default_delete@V?$D_formatter@Unull_scoped_padder@details@spdlog@@@details@spdlog@@@std@@$0A@@?$unique_ptr@V?$D_formatter@Unull_scoped_padder@details@spdlog@@@details@spdlog@@U?$default_delete@V?$D_formatter@Unull_scoped_padder@details@spdlog@@@details@spdlog@@@std@@@std@@QEAA@PEAV?$D_formatter@Unull_scoped_padder@details@spdlog@@@details@spdlog@@@Z
	??$?0U?$default_delete@V?$D_formatter@Unull_scoped_padder@details@spdlog@@@details@spdlog@@@std@@PEAV?$D_formatter@Unull_scoped_padder@details@spdlog@@@details@spdlog@@@?$_Compressed_pair@U?$default_delete@Vflag_formatter@details@spdlog@@@std@@PEAVflag_formatter@details@spdlog@@$00@std@@QEAA@U_One_then_variadic_args_t@1@$$QEAU?$default_delete@V?$D_formatter@Unull_scoped_padder@details@spdlog@@@details@spdlog@@@1@$$QEAPEAV?$D_formatter@Unull_scoped_padder@details@spdlog@@@details@spdlog@@@Z
	??$?0U?$default_delete@V?$D_formatter@Vscoped_padder@details@spdlog@@@details@spdlog@@@std@@$0A@@?$unique_ptr@V?$D_formatter@Vscoped_padder@details@spdlog@@@details@spdlog@@U?$default_delete@V?$D_formatter@Vscoped_padder@details@spdlog@@@details@spdlog@@@std@@@std@@QEAA@PEAV?$D_formatter@Vscoped_padder@details@spdlog@@@details@spdlog@@@Z
	??$?0U?$default_delete@V?$D_formatter@Vscoped_padder@details@spdlog@@@details@spdlog@@@std@@PEAV?$D_formatter@Vscoped_padder@details@spdlog@@@details@spdlog@@@?$_Compressed_pair@U?$default_delete@Vflag_formatter@details@spdlog@@@std@@PEAVflag_formatter@details@spdlog@@$00@std@@QEAA@U_One_then_variadic_args_t@1@$$QEAU?$default_delete@V?$D_formatter@Vscoped_padder@details@spdlog@@@details@spdlog@@@1@$$QEAPEAV?$D_formatter@Vscoped_padder@details@spdlog@@@details@spdlog@@@Z
	??$?0U?$default_delete@V?$E_formatter@Unull_scoped_padder@details@spdlog@@@details@spdlog@@@std@@$0A@@?$unique_ptr@V?$E_formatter@Unull_scoped_padder@details@spdlog@@@details@spdlog@@U?$default_delete@V?$E_formatter@Unull_scoped_padder@details@spdlog@@@details@spdlog@@@std@@@std@@QEAA@PEAV?$E_formatter@Unull_scoped_padder@details@spdlog@@@details@spdlog@@@Z
	??$?0U?$default_delete@V?$E_formatter@Unull_scoped_padder@details@spdlog@@@details@spdlog@@@std@@PEAV?$E_formatter@Unull_scoped_padder@details@spdlog@@@details@spdlog@@@?$_Compressed_pair@U?$default_delete@Vflag_formatter@details@spdlog@@@std@@PEAVflag_formatter@details@spdlog@@$00@std@@QEAA@U_One_then_variadic_args_t@1@$$QEAU?$default_delete@V?$E_formatter@Unull_scoped_padder@details@spdlog@@@details@spdlog@@@1@$$QEAPEAV?$E_formatter@Unull_scoped_padder@details@spdlog@@@details@spdlog@@@Z
	??$?0U?$default_delete@V?$E_formatter@Vscoped_padder@details@spdlog@@@details@spdlog@@@std@@$0A@@?$unique_ptr@V?$E_formatter@Vscoped_padder@details@spdlog@@@details@spdlog@@U?$default_delete@V?$E_formatter@Vscoped_padder@details@spdlog@@@details@spdlog@@@std@@@std@@QEAA@PEAV?$E_formatter@Vscoped_padder@details@spdlog@@@details@spdlog@@@Z
	??$?0U?$default_delete@V?$E_formatter@Vscoped_padder@details@spdlog@@@details@spdlog@@@std@@PEAV?$E_formatter@Vscoped_padder@details@spdlog@@@details@spdlog@@@?$_Compressed_pair@U?$default_delete@Vflag_formatter@details@spdlog@@@std@@PEAVflag_formatter@details@spdlog@@$00@std@@QEAA@U_One_then_variadic_args_t@1@$$QEAU?$default_delete@V?$E_formatter@Vscoped_padder@details@spdlog@@@details@spdlog@@@1@$$QEAPEAV?$E_formatter@Vscoped_padder@details@spdlog@@@details@spdlog@@@Z
	??$?0U?$default_delete@V?$F_formatter@Unull_scoped_padder@details@spdlog@@@details@spdlog@@@std@@$0A@@?$unique_ptr@V?$F_formatter@Unull_scoped_padder@details@spdlog@@@details@spdlog@@U?$default_delete@V?$F_formatter@Unull_scoped_padder@details@spdlog@@@details@spdlog@@@std@@@std@@QEAA@PEAV?$F_formatter@Unull_scoped_padder@details@spdlog@@@details@spdlog@@@Z
	??$?0U?$default_delete@V?$F_formatter@Unull_scoped_padder@details@spdlog@@@details@spdlog@@@std@@PEAV?$F_formatter@Unull_scoped_padder@details@spdlog@@@details@spdlog@@@?$_Compressed_pair@U?$default_delete@Vflag_formatter@details@spdlog@@@std@@PEAVflag_formatter@details@spdlog@@$00@std@@QEAA@U_One_then_variadic_args_t@1@$$QEAU?$default_delete@V?$F_formatter@Unull_scoped_padder@details@spdlog@@@details@spdlog@@@1@$$QEAPEAV?$F_formatter@Unull_scoped_padder@details@spdlog@@@details@spdlog@@@Z
	??$?0U?$default_delete@V?$F_formatter@Vscoped_padder@details@spdlog@@@details@spdlog@@@std@@$0A@@?$unique_ptr@V?$F_formatter@Vscoped_padder@details@spdlog@@@details@spdlog@@U?$default_delete@V?$F_formatter@Vscoped_padder@details@spdlog@@@details@spdlog@@@std@@@std@@QEAA@PEAV?$F_formatter@Vscoped_padder@details@spdlog@@@details@spdlog@@@Z
	??$?0U?$default_delete@V?$F_formatter@Vscoped_padder@details@spdlog@@@details@spdlog@@@std@@PEAV?$F_formatter@Vscoped_padder@details@spdlog@@@details@spdlog@@@?$_Compressed_pair@U?$default_delete@Vflag_formatter@details@spdlog@@@std@@PEAVflag_formatter@details@spdlog@@$00@std@@QEAA@U_One_then_variadic_args_t@1@$$QEAU?$default_delete@V?$F_formatter@Vscoped_padder@details@spdlog@@@details@spdlog@@@1@$$QEAPEAV?$F_formatter@Vscoped_padder@details@spdlog@@@details@spdlog@@@Z
	??$?0U?$default_delete@V?$H_formatter@Unull_scoped_padder@details@spdlog@@@details@spdlog@@@std@@$0A@@?$unique_ptr@V?$H_formatter@Unull_scoped_padder@details@spdlog@@@details@spdlog@@U?$default_delete@V?$H_formatter@Unull_scoped_padder@details@spdlog@@@details@spdlog@@@std@@@std@@QEAA@PEAV?$H_formatter@Unull_scoped_padder@details@spdlog@@@details@spdlog@@@Z
	??$?0U?$default_delete@V?$H_formatter@Unull_scoped_padder@details@spdlog@@@details@spdlog@@@std@@PEAV?$H_formatter@Unull_scoped_padder@details@spdlog@@@details@spdlog@@@?$_Compressed_pair@U?$default_delete@Vflag_formatter@details@spdlog@@@std@@PEAVflag_formatter@details@spdlog@@$00@std@@QEAA@U_One_then_variadic_args_t@1@$$QEAU?$default_delete@V?$H_formatter@Unull_scoped_padder@details@spdlog@@@details@spdlog@@@1@$$QEAPEAV?$H_formatter@Unull_scoped_padder@details@spdlog@@@details@spdlog@@@Z
	??$?0U?$default_delete@V?$H_formatter@Vscoped_padder@details@spdlog@@@details@spdlog@@@std@@$0A@@?$unique_ptr@V?$H_formatter@Vscoped_padder@details@spdlog@@@details@spdlog@@U?$default_delete@V?$H_formatter@Vscoped_padder@details@spdlog@@@details@spdlog@@@std@@@std@@QEAA@PEAV?$H_formatter@Vscoped_padder@details@spdlog@@@details@spdlog@@@Z
	??$?0U?$default_delete@V?$H_formatter@Vscoped_padder@details@spdlog@@@details@spdlog@@@std@@PEAV?$H_formatter@Vscoped_padder@details@spdlog@@@details@spdlog@@@?$_Compressed_pair@U?$default_delete@Vflag_formatter@details@spdlog@@@std@@PEAVflag_formatter@details@spdlog@@$00@std@@QEAA@U_One_then_variadic_args_t@1@$$QEAU?$default_delete@V?$H_formatter@Vscoped_padder@details@spdlog@@@details@spdlog@@@1@$$QEAPEAV?$H_formatter@Vscoped_padder@details@spdlog@@@details@spdlog@@@Z
	??$?0U?$default_delete@V?$I_formatter@Unull_scoped_padder@details@spdlog@@@details@spdlog@@@std@@$0A@@?$unique_ptr@V?$I_formatter@Unull_scoped_padder@details@spdlog@@@details@spdlog@@U?$default_delete@V?$I_formatter@Unull_scoped_padder@details@spdlog@@@details@spdlog@@@std@@@std@@QEAA@PEAV?$I_formatter@Unull_scoped_padder@details@spdlog@@@details@spdlog@@@Z
	??$?0U?$default_delete@V?$I_formatter@Unull_scoped_padder@details@spdlog@@@details@spdlog@@@std@@PEAV?$I_formatter@Unull_scoped_padder@details@spdlog@@@details@spdlog@@@?$_Compressed_pair@U?$default_delete@Vflag_formatter@details@spdlog@@@std@@PEAVflag_formatter@details@spdlog@@$00@std@@QEAA@U_One_then_variadic_args_t@1@$$QEAU?$default_delete@V?$I_formatter@Unull_scoped_padder@details@spdlog@@@details@spdlog@@@1@$$QEAPEAV?$I_formatter@Unull_scoped_padder@details@spdlog@@@details@spdlog@@@Z
	??$?0U?$default_delete@V?$I_formatter@Vscoped_padder@details@spdlog@@@details@spdlog@@@std@@$0A@@?$unique_ptr@V?$I_formatter@Vscoped_padder@details@spdlog@@@details@spdlog@@U?$default_delete@V?$I_formatter@Vscoped_padder@details@spdlog@@@details@spdlog@@@std@@@std@@QEAA@PEAV?$I_formatter@Vscoped_padder@details@spdlog@@@details@spdlog@@@Z
	??$?0U?$default_delete@V?$I_formatter@Vscoped_padder@details@spdlog@@@details@spdlog@@@std@@PEAV?$I_formatter@Vscoped_padder@details@spdlog@@@details@spdlog@@@?$_Compressed_pair@U?$default_delete@Vflag_formatter@details@spdlog@@@std@@PEAVflag_formatter@details@spdlog@@$00@std@@QEAA@U_One_then_variadic_args_t@1@$$QEAU?$default_delete@V?$I_formatter@Vscoped_padder@details@spdlog@@@details@spdlog@@@1@$$QEAPEAV?$I_formatter@Vscoped_padder@details@spdlog@@@details@spdlog@@@Z
	??$?0U?$default_delete@V?$M_formatter@Unull_scoped_padder@details@spdlog@@@details@spdlog@@@std@@$0A@@?$unique_ptr@V?$M_formatter@Unull_scoped_padder@details@spdlog@@@details@spdlog@@U?$default_delete@V?$M_formatter@Unull_scoped_padder@details@spdlog@@@details@spdlog@@@std@@@std@@QEAA@PEAV?$M_formatter@Unull_scoped_padder@details@spdlog@@@details@spdlog@@@Z
	??$?0U?$default_delete@V?$M_formatter@Unull_scoped_padder@details@spdlog@@@details@spdlog@@@std@@PEAV?$M_formatter@Unull_scoped_padder@details@spdlog@@@details@spdlog@@@?$_Compressed_pair@U?$default_delete@Vflag_formatter@details@spdlog@@@std@@PEAVflag_formatter@details@spdlog@@$00@std@@QEAA@U_One_then_variadic_args_t@1@$$QEAU?$default_delete@V?$M_formatter@Unull_scoped_padder@details@spdlog@@@details@spdlog@@@1@$$QEAPEAV?$M_formatter@Unull_scoped_padder@details@spdlog@@@details@spdlog@@@Z
	??$?0U?$default_delete@V?$M_formatter@Vscoped_padder@details@spdlog@@@details@spdlog@@@std@@$0A@@?$unique_ptr@V?$M_formatter@Vscoped_padder@details@spdlog@@@details@spdlog@@U?$default_delete@V?$M_formatter@Vscoped_padder@details@spdlog@@@details@spdlog@@@std@@@std@@QEAA@PEAV?$M_formatter@Vscoped_padder@details@spdlog@@@details@spdlog@@@Z
	??$?0U?$default_delete@V?$M_formatter@Vscoped_padder@details@spdlog@@@details@spdlog@@@std@@PEAV?$M_formatter@Vscoped_padder@details@spdlog@@@details@spdlog@@@?$_Compressed_pair@U?$default_delete@Vflag_formatter@details@spdlog@@@std@@PEAVflag_formatter@details@spdlog@@$00@std@@QEAA@U_One_then_variadic_args_t@1@$$QEAU?$default_delete@V?$M_formatter@Vscoped_padder@details@spdlog@@@details@spdlog@@@1@$$QEAPEAV?$M_formatter@Vscoped_padder@details@spdlog@@@details@spdlog@@@Z
	??$?0U?$default_delete@V?$R_formatter@Unull_scoped_padder@details@spdlog@@@details@spdlog@@@std@@$0A@@?$unique_ptr@V?$R_formatter@Unull_scoped_padder@details@spdlog@@@details@spdlog@@U?$default_delete@V?$R_formatter@Unull_scoped_padder@details@spdlog@@@details@spdlog@@@std@@@std@@QEAA@PEAV?$R_formatter@Unull_scoped_padder@details@spdlog@@@details@spdlog@@@Z
	??$?0U?$default_delete@V?$R_formatter@Unull_scoped_padder@details@spdlog@@@details@spdlog@@@std@@PEAV?$R_formatter@Unull_scoped_padder@details@spdlog@@@details@spdlog@@@?$_Compressed_pair@U?$default_delete@Vflag_formatter@details@spdlog@@@std@@PEAVflag_formatter@details@spdlog@@$00@std@@QEAA@U_One_then_variadic_args_t@1@$$QEAU?$default_delete@V?$R_formatter@Unull_scoped_padder@details@spdlog@@@details@spdlog@@@1@$$QEAPEAV?$R_formatter@Unull_scoped_padder@details@spdlog@@@details@spdlog@@@Z
	??$?0U?$default_delete@V?$R_formatter@Vscoped_padder@details@spdlog@@@details@spdlog@@@std@@$0A@@?$unique_ptr@V?$R_formatter@Vscoped_padder@details@spdlog@@@details@spdlog@@U?$default_delete@V?$R_formatter@Vscoped_padder@details@spdlog@@@details@spdlog@@@std@@@std@@QEAA@PEAV?$R_formatter@Vscoped_padder@details@spdlog@@@details@spdlog@@@Z
	??$?0U?$default_delete@V?$R_formatter@Vscoped_padder@details@spdlog@@@details@spdlog@@@std@@PEAV?$R_formatter@Vscoped_padder@details@spdlog@@@details@spdlog@@@?$_Compressed_pair@U?$default_delete@Vflag_formatter@details@spdlog@@@std@@PEAVflag_formatter@details@spdlog@@$00@std@@QEAA@U_One_then_variadic_args_t@1@$$QEAU?$default_delete@V?$R_formatter@Vscoped_padder@details@spdlog@@@details@spdlog@@@1@$$QEAPEAV?$R_formatter@Vscoped_padder@details@spdlog@@@details@spdlog@@@Z
	??$?0U?$default_delete@V?$S_formatter@Unull_scoped_padder@details@spdlog@@@details@spdlog@@@std@@$0A@@?$unique_ptr@V?$S_formatter@Unull_scoped_padder@details@spdlog@@@details@spdlog@@U?$default_delete@V?$S_formatter@Unull_scoped_padder@details@spdlog@@@details@spdlog@@@std@@@std@@QEAA@PEAV?$S_formatter@Unull_scoped_padder@details@spdlog@@@details@spdlog@@@Z
	??$?0U?$default_delete@V?$S_formatter@Unull_scoped_padder@details@spdlog@@@details@spdlog@@@std@@PEAV?$S_formatter@Unull_scoped_padder@details@spdlog@@@details@spdlog@@@?$_Compressed_pair@U?$default_delete@Vflag_formatter@details@spdlog@@@std@@PEAVflag_formatter@details@spdlog@@$00@std@@QEAA@U_One_then_variadic_args_t@1@$$QEAU?$default_delete@V?$S_formatter@Unull_scoped_padder@details@spdlog@@@details@spdlog@@@1@$$QEAPEAV?$S_formatter@Unull_scoped_padder@details@spdlog@@@details@spdlog@@@Z
	??$?0U?$default_delete@V?$S_formatter@Vscoped_padder@details@spdlog@@@details@spdlog@@@std@@$0A@@?$unique_ptr@V?$S_formatter@Vscoped_padder@details@spdlog@@@details@spdlog@@U?$default_delete@V?$S_formatter@Vscoped_padder@details@spdlog@@@details@spdlog@@@std@@@std@@QEAA@PEAV?$S_formatter@Vscoped_padder@details@spdlog@@@details@spdlog@@@Z
	??$?0U?$default_delete@V?$S_formatter@Vscoped_padder@details@spdlog@@@details@spdlog@@@std@@PEAV?$S_formatter@Vscoped_padder@details@spdlog@@@details@spdlog@@@?$_Compressed_pair@U?$default_delete@Vflag_formatter@details@spdlog@@@std@@PEAVflag_formatter@details@spdlog@@$00@std@@QEAA@U_One_then_variadic_args_t@1@$$QEAU?$default_delete@V?$S_formatter@Vscoped_padder@details@spdlog@@@details@spdlog@@@1@$$QEAPEAV?$S_formatter@Vscoped_padder@details@spdlog@@@details@spdlog@@@Z
	??$?0U?$default_delete@V?$T_formatter@Unull_scoped_padder@details@spdlog@@@details@spdlog@@@std@@$0A@@?$unique_ptr@V?$T_formatter@Unull_scoped_padder@details@spdlog@@@details@spdlog@@U?$default_delete@V?$T_formatter@Unull_scoped_padder@details@spdlog@@@details@spdlog@@@std@@@std@@QEAA@PEAV?$T_formatter@Unull_scoped_padder@details@spdlog@@@details@spdlog@@@Z
	??$?0U?$default_delete@V?$T_formatter@Unull_scoped_padder@details@spdlog@@@details@spdlog@@@std@@PEAV?$T_formatter@Unull_scoped_padder@details@spdlog@@@details@spdlog@@@?$_Compressed_pair@U?$default_delete@Vflag_formatter@details@spdlog@@@std@@PEAVflag_formatter@details@spdlog@@$00@std@@QEAA@U_One_then_variadic_args_t@1@$$QEAU?$default_delete@V?$T_formatter@Unull_scoped_padder@details@spdlog@@@details@spdlog@@@1@$$QEAPEAV?$T_formatter@Unull_scoped_padder@details@spdlog@@@details@spdlog@@@Z
	??$?0U?$default_delete@V?$T_formatter@Vscoped_padder@details@spdlog@@@details@spdlog@@@std@@$0A@@?$unique_ptr@V?$T_formatter@Vscoped_padder@details@spdlog@@@details@spdlog@@U?$default_delete@V?$T_formatter@Vscoped_padder@details@spdlog@@@details@spdlog@@@std@@@std@@QEAA@PEAV?$T_formatter@Vscoped_padder@details@spdlog@@@details@spdlog@@@Z
	??$?0U?$default_delete@V?$T_formatter@Vscoped_padder@details@spdlog@@@details@spdlog@@@std@@PEAV?$T_formatter@Vscoped_padder@details@spdlog@@@details@spdlog@@@?$_Compressed_pair@U?$default_delete@Vflag_formatter@details@spdlog@@@std@@PEAVflag_formatter@details@spdlog@@$00@std@@QEAA@U_One_then_variadic_args_t@1@$$QEAU?$default_delete@V?$T_formatter@Vscoped_padder@details@spdlog@@@details@spdlog@@@1@$$QEAPEAV?$T_formatter@Vscoped_padder@details@spdlog@@@details@spdlog@@@Z
	??$?0U?$default_delete@V?$Y_formatter@Unull_scoped_padder@details@spdlog@@@details@spdlog@@@std@@$0A@@?$unique_ptr@V?$Y_formatter@Unull_scoped_padder@details@spdlog@@@details@spdlog@@U?$default_delete@V?$Y_formatter@Unull_scoped_padder@details@spdlog@@@details@spdlog@@@std@@@std@@QEAA@PEAV?$Y_formatter@Unull_scoped_padder@details@spdlog@@@details@spdlog@@@Z
	??$?0U?$default_delete@V?$Y_formatter@Unull_scoped_padder@details@spdlog@@@details@spdlog@@@std@@PEAV?$Y_formatter@Unull_scoped_padder@details@spdlog@@@details@spdlog@@@?$_Compressed_pair@U?$default_delete@Vflag_formatter@details@spdlog@@@std@@PEAVflag_formatter@details@spdlog@@$00@std@@QEAA@U_One_then_variadic_args_t@1@$$QEAU?$default_delete@V?$Y_formatter@Unull_scoped_padder@details@spdlog@@@details@spdlog@@@1@$$QEAPEAV?$Y_formatter@Unull_scoped_padder@details@spdlog@@@details@spdlog@@@Z
	??$?0U?$default_delete@V?$Y_formatter@Vscoped_padder@details@spdlog@@@details@spdlog@@@std@@$0A@@?$unique_ptr@V?$Y_formatter@Vscoped_padder@details@spdlog@@@details@spdlog@@U?$default_delete@V?$Y_formatter@Vscoped_padder@details@spdlog@@@details@spdlog@@@std@@@std@@QEAA@PEAV?$Y_formatter@Vscoped_padder@details@spdlog@@@details@spdlog@@@Z
	??$?0U?$default_delete@V?$Y_formatter@Vscoped_padder@details@spdlog@@@details@spdlog@@@std@@PEAV?$Y_formatter@Vscoped_padder@details@spdlog@@@details@spdlog@@@?$_Compressed_pair@U?$default_delete@Vflag_formatter@details@spdlog@@@std@@PEAVflag_formatter@details@spdlog@@$00@std@@QEAA@U_One_then_variadic_args_t@1@$$QEAU?$default_delete@V?$Y_formatter@Vscoped_padder@details@spdlog@@@details@spdlog@@@1@$$QEAPEAV?$Y_formatter@Vscoped_padder@details@spdlog@@@details@spdlog@@@Z
	??$?0U?$default_delete@V?$a_formatter@Unull_scoped_padder@details@spdlog@@@details@spdlog@@@std@@$0A@@?$unique_ptr@V?$a_formatter@Unull_scoped_padder@details@spdlog@@@details@spdlog@@U?$default_delete@V?$a_formatter@Unull_scoped_padder@details@spdlog@@@details@spdlog@@@std@@@std@@QEAA@PEAV?$a_formatter@Unull_scoped_padder@details@spdlog@@@details@spdlog@@@Z
	??$?0U?$default_delete@V?$a_formatter@Unull_scoped_padder@details@spdlog@@@details@spdlog@@@std@@PEAV?$a_formatter@Unull_scoped_padder@details@spdlog@@@details@spdlog@@@?$_Compressed_pair@U?$default_delete@Vflag_formatter@details@spdlog@@@std@@PEAVflag_formatter@details@spdlog@@$00@std@@QEAA@U_One_then_variadic_args_t@1@$$QEAU?$default_delete@V?$a_formatter@Unull_scoped_padder@details@spdlog@@@details@spdlog@@@1@$$QEAPEAV?$a_formatter@Unull_scoped_padder@details@spdlog@@@details@spdlog@@@Z
	??$?0U?$default_delete@V?$a_formatter@Vscoped_padder@details@spdlog@@@details@spdlog@@@std@@$0A@@?$unique_ptr@V?$a_formatter@Vscoped_padder@details@spdlog@@@details@spdlog@@U?$default_delete@V?$a_formatter@Vscoped_padder@details@spdlog@@@details@spdlog@@@std@@@std@@QEAA@PEAV?$a_formatter@Vscoped_padder@details@spdlog@@@details@spdlog@@@Z
	??$?0U?$default_delete@V?$a_formatter@Vscoped_padder@details@spdlog@@@details@spdlog@@@std@@PEAV?$a_formatter@Vscoped_padder@details@spdlog@@@details@spdlog@@@?$_Compressed_pair@U?$default_delete@Vflag_formatter@details@spdlog@@@std@@PEAVflag_formatter@details@spdlog@@$00@std@@QEAA@U_One_then_variadic_args_t@1@$$QEAU?$default_delete@V?$a_formatter@Vscoped_padder@details@spdlog@@@details@spdlog@@@1@$$QEAPEAV?$a_formatter@Vscoped_padder@details@spdlog@@@details@spdlog@@@Z
	??$?0U?$default_delete@V?$b_formatter@Unull_scoped_padder@details@spdlog@@@details@spdlog@@@std@@$0A@@?$unique_ptr@V?$b_formatter@Unull_scoped_padder@details@spdlog@@@details@spdlog@@U?$default_delete@V?$b_formatter@Unull_scoped_padder@details@spdlog@@@details@spdlog@@@std@@@std@@QEAA@PEAV?$b_formatter@Unull_scoped_padder@details@spdlog@@@details@spdlog@@@Z
	??$?0U?$default_delete@V?$b_formatter@Unull_scoped_padder@details@spdlog@@@details@spdlog@@@std@@PEAV?$b_formatter@Unull_scoped_padder@details@spdlog@@@details@spdlog@@@?$_Compressed_pair@U?$default_delete@Vflag_formatter@details@spdlog@@@std@@PEAVflag_formatter@details@spdlog@@$00@std@@QEAA@U_One_then_variadic_args_t@1@$$QEAU?$default_delete@V?$b_formatter@Unull_scoped_padder@details@spdlog@@@details@spdlog@@@1@$$QEAPEAV?$b_formatter@Unull_scoped_padder@details@spdlog@@@details@spdlog@@@Z
	??$?0U?$default_delete@V?$b_formatter@Vscoped_padder@details@spdlog@@@details@spdlog@@@std@@$0A@@?$unique_ptr@V?$b_formatter@Vscoped_padder@details@spdlog@@@details@spdlog@@U?$default_delete@V?$b_formatter@Vscoped_padder@details@spdlog@@@details@spdlog@@@std@@@std@@QEAA@PEAV?$b_formatter@Vscoped_padder@details@spdlog@@@details@spdlog@@@Z
	??$?0U?$default_delete@V?$b_formatter@Vscoped_padder@details@spdlog@@@details@spdlog@@@std@@PEAV?$b_formatter@Vscoped_padder@details@spdlog@@@details@spdlog@@@?$_Compressed_pair@U?$default_delete@Vflag_formatter@details@spdlog@@@std@@PEAVflag_formatter@details@spdlog@@$00@std@@QEAA@U_One_then_variadic_args_t@1@$$QEAU?$default_delete@V?$b_formatter@Vscoped_padder@details@spdlog@@@details@spdlog@@@1@$$QEAPEAV?$b_formatter@Vscoped_padder@details@spdlog@@@details@spdlog@@@Z
	??$?0U?$default_delete@V?$c_formatter@Unull_scoped_padder@details@spdlog@@@details@spdlog@@@std@@$0A@@?$unique_ptr@V?$c_formatter@Unull_scoped_padder@details@spdlog@@@details@spdlog@@U?$default_delete@V?$c_formatter@Unull_scoped_padder@details@spdlog@@@details@spdlog@@@std@@@std@@QEAA@PEAV?$c_formatter@Unull_scoped_padder@details@spdlog@@@details@spdlog@@@Z
	??$?0U?$default_delete@V?$c_formatter@Unull_scoped_padder@details@spdlog@@@details@spdlog@@@std@@PEAV?$c_formatter@Unull_scoped_padder@details@spdlog@@@details@spdlog@@@?$_Compressed_pair@U?$default_delete@Vflag_formatter@details@spdlog@@@std@@PEAVflag_formatter@details@spdlog@@$00@std@@QEAA@U_One_then_variadic_args_t@1@$$QEAU?$default_delete@V?$c_formatter@Unull_scoped_padder@details@spdlog@@@details@spdlog@@@1@$$QEAPEAV?$c_formatter@Unull_scoped_padder@details@spdlog@@@details@spdlog@@@Z
	??$?0U?$default_delete@V?$c_formatter@Vscoped_padder@details@spdlog@@@details@spdlog@@@std@@$0A@@?$unique_ptr@V?$c_formatter@Vscoped_padder@details@spdlog@@@details@spdlog@@U?$default_delete@V?$c_formatter@Vscoped_padder@details@spdlog@@@details@spdlog@@@std@@@std@@QEAA@PEAV?$c_formatter@Vscoped_padder@details@spdlog@@@details@spdlog@@@Z
	??$?0U?$default_delete@V?$c_formatter@Vscoped_padder@details@spdlog@@@details@spdlog@@@std@@PEAV?$c_formatter@Vscoped_padder@details@spdlog@@@details@spdlog@@@?$_Compressed_pair@U?$default_delete@Vflag_formatter@details@spdlog@@@std@@PEAVflag_formatter@details@spdlog@@$00@std@@QEAA@U_One_then_variadic_args_t@1@$$QEAU?$default_delete@V?$c_formatter@Vscoped_padder@details@spdlog@@@details@spdlog@@@1@$$QEAPEAV?$c_formatter@Vscoped_padder@details@spdlog@@@details@spdlog@@@Z
	??$?0U?$default_delete@V?$d_formatter@Unull_scoped_padder@details@spdlog@@@details@spdlog@@@std@@$0A@@?$unique_ptr@V?$d_formatter@Unull_scoped_padder@details@spdlog@@@details@spdlog@@U?$default_delete@V?$d_formatter@Unull_scoped_padder@details@spdlog@@@details@spdlog@@@std@@@std@@QEAA@PEAV?$d_formatter@Unull_scoped_padder@details@spdlog@@@details@spdlog@@@Z
	??$?0U?$default_delete@V?$d_formatter@Unull_scoped_padder@details@spdlog@@@details@spdlog@@@std@@PEAV?$d_formatter@Unull_scoped_padder@details@spdlog@@@details@spdlog@@@?$_Compressed_pair@U?$default_delete@Vflag_formatter@details@spdlog@@@std@@PEAVflag_formatter@details@spdlog@@$00@std@@QEAA@U_One_then_variadic_args_t@1@$$QEAU?$default_delete@V?$d_formatter@Unull_scoped_padder@details@spdlog@@@details@spdlog@@@1@$$QEAPEAV?$d_formatter@Unull_scoped_padder@details@spdlog@@@details@spdlog@@@Z
	??$?0U?$default_delete@V?$d_formatter@Vscoped_padder@details@spdlog@@@details@spdlog@@@std@@$0A@@?$unique_ptr@V?$d_formatter@Vscoped_padder@details@spdlog@@@details@spdlog@@U?$default_delete@V?$d_formatter@Vscoped_padder@details@spdlog@@@details@spdlog@@@std@@@std@@QEAA@PEAV?$d_formatter@Vscoped_padder@details@spdlog@@@details@spdlog@@@Z
	??$?0U?$default_delete@V?$d_formatter@Vscoped_padder@details@spdlog@@@details@spdlog@@@std@@PEAV?$d_formatter@Vscoped_padder@details@spdlog@@@details@spdlog@@@?$_Compressed_pair@U?$default_delete@Vflag_formatter@details@spdlog@@@std@@PEAVflag_formatter@details@spdlog@@$00@std@@QEAA@U_One_then_variadic_args_t@1@$$QEAU?$default_delete@V?$d_formatter@Vscoped_padder@details@spdlog@@@details@spdlog@@@1@$$QEAPEAV?$d_formatter@Vscoped_padder@details@spdlog@@@details@spdlog@@@Z
	??$?0U?$default_delete@V?$e_formatter@Unull_scoped_padder@details@spdlog@@@details@spdlog@@@std@@$0A@@?$unique_ptr@V?$e_formatter@Unull_scoped_padder@details@spdlog@@@details@spdlog@@U?$default_delete@V?$e_formatter@Unull_scoped_padder@details@spdlog@@@details@spdlog@@@std@@@std@@QEAA@PEAV?$e_formatter@Unull_scoped_padder@details@spdlog@@@details@spdlog@@@Z
	??$?0U?$default_delete@V?$e_formatter@Unull_scoped_padder@details@spdlog@@@details@spdlog@@@std@@PEAV?$e_formatter@Unull_scoped_padder@details@spdlog@@@details@spdlog@@@?$_Compressed_pair@U?$default_delete@Vflag_formatter@details@spdlog@@@std@@PEAVflag_formatter@details@spdlog@@$00@std@@QEAA@U_One_then_variadic_args_t@1@$$QEAU?$default_delete@V?$e_formatter@Unull_scoped_padder@details@spdlog@@@details@spdlog@@@1@$$QEAPEAV?$e_formatter@Unull_scoped_padder@details@spdlog@@@details@spdlog@@@Z
	??$?0U?$default_delete@V?$e_formatter@Vscoped_padder@details@spdlog@@@details@spdlog@@@std@@$0A@@?$unique_ptr@V?$e_formatter@Vscoped_padder@details@spdlog@@@details@spdlog@@U?$default_delete@V?$e_formatter@Vscoped_padder@details@spdlog@@@details@spdlog@@@std@@@std@@QEAA@PEAV?$e_formatter@Vscoped_padder@details@spdlog@@@details@spdlog@@@Z
	??$?0U?$default_delete@V?$e_formatter@Vscoped_padder@details@spdlog@@@details@spdlog@@@std@@PEAV?$e_formatter@Vscoped_padder@details@spdlog@@@details@spdlog@@@?$_Compressed_pair@U?$default_delete@Vflag_formatter@details@spdlog@@@std@@PEAVflag_formatter@details@spdlog@@$00@std@@QEAA@U_One_then_variadic_args_t@1@$$QEAU?$default_delete@V?$e_formatter@Vscoped_padder@details@spdlog@@@details@spdlog@@@1@$$QEAPEAV?$e_formatter@Vscoped_padder@details@spdlog@@@details@spdlog@@@Z
	??$?0U?$default_delete@V?$elapsed_formatter@Unull_scoped_padder@details@spdlog@@V?$duration@_JU?$ratio@$00$00@std@@@chrono@std@@@details@spdlog@@@std@@$0A@@?$unique_ptr@V?$elapsed_formatter@Unull_scoped_padder@details@spdlog@@V?$duration@_JU?$ratio@$00$00@std@@@chrono@std@@@details@spdlog@@U?$default_delete@V?$elapsed_formatter@Unull_scoped_padder@details@spdlog@@V?$duration@_JU?$ratio@$00$00@std@@@chrono@std@@@details@spdlog@@@std@@@std@@QEAA@PEAV?$elapsed_formatter@Unull_scoped_padder@details@spdlog@@V?$duration@_JU?$ratio@$00$00@std@@@chrono@std@@@details@spdlog@@@Z
	??$?0U?$default_delete@V?$elapsed_formatter@Unull_scoped_padder@details@spdlog@@V?$duration@_JU?$ratio@$00$00@std@@@chrono@std@@@details@spdlog@@@std@@PEAV?$elapsed_formatter@Unull_scoped_padder@details@spdlog@@V?$duration@_JU?$ratio@$00$00@std@@@chrono@std@@@details@spdlog@@@?$_Compressed_pair@U?$default_delete@Vflag_formatter@details@spdlog@@@std@@PEAVflag_formatter@details@spdlog@@$00@std@@QEAA@U_One_then_variadic_args_t@1@$$QEAU?$default_delete@V?$elapsed_formatter@Unull_scoped_padder@details@spdlog@@V?$duration@_JU?$ratio@$00$00@std@@@chrono@std@@@details@spdlog@@@1@$$QEAPEAV?$elapsed_formatter@Unull_scoped_padder@details@spdlog@@V?$duration@_JU?$ratio@$00$00@std@@@chrono@std@@@details@spdlog@@@Z
	??$?0U?$default_delete@V?$elapsed_formatter@Unull_scoped_padder@details@spdlog@@V?$duration@_JU?$ratio@$00$0DLJKMKAA@@std@@@chrono@std@@@details@spdlog@@@std@@$0A@@?$unique_ptr@V?$elapsed_formatter@Unull_scoped_padder@details@spdlog@@V?$duration@_JU?$ratio@$00$0DLJKMKAA@@std@@@chrono@std@@@details@spdlog@@U?$default_delete@V?$elapsed_formatter@Unull_scoped_padder@details@spdlog@@V?$duration@_JU?$ratio@$00$0DLJKMKAA@@std@@@chrono@std@@@details@spdlog@@@std@@@std@@QEAA@PEAV?$elapsed_formatter@Unull_scoped_padder@details@spdlog@@V?$duration@_JU?$ratio@$00$0DLJKMKAA@@std@@@chrono@std@@@details@spdlog@@@Z
	??$?0U?$default_delete@V?$elapsed_formatter@Unull_scoped_padder@details@spdlog@@V?$duration@_JU?$ratio@$00$0DLJKMKAA@@std@@@chrono@std@@@details@spdlog@@@std@@PEAV?$elapsed_formatter@Unull_scoped_padder@details@spdlog@@V?$duration@_JU?$ratio@$00$0DLJKMKAA@@std@@@chrono@std@@@details@spdlog@@@?$_Compressed_pair@U?$default_delete@Vflag_formatter@details@spdlog@@@std@@PEAVflag_formatter@details@spdlog@@$00@std@@QEAA@U_One_then_variadic_args_t@1@$$QEAU?$default_delete@V?$elapsed_formatter@Unull_scoped_padder@details@spdlog@@V?$duration@_JU?$ratio@$00$0DLJKMKAA@@std@@@chrono@std@@@details@spdlog@@@1@$$QEAPEAV?$elapsed_formatter@Unull_scoped_padder@details@spdlog@@V?$duration@_JU?$ratio@$00$0DLJKMKAA@@std@@@chrono@std@@@details@spdlog@@@Z
	??$?0U?$default_delete@V?$elapsed_formatter@Unull_scoped_padder@details@spdlog@@V?$duration@_JU?$ratio@$00$0DOI@@std@@@chrono@std@@@details@spdlog@@@std@@$0A@@?$unique_ptr@V?$elapsed_formatter@Unull_scoped_padder@details@spdlog@@V?$duration@_JU?$ratio@$00$0DOI@@std@@@chrono@std@@@details@spdlog@@U?$default_delete@V?$elapsed_formatter@Unull_scoped_padder@details@spdlog@@V?$duration@_JU?$ratio@$00$0DOI@@std@@@chrono@std@@@details@spdlog@@@std@@@std@@QEAA@PEAV?$elapsed_formatter@Unull_scoped_padder@details@spdlog@@V?$duration@_JU?$ratio@$00$0DOI@@std@@@chrono@std@@@details@spdlog@@@Z
	??$?0U?$default_delete@V?$elapsed_formatter@Unull_scoped_padder@details@spdlog@@V?$duration@_JU?$ratio@$00$0DOI@@std@@@chrono@std@@@details@spdlog@@@std@@PEAV?$elapsed_formatter@Unull_scoped_padder@details@spdlog@@V?$duration@_JU?$ratio@$00$0DOI@@std@@@chrono@std@@@details@spdlog@@@?$_Compressed_pair@U?$default_delete@Vflag_formatter@details@spdlog@@@std@@PEAVflag_formatter@details@spdlog@@$00@std@@QEAA@U_One_then_variadic_args_t@1@$$QEAU?$default_delete@V?$elapsed_formatter@Unull_scoped_padder@details@spdlog@@V?$duration@_JU?$ratio@$00$0DOI@@std@@@chrono@std@@@details@spdlog@@@1@$$QEAPEAV?$elapsed_formatter@Unull_scoped_padder@details@spdlog@@V?$duration@_JU?$ratio@$00$0DOI@@std@@@chrono@std@@@details@spdlog@@@Z
	??$?0U?$default_delete@V?$elapsed_formatter@Unull_scoped_padder@details@spdlog@@V?$duration@_JU?$ratio@$00$0PECEA@@std@@@chrono@std@@@details@spdlog@@@std@@$0A@@?$unique_ptr@V?$elapsed_formatter@Unull_scoped_padder@details@spdlog@@V?$duration@_JU?$ratio@$00$0PECEA@@std@@@chrono@std@@@details@spdlog@@U?$default_delete@V?$elapsed_formatter@Unull_scoped_padder@details@spdlog@@V?$duration@_JU?$ratio@$00$0PECEA@@std@@@chrono@std@@@details@spdlog@@@std@@@std@@QEAA@PEAV?$elapsed_formatter@Unull_scoped_padder@details@spdlog@@V?$duration@_JU?$ratio@$00$0PECEA@@std@@@chrono@std@@@details@spdlog@@@Z
	??$?0U?$default_delete@V?$elapsed_formatter@Unull_scoped_padder@details@spdlog@@V?$duration@_JU?$ratio@$00$0PECEA@@std@@@chrono@std@@@details@spdlog@@@std@@PEAV?$elapsed_formatter@Unull_scoped_padder@details@spdlog@@V?$duration@_JU?$ratio@$00$0PECEA@@std@@@chrono@std@@@details@spdlog@@@?$_Compressed_pair@U?$default_delete@Vflag_formatter@details@spdlog@@@std@@PEAVflag_formatter@details@spdlog@@$00@std@@QEAA@U_One_then_variadic_args_t@1@$$QEAU?$default_delete@V?$elapsed_formatter@Unull_scoped_padder@details@spdlog@@V?$duration@_JU?$ratio@$00$0PECEA@@std@@@chrono@std@@@details@spdlog@@@1@$$QEAPEAV?$elapsed_formatter@Unull_scoped_padder@details@spdlog@@V?$duration@_JU?$ratio@$00$0PECEA@@std@@@chrono@std@@@details@spdlog@@@Z
	??$?0U?$default_delete@V?$elapsed_formatter@Vscoped_padder@details@spdlog@@V?$duration@_JU?$ratio@$00$00@std@@@chrono@std@@@details@spdlog@@@std@@$0A@@?$unique_ptr@V?$elapsed_formatter@Vscoped_padder@details@spdlog@@V?$duration@_JU?$ratio@$00$00@std@@@chrono@std@@@details@spdlog@@U?$default_delete@V?$elapsed_formatter@Vscoped_padder@details@spdlog@@V?$duration@_JU?$ratio@$00$00@std@@@chrono@std@@@details@spdlog@@@std@@@std@@QEAA@PEAV?$elapsed_formatter@Vscoped_padder@details@spdlog@@V?$duration@_JU?$ratio@$00$00@std@@@chrono@std@@@details@spdlog@@@Z
	??$?0U?$default_delete@V?$elapsed_formatter@Vscoped_padder@details@spdlog@@V?$duration@_JU?$ratio@$00$00@std@@@chrono@std@@@details@spdlog@@@std@@PEAV?$elapsed_formatter@Vscoped_padder@details@spdlog@@V?$duration@_JU?$ratio@$00$00@std@@@chrono@std@@@details@spdlog@@@?$_Compressed_pair@U?$default_delete@Vflag_formatter@details@spdlog@@@std@@PEAVflag_formatter@details@spdlog@@$00@std@@QEAA@U_One_then_variadic_args_t@1@$$QEAU?$default_delete@V?$elapsed_formatter@Vscoped_padder@details@spdlog@@V?$duration@_JU?$ratio@$00$00@std@@@chrono@std@@@details@spdlog@@@1@$$QEAPEAV?$elapsed_formatter@Vscoped_padder@details@spdlog@@V?$duration@_JU?$ratio@$00$00@std@@@chrono@std@@@details@spdlog@@@Z
	??$?0U?$default_delete@V?$elapsed_formatter@Vscoped_padder@details@spdlog@@V?$duration@_JU?$ratio@$00$0DLJKMKAA@@std@@@chrono@std@@@details@spdlog@@@std@@$0A@@?$unique_ptr@V?$elapsed_formatter@Vscoped_padder@details@spdlog@@V?$duration@_JU?$ratio@$00$0DLJKMKAA@@std@@@chrono@std@@@details@spdlog@@U?$default_delete@V?$elapsed_formatter@Vscoped_padder@details@spdlog@@V?$duration@_JU?$ratio@$00$0DLJKMKAA@@std@@@chrono@std@@@details@spdlog@@@std@@@std@@QEAA@PEAV?$elapsed_formatter@Vscoped_padder@details@spdlog@@V?$duration@_JU?$ratio@$00$0DLJKMKAA@@std@@@chrono@std@@@details@spdlog@@@Z
	??$?0U?$default_delete@V?$elapsed_formatter@Vscoped_padder@details@spdlog@@V?$duration@_JU?$ratio@$00$0DLJKMKAA@@std@@@chrono@std@@@details@spdlog@@@std@@PEAV?$elapsed_formatter@Vscoped_padder@details@spdlog@@V?$duration@_JU?$ratio@$00$0DLJKMKAA@@std@@@chrono@std@@@details@spdlog@@@?$_Compressed_pair@U?$default_delete@Vflag_formatter@details@spdlog@@@std@@PEAVflag_formatter@details@spdlog@@$00@std@@QEAA@U_One_then_variadic_args_t@1@$$QEAU?$default_delete@V?$elapsed_formatter@Vscoped_padder@details@spdlog@@V?$duration@_JU?$ratio@$00$0DLJKMKAA@@std@@@chrono@std@@@details@spdlog@@@1@$$QEAPEAV?$elapsed_formatter@Vscoped_padder@details@spdlog@@V?$duration@_JU?$ratio@$00$0DLJKMKAA@@std@@@chrono@std@@@details@spdlog@@@Z
	??$?0U?$default_delete@V?$elapsed_formatter@Vscoped_padder@details@spdlog@@V?$duration@_JU?$ratio@$00$0DOI@@std@@@chrono@std@@@details@spdlog@@@std@@$0A@@?$unique_ptr@V?$elapsed_formatter@Vscoped_padder@details@spdlog@@V?$duration@_JU?$ratio@$00$0DOI@@std@@@chrono@std@@@details@spdlog@@U?$default_delete@V?$elapsed_formatter@Vscoped_padder@details@spdlog@@V?$duration@_JU?$ratio@$00$0DOI@@std@@@chrono@std@@@details@spdlog@@@std@@@std@@QEAA@PEAV?$elapsed_formatter@Vscoped_padder@details@spdlog@@V?$duration@_JU?$ratio@$00$0DOI@@std@@@chrono@std@@@details@spdlog@@@Z
	??$?0U?$default_delete@V?$elapsed_formatter@Vscoped_padder@details@spdlog@@V?$duration@_JU?$ratio@$00$0DOI@@std@@@chrono@std@@@details@spdlog@@@std@@PEAV?$elapsed_formatter@Vscoped_padder@details@spdlog@@V?$duration@_JU?$ratio@$00$0DOI@@std@@@chrono@std@@@details@spdlog@@@?$_Compressed_pair@U?$default_delete@Vflag_formatter@details@spdlog@@@std@@PEAVflag_formatter@details@spdlog@@$00@std@@QEAA@U_One_then_variadic_args_t@1@$$QEAU?$default_delete@V?$elapsed_formatter@Vscoped_padder@details@spdlog@@V?$duration@_JU?$ratio@$00$0DOI@@std@@@chrono@std@@@details@spdlog@@@1@$$QEAPEAV?$elapsed_formatter@Vscoped_padder@details@spdlog@@V?$duration@_JU?$ratio@$00$0DOI@@std@@@chrono@std@@@details@spdlog@@@Z
	??$?0U?$default_delete@V?$elapsed_formatter@Vscoped_padder@details@spdlog@@V?$duration@_JU?$ratio@$00$0PECEA@@std@@@chrono@std@@@details@spdlog@@@std@@$0A@@?$unique_ptr@V?$elapsed_formatter@Vscoped_padder@details@spdlog@@V?$duration@_JU?$ratio@$00$0PECEA@@std@@@chrono@std@@@details@spdlog@@U?$default_delete@V?$elapsed_formatter@Vscoped_padder@details@spdlog@@V?$duration@_JU?$ratio@$00$0PECEA@@std@@@chrono@std@@@details@spdlog@@@std@@@std@@QEAA@PEAV?$elapsed_formatter@Vscoped_padder@details@spdlog@@V?$duration@_JU?$ratio@$00$0PECEA@@std@@@chrono@std@@@details@spdlog@@@Z
	??$?0U?$default_delete@V?$elapsed_formatter@Vscoped_padder@details@spdlog@@V?$duration@_JU?$ratio@$00$0PECEA@@std@@@chrono@std@@@details@spdlog@@@std@@PEAV?$elapsed_formatter@Vscoped_padder@details@spdlog@@V?$duration@_JU?$ratio@$00$0PECEA@@std@@@chrono@std@@@details@spdlog@@@?$_Compressed_pair@U?$default_delete@Vflag_formatter@details@spdlog@@@std@@PEAVflag_formatter@details@spdlog@@$00@std@@QEAA@U_One_then_variadic_args_t@1@$$QEAU?$default_delete@V?$elapsed_formatter@Vscoped_padder@details@spdlog@@V?$duration@_JU?$ratio@$00$0PECEA@@std@@@chrono@std@@@details@spdlog@@@1@$$QEAPEAV?$elapsed_formatter@Vscoped_padder@details@spdlog@@V?$duration@_JU?$ratio@$00$0PECEA@@std@@@chrono@std@@@details@spdlog@@@Z
	??$?0U?$default_delete@V?$f_formatter@Unull_scoped_padder@details@spdlog@@@details@spdlog@@@std@@$0A@@?$unique_ptr@V?$f_formatter@Unull_scoped_padder@details@spdlog@@@details@spdlog@@U?$default_delete@V?$f_formatter@Unull_scoped_padder@details@spdlog@@@details@spdlog@@@std@@@std@@QEAA@PEAV?$f_formatter@Unull_scoped_padder@details@spdlog@@@details@spdlog@@@Z
	??$?0U?$default_delete@V?$f_formatter@Unull_scoped_padder@details@spdlog@@@details@spdlog@@@std@@PEAV?$f_formatter@Unull_scoped_padder@details@spdlog@@@details@spdlog@@@?$_Compressed_pair@U?$default_delete@Vflag_formatter@details@spdlog@@@std@@PEAVflag_formatter@details@spdlog@@$00@std@@QEAA@U_One_then_variadic_args_t@1@$$QEAU?$default_delete@V?$f_formatter@Unull_scoped_padder@details@spdlog@@@details@spdlog@@@1@$$QEAPEAV?$f_formatter@Unull_scoped_padder@details@spdlog@@@details@spdlog@@@Z
	??$?0U?$default_delete@V?$f_formatter@Vscoped_padder@details@spdlog@@@details@spdlog@@@std@@$0A@@?$unique_ptr@V?$f_formatter@Vscoped_padder@details@spdlog@@@details@spdlog@@U?$default_delete@V?$f_formatter@Vscoped_padder@details@spdlog@@@details@spdlog@@@std@@@std@@QEAA@PEAV?$f_formatter@Vscoped_padder@details@spdlog@@@details@spdlog@@@Z
	??$?0U?$default_delete@V?$f_formatter@Vscoped_padder@details@spdlog@@@details@spdlog@@@std@@PEAV?$f_formatter@Vscoped_padder@details@spdlog@@@details@spdlog@@@?$_Compressed_pair@U?$default_delete@Vflag_formatter@details@spdlog@@@std@@PEAVflag_formatter@details@spdlog@@$00@std@@QEAA@U_One_then_variadic_args_t@1@$$QEAU?$default_delete@V?$f_formatter@Vscoped_padder@details@spdlog@@@details@spdlog@@@1@$$QEAPEAV?$f_formatter@Vscoped_padder@details@spdlog@@@details@spdlog@@@Z
	??$?0U?$default_delete@V?$level_formatter@Unull_scoped_padder@details@spdlog@@@details@spdlog@@@std@@$0A@@?$unique_ptr@V?$level_formatter@Unull_scoped_padder@details@spdlog@@@details@spdlog@@U?$default_delete@V?$level_formatter@Unull_scoped_padder@details@spdlog@@@details@spdlog@@@std@@@std@@QEAA@PEAV?$level_formatter@Unull_scoped_padder@details@spdlog@@@details@spdlog@@@Z
	??$?0U?$default_delete@V?$level_formatter@Unull_scoped_padder@details@spdlog@@@details@spdlog@@@std@@PEAV?$level_formatter@Unull_scoped_padder@details@spdlog@@@details@spdlog@@@?$_Compressed_pair@U?$default_delete@Vflag_formatter@details@spdlog@@@std@@PEAVflag_formatter@details@spdlog@@$00@std@@QEAA@U_One_then_variadic_args_t@1@$$QEAU?$default_delete@V?$level_formatter@Unull_scoped_padder@details@spdlog@@@details@spdlog@@@1@$$QEAPEAV?$level_formatter@Unull_scoped_padder@details@spdlog@@@details@spdlog@@@Z
	??$?0U?$default_delete@V?$level_formatter@Vscoped_padder@details@spdlog@@@details@spdlog@@@std@@$0A@@?$unique_ptr@V?$level_formatter@Vscoped_padder@details@spdlog@@@details@spdlog@@U?$default_delete@V?$level_formatter@Vscoped_padder@details@spdlog@@@details@spdlog@@@std@@@std@@QEAA@PEAV?$level_formatter@Vscoped_padder@details@spdlog@@@details@spdlog@@@Z
	??$?0U?$default_delete@V?$level_formatter@Vscoped_padder@details@spdlog@@@details@spdlog@@@std@@PEAV?$level_formatter@Vscoped_padder@details@spdlog@@@details@spdlog@@@?$_Compressed_pair@U?$default_delete@Vflag_formatter@details@spdlog@@@std@@PEAVflag_formatter@details@spdlog@@$00@std@@QEAA@U_One_then_variadic_args_t@1@$$QEAU?$default_delete@V?$level_formatter@Vscoped_padder@details@spdlog@@@details@spdlog@@@1@$$QEAPEAV?$level_formatter@Vscoped_padder@details@spdlog@@@details@spdlog@@@Z
	??$?0U?$default_delete@V?$m_formatter@Unull_scoped_padder@details@spdlog@@@details@spdlog@@@std@@$0A@@?$unique_ptr@V?$m_formatter@Unull_scoped_padder@details@spdlog@@@details@spdlog@@U?$default_delete@V?$m_formatter@Unull_scoped_padder@details@spdlog@@@details@spdlog@@@std@@@std@@QEAA@PEAV?$m_formatter@Unull_scoped_padder@details@spdlog@@@details@spdlog@@@Z
	??$?0U?$default_delete@V?$m_formatter@Unull_scoped_padder@details@spdlog@@@details@spdlog@@@std@@PEAV?$m_formatter@Unull_scoped_padder@details@spdlog@@@details@spdlog@@@?$_Compressed_pair@U?$default_delete@Vflag_formatter@details@spdlog@@@std@@PEAVflag_formatter@details@spdlog@@$00@std@@QEAA@U_One_then_variadic_args_t@1@$$QEAU?$default_delete@V?$m_formatter@Unull_scoped_padder@details@spdlog@@@details@spdlog@@@1@$$QEAPEAV?$m_formatter@Unull_scoped_padder@details@spdlog@@@details@spdlog@@@Z
	??$?0U?$default_delete@V?$m_formatter@Vscoped_padder@details@spdlog@@@details@spdlog@@@std@@$0A@@?$unique_ptr@V?$m_formatter@Vscoped_padder@details@spdlog@@@details@spdlog@@U?$default_delete@V?$m_formatter@Vscoped_padder@details@spdlog@@@details@spdlog@@@std@@@std@@QEAA@PEAV?$m_formatter@Vscoped_padder@details@spdlog@@@details@spdlog@@@Z
	??$?0U?$default_delete@V?$m_formatter@Vscoped_padder@details@spdlog@@@details@spdlog@@@std@@PEAV?$m_formatter@Vscoped_padder@details@spdlog@@@details@spdlog@@@?$_Compressed_pair@U?$default_delete@Vflag_formatter@details@spdlog@@@std@@PEAVflag_formatter@details@spdlog@@$00@std@@QEAA@U_One_then_variadic_args_t@1@$$QEAU?$default_delete@V?$m_formatter@Vscoped_padder@details@spdlog@@@details@spdlog@@@1@$$QEAPEAV?$m_formatter@Vscoped_padder@details@spdlog@@@details@spdlog@@@Z
	??$?0U?$default_delete@V?$mdc_formatter@Unull_scoped_padder@details@spdlog@@@details@spdlog@@@std@@$0A@@?$unique_ptr@V?$mdc_formatter@Unull_scoped_padder@details@spdlog@@@details@spdlog@@U?$default_delete@V?$mdc_formatter@Unull_scoped_padder@details@spdlog@@@details@spdlog@@@std@@@std@@QEAA@PEAV?$mdc_formatter@Unull_scoped_padder@details@spdlog@@@details@spdlog@@@Z
	??$?0U?$default_delete@V?$mdc_formatter@Unull_scoped_padder@details@spdlog@@@details@spdlog@@@std@@PEAV?$mdc_formatter@Unull_scoped_padder@details@spdlog@@@details@spdlog@@@?$_Compressed_pair@U?$default_delete@Vflag_formatter@details@spdlog@@@std@@PEAVflag_formatter@details@spdlog@@$00@std@@QEAA@U_One_then_variadic_args_t@1@$$QEAU?$default_delete@V?$mdc_formatter@Unull_scoped_padder@details@spdlog@@@details@spdlog@@@1@$$QEAPEAV?$mdc_formatter@Unull_scoped_padder@details@spdlog@@@details@spdlog@@@Z
	??$?0U?$default_delete@V?$mdc_formatter@Vscoped_padder@details@spdlog@@@details@spdlog@@@std@@$0A@@?$unique_ptr@V?$mdc_formatter@Vscoped_padder@details@spdlog@@@details@spdlog@@U?$default_delete@V?$mdc_formatter@Vscoped_padder@details@spdlog@@@details@spdlog@@@std@@@std@@QEAA@PEAV?$mdc_formatter@Vscoped_padder@details@spdlog@@@details@spdlog@@@Z
	??$?0U?$default_delete@V?$mdc_formatter@Vscoped_padder@details@spdlog@@@details@spdlog@@@std@@PEAV?$mdc_formatter@Vscoped_padder@details@spdlog@@@details@spdlog@@@?$_Compressed_pair@U?$default_delete@Vflag_formatter@details@spdlog@@@std@@PEAVflag_formatter@details@spdlog@@$00@std@@QEAA@U_One_then_variadic_args_t@1@$$QEAU?$default_delete@V?$mdc_formatter@Vscoped_padder@details@spdlog@@@details@spdlog@@@1@$$QEAPEAV?$mdc_formatter@Vscoped_padder@details@spdlog@@@details@spdlog@@@Z
	??$?0U?$default_delete@V?$name_formatter@Unull_scoped_padder@details@spdlog@@@details@spdlog@@@std@@$0A@@?$unique_ptr@V?$name_formatter@Unull_scoped_padder@details@spdlog@@@details@spdlog@@U?$default_delete@V?$name_formatter@Unull_scoped_padder@details@spdlog@@@details@spdlog@@@std@@@std@@QEAA@PEAV?$name_formatter@Unull_scoped_padder@details@spdlog@@@details@spdlog@@@Z
	??$?0U?$default_delete@V?$name_formatter@Unull_scoped_padder@details@spdlog@@@details@spdlog@@@std@@PEAV?$name_formatter@Unull_scoped_padder@details@spdlog@@@details@spdlog@@@?$_Compressed_pair@U?$default_delete@Vflag_formatter@details@spdlog@@@std@@PEAVflag_formatter@details@spdlog@@$00@std@@QEAA@U_One_then_variadic_args_t@1@$$QEAU?$default_delete@V?$name_formatter@Unull_scoped_padder@details@spdlog@@@details@spdlog@@@1@$$QEAPEAV?$name_formatter@Unull_scoped_padder@details@spdlog@@@details@spdlog@@@Z
	??$?0U?$default_delete@V?$name_formatter@Vscoped_padder@details@spdlog@@@details@spdlog@@@std@@$0A@@?$unique_ptr@V?$name_formatter@Vscoped_padder@details@spdlog@@@details@spdlog@@U?$default_delete@V?$name_formatter@Vscoped_padder@details@spdlog@@@details@spdlog@@@std@@@std@@QEAA@PEAV?$name_formatter@Vscoped_padder@details@spdlog@@@details@spdlog@@@Z
	??$?0U?$default_delete@V?$name_formatter@Vscoped_padder@details@spdlog@@@details@spdlog@@@std@@PEAV?$name_formatter@Vscoped_padder@details@spdlog@@@details@spdlog@@@?$_Compressed_pair@U?$default_delete@Vflag_formatter@details@spdlog@@@std@@PEAVflag_formatter@details@spdlog@@$00@std@@QEAA@U_One_then_variadic_args_t@1@$$QEAU?$default_delete@V?$name_formatter@Vscoped_padder@details@spdlog@@@details@spdlog@@@1@$$QEAPEAV?$name_formatter@Vscoped_padder@details@spdlog@@@details@spdlog@@@Z
	??$?0U?$default_delete@V?$p_formatter@Unull_scoped_padder@details@spdlog@@@details@spdlog@@@std@@$0A@@?$unique_ptr@V?$p_formatter@Unull_scoped_padder@details@spdlog@@@details@spdlog@@U?$default_delete@V?$p_formatter@Unull_scoped_padder@details@spdlog@@@details@spdlog@@@std@@@std@@QEAA@PEAV?$p_formatter@Unull_scoped_padder@details@spdlog@@@details@spdlog@@@Z
	??$?0U?$default_delete@V?$p_formatter@Unull_scoped_padder@details@spdlog@@@details@spdlog@@@std@@PEAV?$p_formatter@Unull_scoped_padder@details@spdlog@@@details@spdlog@@@?$_Compressed_pair@U?$default_delete@Vflag_formatter@details@spdlog@@@std@@PEAVflag_formatter@details@spdlog@@$00@std@@QEAA@U_One_then_variadic_args_t@1@$$QEAU?$default_delete@V?$p_formatter@Unull_scoped_padder@details@spdlog@@@details@spdlog@@@1@$$QEAPEAV?$p_formatter@Unull_scoped_padder@details@spdlog@@@details@spdlog@@@Z
	??$?0U?$default_delete@V?$p_formatter@Vscoped_padder@details@spdlog@@@details@spdlog@@@std@@$0A@@?$unique_ptr@V?$p_formatter@Vscoped_padder@details@spdlog@@@details@spdlog@@U?$default_delete@V?$p_formatter@Vscoped_padder@details@spdlog@@@details@spdlog@@@std@@@std@@QEAA@PEAV?$p_formatter@Vscoped_padder@details@spdlog@@@details@spdlog@@@Z
	??$?0U?$default_delete@V?$p_formatter@Vscoped_padder@details@spdlog@@@details@spdlog@@@std@@PEAV?$p_formatter@Vscoped_padder@details@spdlog@@@details@spdlog@@@?$_Compressed_pair@U?$default_delete@Vflag_formatter@details@spdlog@@@std@@PEAVflag_formatter@details@spdlog@@$00@std@@QEAA@U_One_then_variadic_args_t@1@$$QEAU?$default_delete@V?$p_formatter@Vscoped_padder@details@spdlog@@@details@spdlog@@@1@$$QEAPEAV?$p_formatter@Vscoped_padder@details@spdlog@@@details@spdlog@@@Z
	??$?0U?$default_delete@V?$pid_formatter@Unull_scoped_padder@details@spdlog@@@details@spdlog@@@std@@$0A@@?$unique_ptr@V?$pid_formatter@Unull_scoped_padder@details@spdlog@@@details@spdlog@@U?$default_delete@V?$pid_formatter@Unull_scoped_padder@details@spdlog@@@details@spdlog@@@std@@@std@@QEAA@PEAV?$pid_formatter@Unull_scoped_padder@details@spdlog@@@details@spdlog@@@Z
	??$?0U?$default_delete@V?$pid_formatter@Unull_scoped_padder@details@spdlog@@@details@spdlog@@@std@@PEAV?$pid_formatter@Unull_scoped_padder@details@spdlog@@@details@spdlog@@@?$_Compressed_pair@U?$default_delete@Vflag_formatter@details@spdlog@@@std@@PEAVflag_formatter@details@spdlog@@$00@std@@QEAA@U_One_then_variadic_args_t@1@$$QEAU?$default_delete@V?$pid_formatter@Unull_scoped_padder@details@spdlog@@@details@spdlog@@@1@$$QEAPEAV?$pid_formatter@Unull_scoped_padder@details@spdlog@@@details@spdlog@@@Z
	??$?0U?$default_delete@V?$pid_formatter@Vscoped_padder@details@spdlog@@@details@spdlog@@@std@@$0A@@?$unique_ptr@V?$pid_formatter@Vscoped_padder@details@spdlog@@@details@spdlog@@U?$default_delete@V?$pid_formatter@Vscoped_padder@details@spdlog@@@details@spdlog@@@std@@@std@@QEAA@PEAV?$pid_formatter@Vscoped_padder@details@spdlog@@@details@spdlog@@@Z
	??$?0U?$default_delete@V?$pid_formatter@Vscoped_padder@details@spdlog@@@details@spdlog@@@std@@PEAV?$pid_formatter@Vscoped_padder@details@spdlog@@@details@spdlog@@@?$_Compressed_pair@U?$default_delete@Vflag_formatter@details@spdlog@@@std@@PEAVflag_formatter@details@spdlog@@$00@std@@QEAA@U_One_then_variadic_args_t@1@$$QEAU?$default_delete@V?$pid_formatter@Vscoped_padder@details@spdlog@@@details@spdlog@@@1@$$QEAPEAV?$pid_formatter@Vscoped_padder@details@spdlog@@@details@spdlog@@@Z
	??$?0U?$default_delete@V?$r_formatter@Unull_scoped_padder@details@spdlog@@@details@spdlog@@@std@@$0A@@?$unique_ptr@V?$r_formatter@Unull_scoped_padder@details@spdlog@@@details@spdlog@@U?$default_delete@V?$r_formatter@Unull_scoped_padder@details@spdlog@@@details@spdlog@@@std@@@std@@QEAA@PEAV?$r_formatter@Unull_scoped_padder@details@spdlog@@@details@spdlog@@@Z
	??$?0U?$default_delete@V?$r_formatter@Unull_scoped_padder@details@spdlog@@@details@spdlog@@@std@@PEAV?$r_formatter@Unull_scoped_padder@details@spdlog@@@details@spdlog@@@?$_Compressed_pair@U?$default_delete@Vflag_formatter@details@spdlog@@@std@@PEAVflag_formatter@details@spdlog@@$00@std@@QEAA@U_One_then_variadic_args_t@1@$$QEAU?$default_delete@V?$r_formatter@Unull_scoped_padder@details@spdlog@@@details@spdlog@@@1@$$QEAPEAV?$r_formatter@Unull_scoped_padder@details@spdlog@@@details@spdlog@@@Z
	??$?0U?$default_delete@V?$r_formatter@Vscoped_padder@details@spdlog@@@details@spdlog@@@std@@$0A@@?$unique_ptr@V?$r_formatter@Vscoped_padder@details@spdlog@@@details@spdlog@@U?$default_delete@V?$r_formatter@Vscoped_padder@details@spdlog@@@details@spdlog@@@std@@@std@@QEAA@PEAV?$r_formatter@Vscoped_padder@details@spdlog@@@details@spdlog@@@Z
	??$?0U?$default_delete@V?$r_formatter@Vscoped_padder@details@spdlog@@@details@spdlog@@@std@@PEAV?$r_formatter@Vscoped_padder@details@spdlog@@@details@spdlog@@@?$_Compressed_pair@U?$default_delete@Vflag_formatter@details@spdlog@@@std@@PEAVflag_formatter@details@spdlog@@$00@std@@QEAA@U_One_then_variadic_args_t@1@$$QEAU?$default_delete@V?$r_formatter@Vscoped_padder@details@spdlog@@@details@spdlog@@@1@$$QEAPEAV?$r_formatter@Vscoped_padder@details@spdlog@@@details@spdlog@@@Z
	??$?0U?$default_delete@V?$short_filename_formatter@Unull_scoped_padder@details@spdlog@@@details@spdlog@@@std@@$0A@@?$unique_ptr@V?$short_filename_formatter@Unull_scoped_padder@details@spdlog@@@details@spdlog@@U?$default_delete@V?$short_filename_formatter@Unull_scoped_padder@details@spdlog@@@details@spdlog@@@std@@@std@@QEAA@PEAV?$short_filename_formatter@Unull_scoped_padder@details@spdlog@@@details@spdlog@@@Z
	??$?0U?$default_delete@V?$short_filename_formatter@Unull_scoped_padder@details@spdlog@@@details@spdlog@@@std@@PEAV?$short_filename_formatter@Unull_scoped_padder@details@spdlog@@@details@spdlog@@@?$_Compressed_pair@U?$default_delete@Vflag_formatter@details@spdlog@@@std@@PEAVflag_formatter@details@spdlog@@$00@std@@QEAA@U_One_then_variadic_args_t@1@$$QEAU?$default_delete@V?$short_filename_formatter@Unull_scoped_padder@details@spdlog@@@details@spdlog@@@1@$$QEAPEAV?$short_filename_formatter@Unull_scoped_padder@details@spdlog@@@details@spdlog@@@Z
	??$?0U?$default_delete@V?$short_filename_formatter@Vscoped_padder@details@spdlog@@@details@spdlog@@@std@@$0A@@?$unique_ptr@V?$short_filename_formatter@Vscoped_padder@details@spdlog@@@details@spdlog@@U?$default_delete@V?$short_filename_formatter@Vscoped_padder@details@spdlog@@@details@spdlog@@@std@@@std@@QEAA@PEAV?$short_filename_formatter@Vscoped_padder@details@spdlog@@@details@spdlog@@@Z
	??$?0U?$default_delete@V?$short_filename_formatter@Vscoped_padder@details@spdlog@@@details@spdlog@@@std@@PEAV?$short_filename_formatter@Vscoped_padder@details@spdlog@@@details@spdlog@@@?$_Compressed_pair@U?$default_delete@Vflag_formatter@details@spdlog@@@std@@PEAVflag_formatter@details@spdlog@@$00@std@@QEAA@U_One_then_variadic_args_t@1@$$QEAU?$default_delete@V?$short_filename_formatter@Vscoped_padder@details@spdlog@@@details@spdlog@@@1@$$QEAPEAV?$short_filename_formatter@Vscoped_padder@details@spdlog@@@details@spdlog@@@Z
	??$?0U?$default_delete@V?$short_level_formatter@Unull_scoped_padder@details@spdlog@@@details@spdlog@@@std@@$0A@@?$unique_ptr@V?$short_level_formatter@Unull_scoped_padder@details@spdlog@@@details@spdlog@@U?$default_delete@V?$short_level_formatter@Unull_scoped_padder@details@spdlog@@@details@spdlog@@@std@@@std@@QEAA@PEAV?$short_level_formatter@Unull_scoped_padder@details@spdlog@@@details@spdlog@@@Z
	??$?0U?$default_delete@V?$short_level_formatter@Unull_scoped_padder@details@spdlog@@@details@spdlog@@@std@@PEAV?$short_level_formatter@Unull_scoped_padder@details@spdlog@@@details@spdlog@@@?$_Compressed_pair@U?$default_delete@Vflag_formatter@details@spdlog@@@std@@PEAVflag_formatter@details@spdlog@@$00@std@@QEAA@U_One_then_variadic_args_t@1@$$QEAU?$default_delete@V?$short_level_formatter@Unull_scoped_padder@details@spdlog@@@details@spdlog@@@1@$$QEAPEAV?$short_level_formatter@Unull_scoped_padder@details@spdlog@@@details@spdlog@@@Z
	??$?0U?$default_delete@V?$short_level_formatter@Vscoped_padder@details@spdlog@@@details@spdlog@@@std@@$0A@@?$unique_ptr@V?$short_level_formatter@Vscoped_padder@details@spdlog@@@details@spdlog@@U?$default_delete@V?$short_level_formatter@Vscoped_padder@details@spdlog@@@details@spdlog@@@std@@@std@@QEAA@PEAV?$short_level_formatter@Vscoped_padder@details@spdlog@@@details@spdlog@@@Z
	??$?0U?$default_delete@V?$short_level_formatter@Vscoped_padder@details@spdlog@@@details@spdlog@@@std@@PEAV?$short_level_formatter@Vscoped_padder@details@spdlog@@@details@spdlog@@@?$_Compressed_pair@U?$default_delete@Vflag_formatter@details@spdlog@@@std@@PEAVflag_formatter@details@spdlog@@$00@std@@QEAA@U_One_then_variadic_args_t@1@$$QEAU?$default_delete@V?$short_level_formatter@Vscoped_padder@details@spdlog@@@details@spdlog@@@1@$$QEAPEAV?$short_level_formatter@Vscoped_padder@details@spdlog@@@details@spdlog@@@Z
	??$?0U?$default_delete@V?$source_filename_formatter@Unull_scoped_padder@details@spdlog@@@details@spdlog@@@std@@$0A@@?$unique_ptr@V?$source_filename_formatter@Unull_scoped_padder@details@spdlog@@@details@spdlog@@U?$default_delete@V?$source_filename_formatter@Unull_scoped_padder@details@spdlog@@@details@spdlog@@@std@@@std@@QEAA@PEAV?$source_filename_formatter@Unull_scoped_padder@details@spdlog@@@details@spdlog@@@Z
	??$?0U?$default_delete@V?$source_filename_formatter@Unull_scoped_padder@details@spdlog@@@details@spdlog@@@std@@PEAV?$source_filename_formatter@Unull_scoped_padder@details@spdlog@@@details@spdlog@@@?$_Compressed_pair@U?$default_delete@Vflag_formatter@details@spdlog@@@std@@PEAVflag_formatter@details@spdlog@@$00@std@@QEAA@U_One_then_variadic_args_t@1@$$QEAU?$default_delete@V?$source_filename_formatter@Unull_scoped_padder@details@spdlog@@@details@spdlog@@@1@$$QEAPEAV?$source_filename_formatter@Unull_scoped_padder@details@spdlog@@@details@spdlog@@@Z
	??$?0U?$default_delete@V?$source_filename_formatter@Vscoped_padder@details@spdlog@@@details@spdlog@@@std@@$0A@@?$unique_ptr@V?$source_filename_formatter@Vscoped_padder@details@spdlog@@@details@spdlog@@U?$default_delete@V?$source_filename_formatter@Vscoped_padder@details@spdlog@@@details@spdlog@@@std@@@std@@QEAA@PEAV?$source_filename_formatter@Vscoped_padder@details@spdlog@@@details@spdlog@@@Z
	??$?0U?$default_delete@V?$source_filename_formatter@Vscoped_padder@details@spdlog@@@details@spdlog@@@std@@PEAV?$source_filename_formatter@Vscoped_padder@details@spdlog@@@details@spdlog@@@?$_Compressed_pair@U?$default_delete@Vflag_formatter@details@spdlog@@@std@@PEAVflag_formatter@details@spdlog@@$00@std@@QEAA@U_One_then_variadic_args_t@1@$$QEAU?$default_delete@V?$source_filename_formatter@Vscoped_padder@details@spdlog@@@details@spdlog@@@1@$$QEAPEAV?$source_filename_formatter@Vscoped_padder@details@spdlog@@@details@spdlog@@@Z
	??$?0U?$default_delete@V?$source_funcname_formatter@Unull_scoped_padder@details@spdlog@@@details@spdlog@@@std@@$0A@@?$unique_ptr@V?$source_funcname_formatter@Unull_scoped_padder@details@spdlog@@@details@spdlog@@U?$default_delete@V?$source_funcname_formatter@Unull_scoped_padder@details@spdlog@@@details@spdlog@@@std@@@std@@QEAA@PEAV?$source_funcname_formatter@Unull_scoped_padder@details@spdlog@@@details@spdlog@@@Z
	??$?0U?$default_delete@V?$source_funcname_formatter@Unull_scoped_padder@details@spdlog@@@details@spdlog@@@std@@PEAV?$source_funcname_formatter@Unull_scoped_padder@details@spdlog@@@details@spdlog@@@?$_Compressed_pair@U?$default_delete@Vflag_formatter@details@spdlog@@@std@@PEAVflag_formatter@details@spdlog@@$00@std@@QEAA@U_One_then_variadic_args_t@1@$$QEAU?$default_delete@V?$source_funcname_formatter@Unull_scoped_padder@details@spdlog@@@details@spdlog@@@1@$$QEAPEAV?$source_funcname_formatter@Unull_scoped_padder@details@spdlog@@@details@spdlog@@@Z
	??$?0U?$default_delete@V?$source_funcname_formatter@Vscoped_padder@details@spdlog@@@details@spdlog@@@std@@$0A@@?$unique_ptr@V?$source_funcname_formatter@Vscoped_padder@details@spdlog@@@details@spdlog@@U?$default_delete@V?$source_funcname_formatter@Vscoped_padder@details@spdlog@@@details@spdlog@@@std@@@std@@QEAA@PEAV?$source_funcname_formatter@Vscoped_padder@details@spdlog@@@details@spdlog@@@Z
	??$?0U?$default_delete@V?$source_funcname_formatter@Vscoped_padder@details@spdlog@@@details@spdlog@@@std@@PEAV?$source_funcname_formatter@Vscoped_padder@details@spdlog@@@details@spdlog@@@?$_Compressed_pair@U?$default_delete@Vflag_formatter@details@spdlog@@@std@@PEAVflag_formatter@details@spdlog@@$00@std@@QEAA@U_One_then_variadic_args_t@1@$$QEAU?$default_delete@V?$source_funcname_formatter@Vscoped_padder@details@spdlog@@@details@spdlog@@@1@$$QEAPEAV?$source_funcname_formatter@Vscoped_padder@details@spdlog@@@details@spdlog@@@Z
	??$?0U?$default_delete@V?$source_linenum_formatter@Unull_scoped_padder@details@spdlog@@@details@spdlog@@@std@@$0A@@?$unique_ptr@V?$source_linenum_formatter@Unull_scoped_padder@details@spdlog@@@details@spdlog@@U?$default_delete@V?$source_linenum_formatter@Unull_scoped_padder@details@spdlog@@@details@spdlog@@@std@@@std@@QEAA@PEAV?$source_linenum_formatter@Unull_scoped_padder@details@spdlog@@@details@spdlog@@@Z
	??$?0U?$default_delete@V?$source_linenum_formatter@Unull_scoped_padder@details@spdlog@@@details@spdlog@@@std@@PEAV?$source_linenum_formatter@Unull_scoped_padder@details@spdlog@@@details@spdlog@@@?$_Compressed_pair@U?$default_delete@Vflag_formatter@details@spdlog@@@std@@PEAVflag_formatter@details@spdlog@@$00@std@@QEAA@U_One_then_variadic_args_t@1@$$QEAU?$default_delete@V?$source_linenum_formatter@Unull_scoped_padder@details@spdlog@@@details@spdlog@@@1@$$QEAPEAV?$source_linenum_formatter@Unull_scoped_padder@details@spdlog@@@details@spdlog@@@Z
	??$?0U?$default_delete@V?$source_linenum_formatter@Vscoped_padder@details@spdlog@@@details@spdlog@@@std@@$0A@@?$unique_ptr@V?$source_linenum_formatter@Vscoped_padder@details@spdlog@@@details@spdlog@@U?$default_delete@V?$source_linenum_formatter@Vscoped_padder@details@spdlog@@@details@spdlog@@@std@@@std@@QEAA@PEAV?$source_linenum_formatter@Vscoped_padder@details@spdlog@@@details@spdlog@@@Z
	??$?0U?$default_delete@V?$source_linenum_formatter@Vscoped_padder@details@spdlog@@@details@spdlog@@@std@@PEAV?$source_linenum_formatter@Vscoped_padder@details@spdlog@@@details@spdlog@@@?$_Compressed_pair@U?$default_delete@Vflag_formatter@details@spdlog@@@std@@PEAVflag_formatter@details@spdlog@@$00@std@@QEAA@U_One_then_variadic_args_t@1@$$QEAU?$default_delete@V?$source_linenum_formatter@Vscoped_padder@details@spdlog@@@details@spdlog@@@1@$$QEAPEAV?$source_linenum_formatter@Vscoped_padder@details@spdlog@@@details@spdlog@@@Z
	??$?0U?$default_delete@V?$source_location_formatter@Unull_scoped_padder@details@spdlog@@@details@spdlog@@@std@@$0A@@?$unique_ptr@V?$source_location_formatter@Unull_scoped_padder@details@spdlog@@@details@spdlog@@U?$default_delete@V?$source_location_formatter@Unull_scoped_padder@details@spdlog@@@details@spdlog@@@std@@@std@@QEAA@PEAV?$source_location_formatter@Unull_scoped_padder@details@spdlog@@@details@spdlog@@@Z
	??$?0U?$default_delete@V?$source_location_formatter@Unull_scoped_padder@details@spdlog@@@details@spdlog@@@std@@PEAV?$source_location_formatter@Unull_scoped_padder@details@spdlog@@@details@spdlog@@@?$_Compressed_pair@U?$default_delete@Vflag_formatter@details@spdlog@@@std@@PEAVflag_formatter@details@spdlog@@$00@std@@QEAA@U_One_then_variadic_args_t@1@$$QEAU?$default_delete@V?$source_location_formatter@Unull_scoped_padder@details@spdlog@@@details@spdlog@@@1@$$QEAPEAV?$source_location_formatter@Unull_scoped_padder@details@spdlog@@@details@spdlog@@@Z
	??$?0U?$default_delete@V?$source_location_formatter@Vscoped_padder@details@spdlog@@@details@spdlog@@@std@@$0A@@?$unique_ptr@V?$source_location_formatter@Vscoped_padder@details@spdlog@@@details@spdlog@@U?$default_delete@V?$source_location_formatter@Vscoped_padder@details@spdlog@@@details@spdlog@@@std@@@std@@QEAA@PEAV?$source_location_formatter@Vscoped_padder@details@spdlog@@@details@spdlog@@@Z
	??$?0U?$default_delete@V?$source_location_formatter@Vscoped_padder@details@spdlog@@@details@spdlog@@@std@@PEAV?$source_location_formatter@Vscoped_padder@details@spdlog@@@details@spdlog@@@?$_Compressed_pair@U?$default_delete@Vflag_formatter@details@spdlog@@@std@@PEAVflag_formatter@details@spdlog@@$00@std@@QEAA@U_One_then_variadic_args_t@1@$$QEAU?$default_delete@V?$source_location_formatter@Vscoped_padder@details@spdlog@@@details@spdlog@@@1@$$QEAPEAV?$source_location_formatter@Vscoped_padder@details@spdlog@@@details@spdlog@@@Z
	??$?0U?$default_delete@V?$t_formatter@Unull_scoped_padder@details@spdlog@@@details@spdlog@@@std@@$0A@@?$unique_ptr@V?$t_formatter@Unull_scoped_padder@details@spdlog@@@details@spdlog@@U?$default_delete@V?$t_formatter@Unull_scoped_padder@details@spdlog@@@details@spdlog@@@std@@@std@@QEAA@PEAV?$t_formatter@Unull_scoped_padder@details@spdlog@@@details@spdlog@@@Z
	??$?0U?$default_delete@V?$t_formatter@Unull_scoped_padder@details@spdlog@@@details@spdlog@@@std@@PEAV?$t_formatter@Unull_scoped_padder@details@spdlog@@@details@spdlog@@@?$_Compressed_pair@U?$default_delete@Vflag_formatter@details@spdlog@@@std@@PEAVflag_formatter@details@spdlog@@$00@std@@QEAA@U_One_then_variadic_args_t@1@$$QEAU?$default_delete@V?$t_formatter@Unull_scoped_padder@details@spdlog@@@details@spdlog@@@1@$$QEAPEAV?$t_formatter@Unull_scoped_padder@details@spdlog@@@details@spdlog@@@Z
	??$?0U?$default_delete@V?$t_formatter@Vscoped_padder@details@spdlog@@@details@spdlog@@@std@@$0A@@?$unique_ptr@V?$t_formatter@Vscoped_padder@details@spdlog@@@details@spdlog@@U?$default_delete@V?$t_formatter@Vscoped_padder@details@spdlog@@@details@spdlog@@@std@@@std@@QEAA@PEAV?$t_formatter@Vscoped_padder@details@spdlog@@@details@spdlog@@@Z
	??$?0U?$default_delete@V?$t_formatter@Vscoped_padder@details@spdlog@@@details@spdlog@@@std@@PEAV?$t_formatter@Vscoped_padder@details@spdlog@@@details@spdlog@@@?$_Compressed_pair@U?$default_delete@Vflag_formatter@details@spdlog@@@std@@PEAVflag_formatter@details@spdlog@@$00@std@@QEAA@U_One_then_variadic_args_t@1@$$QEAU?$default_delete@V?$t_formatter@Vscoped_padder@details@spdlog@@@details@spdlog@@@1@$$QEAPEAV?$t_formatter@Vscoped_padder@details@spdlog@@@details@spdlog@@@Z
	??$?0U?$default_delete@V?$v_formatter@Unull_scoped_padder@details@spdlog@@@details@spdlog@@@std@@$0A@@?$unique_ptr@V?$v_formatter@Unull_scoped_padder@details@spdlog@@@details@spdlog@@U?$default_delete@V?$v_formatter@Unull_scoped_padder@details@spdlog@@@details@spdlog@@@std@@@std@@QEAA@PEAV?$v_formatter@Unull_scoped_padder@details@spdlog@@@details@spdlog@@@Z
	??$?0U?$default_delete@V?$v_formatter@Unull_scoped_padder@details@spdlog@@@details@spdlog@@@std@@PEAV?$v_formatter@Unull_scoped_padder@details@spdlog@@@details@spdlog@@@?$_Compressed_pair@U?$default_delete@Vflag_formatter@details@spdlog@@@std@@PEAVflag_formatter@details@spdlog@@$00@std@@QEAA@U_One_then_variadic_args_t@1@$$QEAU?$default_delete@V?$v_formatter@Unull_scoped_padder@details@spdlog@@@details@spdlog@@@1@$$QEAPEAV?$v_formatter@Unull_scoped_padder@details@spdlog@@@details@spdlog@@@Z
	??$?0U?$default_delete@V?$v_formatter@Vscoped_padder@details@spdlog@@@details@spdlog@@@std@@$0A@@?$unique_ptr@V?$v_formatter@Vscoped_padder@details@spdlog@@@details@spdlog@@U?$default_delete@V?$v_formatter@Vscoped_padder@details@spdlog@@@details@spdlog@@@std@@@std@@QEAA@PEAV?$v_formatter@Vscoped_padder@details@spdlog@@@details@spdlog@@@Z
	??$?0U?$default_delete@V?$v_formatter@Vscoped_padder@details@spdlog@@@details@spdlog@@@std@@PEAV?$v_formatter@Vscoped_padder@details@spdlog@@@details@spdlog@@@?$_Compressed_pair@U?$default_delete@Vflag_formatter@details@spdlog@@@std@@PEAVflag_formatter@details@spdlog@@$00@std@@QEAA@U_One_then_variadic_args_t@1@$$QEAU?$default_delete@V?$v_formatter@Vscoped_padder@details@spdlog@@@details@spdlog@@@1@$$QEAPEAV?$v_formatter@Vscoped_padder@details@spdlog@@@details@spdlog@@@Z
	??$?0U?$default_delete@V?$z_formatter@Unull_scoped_padder@details@spdlog@@@details@spdlog@@@std@@$0A@@?$unique_ptr@V?$z_formatter@Unull_scoped_padder@details@spdlog@@@details@spdlog@@U?$default_delete@V?$z_formatter@Unull_scoped_padder@details@spdlog@@@details@spdlog@@@std@@@std@@QEAA@PEAV?$z_formatter@Unull_scoped_padder@details@spdlog@@@details@spdlog@@@Z
	??$?0U?$default_delete@V?$z_formatter@Unull_scoped_padder@details@spdlog@@@details@spdlog@@@std@@PEAV?$z_formatter@Unull_scoped_padder@details@spdlog@@@details@spdlog@@@?$_Compressed_pair@U?$default_delete@Vflag_formatter@details@spdlog@@@std@@PEAVflag_formatter@details@spdlog@@$00@std@@QEAA@U_One_then_variadic_args_t@1@$$QEAU?$default_delete@V?$z_formatter@Unull_scoped_padder@details@spdlog@@@details@spdlog@@@1@$$QEAPEAV?$z_formatter@Unull_scoped_padder@details@spdlog@@@details@spdlog@@@Z
	??$?0U?$default_delete@V?$z_formatter@Vscoped_padder@details@spdlog@@@details@spdlog@@@std@@$0A@@?$unique_ptr@V?$z_formatter@Vscoped_padder@details@spdlog@@@details@spdlog@@U?$default_delete@V?$z_formatter@Vscoped_padder@details@spdlog@@@details@spdlog@@@std@@@std@@QEAA@PEAV?$z_formatter@Vscoped_padder@details@spdlog@@@details@spdlog@@@Z
	??$?0U?$default_delete@V?$z_formatter@Vscoped_padder@details@spdlog@@@details@spdlog@@@std@@PEAV?$z_formatter@Vscoped_padder@details@spdlog@@@details@spdlog@@@?$_Compressed_pair@U?$default_delete@Vflag_formatter@details@spdlog@@@std@@PEAVflag_formatter@details@spdlog@@$00@std@@QEAA@U_One_then_variadic_args_t@1@$$QEAU?$default_delete@V?$z_formatter@Vscoped_padder@details@spdlog@@@details@spdlog@@@1@$$QEAPEAV?$z_formatter@Vscoped_padder@details@spdlog@@@details@spdlog@@@Z
	??$?0U?$default_delete@V_Facet_base@std@@@std@@$0A@@?$unique_ptr@V_Facet_base@std@@U?$default_delete@V_Facet_base@std@@@2@@std@@QEAA@PEAV_Facet_base@1@@Z
	??$?0U?$default_delete@Vaggregate_formatter@details@spdlog@@@std@@$0A@@?$unique_ptr@Vaggregate_formatter@details@spdlog@@U?$default_delete@Vaggregate_formatter@details@spdlog@@@std@@@std@@QEAA@PEAVaggregate_formatter@details@spdlog@@@Z
	??$?0U?$default_delete@Vaggregate_formatter@details@spdlog@@@std@@$0A@@?$unique_ptr@Vaggregate_formatter@details@spdlog@@U?$default_delete@Vaggregate_formatter@details@spdlog@@@std@@@std@@QEAA@XZ
	??$?0U?$default_delete@Vaggregate_formatter@details@spdlog@@@std@@PEAVaggregate_formatter@details@spdlog@@@?$_Compressed_pair@U?$default_delete@Vflag_formatter@details@spdlog@@@std@@PEAVflag_formatter@details@spdlog@@$00@std@@QEAA@U_One_then_variadic_args_t@1@$$QEAU?$default_delete@Vaggregate_formatter@details@spdlog@@@1@$$QEAPEAVaggregate_formatter@details@spdlog@@@Z
	??$?0U?$default_delete@Vch_formatter@details@spdlog@@@std@@$0A@@?$unique_ptr@Vch_formatter@details@spdlog@@U?$default_delete@Vch_formatter@details@spdlog@@@std@@@std@@QEAA@PEAVch_formatter@details@spdlog@@@Z
	??$?0U?$default_delete@Vch_formatter@details@spdlog@@@std@@PEAVch_formatter@details@spdlog@@@?$_Compressed_pair@U?$default_delete@Vflag_formatter@details@spdlog@@@std@@PEAVflag_formatter@details@spdlog@@$00@std@@QEAA@U_One_then_variadic_args_t@1@$$QEAU?$default_delete@Vch_formatter@details@spdlog@@@1@$$QEAPEAVch_formatter@details@spdlog@@@Z
	??$?0U?$default_delete@Vcolor_start_formatter@details@spdlog@@@std@@$0A@@?$unique_ptr@Vcolor_start_formatter@details@spdlog@@U?$default_delete@Vcolor_start_formatter@details@spdlog@@@std@@@std@@QEAA@PEAVcolor_start_formatter@details@spdlog@@@Z
	??$?0U?$default_delete@Vcolor_start_formatter@details@spdlog@@@std@@PEAVcolor_start_formatter@details@spdlog@@@?$_Compressed_pair@U?$default_delete@Vflag_formatter@details@spdlog@@@std@@PEAVflag_formatter@details@spdlog@@$00@std@@QEAA@U_One_then_variadic_args_t@1@$$QEAU?$default_delete@Vcolor_start_formatter@details@spdlog@@@1@$$QEAPEAVcolor_start_formatter@details@spdlog@@@Z
	??$?0U?$default_delete@Vcolor_stop_formatter@details@spdlog@@@std@@$0A@@?$unique_ptr@Vcolor_stop_formatter@details@spdlog@@U?$default_delete@Vcolor_stop_formatter@details@spdlog@@@std@@@std@@QEAA@PEAVcolor_stop_formatter@details@spdlog@@@Z
	??$?0U?$default_delete@Vcolor_stop_formatter@details@spdlog@@@std@@PEAVcolor_stop_formatter@details@spdlog@@@?$_Compressed_pair@U?$default_delete@Vflag_formatter@details@spdlog@@@std@@PEAVflag_formatter@details@spdlog@@$00@std@@QEAA@U_One_then_variadic_args_t@1@$$QEAU?$default_delete@Vcolor_stop_formatter@details@spdlog@@@1@$$QEAPEAVcolor_stop_formatter@details@spdlog@@@Z
	??$?0U?$default_delete@Vcustom_flag_formatter@spdlog@@@std@@$0A@@?$unique_ptr@Vcustom_flag_formatter@spdlog@@U?$default_delete@Vcustom_flag_formatter@spdlog@@@std@@@std@@QEAA@XZ
	??$?0U?$default_delete@Vcustom_flag_formatter@spdlog@@@std@@PEAVcustom_flag_formatter@spdlog@@@?$_Compressed_pair@U?$default_delete@Vflag_formatter@details@spdlog@@@std@@PEAVflag_formatter@details@spdlog@@$00@std@@QEAA@U_One_then_variadic_args_t@1@$$QEAU?$default_delete@Vcustom_flag_formatter@spdlog@@@1@$$QEAPEAVcustom_flag_formatter@spdlog@@@Z
	??$?0U?$default_delete@Vflag_formatter@details@spdlog@@@std@@$0A@@?$unique_ptr@Vflag_formatter@details@spdlog@@U?$default_delete@Vflag_formatter@details@spdlog@@@std@@@std@@QEAA@$$QEAV01@@Z
	??$?0U?$default_delete@Vflag_formatter@details@spdlog@@@std@@PEAVflag_formatter@details@spdlog@@@?$_Compressed_pair@U?$default_delete@Vflag_formatter@details@spdlog@@@std@@PEAVflag_formatter@details@spdlog@@$00@std@@QEAA@U_One_then_variadic_args_t@1@$$QEAU?$default_delete@Vflag_formatter@details@spdlog@@@1@$$QEAPEAVflag_formatter@details@spdlog@@@Z
	??$?0U?$default_delete@Vformatter@spdlog@@@std@@$0A@@?$unique_ptr@Vformatter@spdlog@@U?$default_delete@Vformatter@spdlog@@@std@@@std@@QEAA@$$QEAV01@@Z
	??$?0U?$default_delete@Vformatter@spdlog@@@std@@$0A@@?$unique_ptr@Vformatter@spdlog@@U?$default_delete@Vformatter@spdlog@@@std@@@std@@QEAA@PEAVformatter@spdlog@@@Z
	??$?0U?$default_delete@Vformatter@spdlog@@@std@@PEAVformatter@spdlog@@@?$_Compressed_pair@U?$default_delete@Vformatter@spdlog@@@std@@PEAVformatter@spdlog@@$00@std@@QEAA@U_One_then_variadic_args_t@1@$$QEAU?$default_delete@Vformatter@spdlog@@@1@$$QEAPEAVformatter@spdlog@@@Z
	??$?0U?$default_delete@Vfull_formatter@details@spdlog@@@std@@$0A@@?$unique_ptr@Vfull_formatter@details@spdlog@@U?$default_delete@Vfull_formatter@details@spdlog@@@std@@@std@@QEAA@PEAVfull_formatter@details@spdlog@@@Z
	??$?0U?$default_delete@Vfull_formatter@details@spdlog@@@std@@PEAVfull_formatter@details@spdlog@@@?$_Compressed_pair@U?$default_delete@Vflag_formatter@details@spdlog@@@std@@PEAVflag_formatter@details@spdlog@@$00@std@@QEAA@U_One_then_variadic_args_t@1@$$QEAU?$default_delete@Vfull_formatter@details@spdlog@@@1@$$QEAPEAVfull_formatter@details@spdlog@@@Z
	??$?0U?$default_delete@Vpattern_formatter@spdlog@@@std@@$0A@@?$unique_ptr@Vpattern_formatter@spdlog@@U?$default_delete@Vpattern_formatter@spdlog@@@std@@@std@@QEAA@PEAVpattern_formatter@spdlog@@@Z
	??$?0U?$default_delete@Vpattern_formatter@spdlog@@@std@@PEAVpattern_formatter@spdlog@@@?$_Compressed_pair@U?$default_delete@Vformatter@spdlog@@@std@@PEAVformatter@spdlog@@$00@std@@QEAA@U_One_then_variadic_args_t@1@$$QEAU?$default_delete@Vpattern_formatter@spdlog@@@1@$$QEAPEAVpattern_formatter@spdlog@@@Z
	??$?0U?$default_delete@Vperiodic_worker@details@spdlog@@@std@@$0A@@?$unique_ptr@Vperiodic_worker@details@spdlog@@U?$default_delete@Vperiodic_worker@details@spdlog@@@std@@@std@@QEAA@XZ
	??$?0U?$pair@$$CBDV?$unique_ptr@Vcustom_flag_formatter@spdlog@@U?$default_delete@Vcustom_flag_formatter@spdlog@@@std@@@std@@@std@@@?$allocator@U?$_List_node@U?$pair@$$CBDV?$unique_ptr@Vcustom_flag_formatter@spdlog@@U?$default_delete@Vcustom_flag_formatter@spdlog@@@std@@@std@@@std@@PEAX@std@@@std@@QEAA@AEBV?$allocator@U?$pair@$$CBDV?$unique_ptr@Vcustom_flag_formatter@spdlog@@U?$default_delete@Vcustom_flag_formatter@spdlog@@@std@@@std@@@std@@@1@@Z
	??$?0U?$pair@$$CBDV?$unique_ptr@Vcustom_flag_formatter@spdlog@@U?$default_delete@Vcustom_flag_formatter@spdlog@@@std@@@std@@@std@@@?$allocator@V?$_List_unchecked_iterator@V?$_List_val@U?$_List_simple_types@U?$pair@$$CBDV?$unique_ptr@Vcustom_flag_formatter@spdlog@@U?$default_delete@Vcustom_flag_formatter@spdlog@@@std@@@std@@@std@@@std@@@std@@@std@@@std@@QEAA@AEBV?$allocator@U?$pair@$$CBDV?$unique_ptr@Vcustom_flag_formatter@spdlog@@U?$default_delete@Vcustom_flag_formatter@spdlog@@@std@@@std@@@std@@@1@@Z
	??$?0U?$pair@$$CBV?$basic_string@DU?$char_traits@D@std@@V?$allocator@D@2@@std@@V?$shared_ptr@Vlogger@spdlog@@@2@@std@@@?$allocator@U?$_List_node@U?$pair@$$CBV?$basic_string@DU?$char_traits@D@std@@V?$allocator@D@2@@std@@V?$shared_ptr@Vlogger@spdlog@@@2@@std@@PEAX@std@@@std@@QEAA@AEBV?$allocator@U?$pair@$$CBV?$basic_string@DU?$char_traits@D@std@@V?$allocator@D@2@@std@@V?$shared_ptr@Vlogger@spdlog@@@2@@std@@@1@@Z
	??$?0U?$pair@$$CBV?$basic_string@DU?$char_traits@D@std@@V?$allocator@D@2@@std@@V?$shared_ptr@Vlogger@spdlog@@@2@@std@@@?$allocator@V?$_List_unchecked_iterator@V?$_List_val@U?$_List_simple_types@U?$pair@$$CBV?$basic_string@DU?$char_traits@D@std@@V?$allocator@D@2@@std@@V?$shared_ptr@Vlogger@spdlog@@@2@@std@@@std@@@std@@@std@@@std@@QEAA@AEBV?$allocator@U?$pair@$$CBV?$basic_string@DU?$char_traits@D@std@@V?$allocator@D@2@@std@@V?$shared_ptr@Vlogger@spdlog@@@2@@std@@@1@@Z
	??$?0U?$pair@$$CBV?$basic_string@DU?$char_traits@D@std@@V?$allocator@D@2@@std@@W4level_enum@level@spdlog@@@std@@@?$allocator@U?$_List_node@U?$pair@$$CBV?$basic_string@DU?$char_traits@D@std@@V?$allocator@D@2@@std@@W4level_enum@level@spdlog@@@std@@PEAX@std@@@std@@QEAA@AEBV?$allocator@U?$pair@$$CBV?$basic_string@DU?$char_traits@D@std@@V?$allocator@D@2@@std@@W4level_enum@level@spdlog@@@std@@@1@@Z
	??$?0U?$pair@$$CBV?$basic_string@DU?$char_traits@D@std@@V?$allocator@D@2@@std@@W4level_enum@level@spdlog@@@std@@@?$allocator@V?$_List_unchecked_iterator@V?$_List_val@U?$_List_simple_types@U?$pair@$$CBV?$basic_string@DU?$char_traits@D@std@@V?$allocator@D@2@@std@@W4level_enum@level@spdlog@@@std@@@std@@@std@@@std@@@std@@QEAA@AEBV?$allocator@U?$pair@$$CBV?$basic_string@DU?$char_traits@D@std@@V?$allocator@D@2@@std@@W4level_enum@level@spdlog@@@std@@@1@@Z
	??$?0UFMT_COMPILE_STRING@?1???R<lambda_1>@?6??format_error_code@detail@v11@fmt@@YAXAEAV?$buffer@D@345@HV?$basic_string_view@D@45@@Z@QEBA@XZ@$0A@@?$fstring@AEAV?$basic_string_view@D@v11@fmt@@AEAY02$$CBD@v11@fmt@@QEAA@AEBUFMT_COMPILE_STRING@?1???R<lambda_1>@?6??format_error_code@detail@12@YAXAEAV?$buffer@D@612@HV?$basic_string_view@D@12@@Z@QEBA@XZ@@Z
	??$?0UFMT_COMPILE_STRING@?1???R<lambda_1>@?6??pad2@fmt_helper@details@spdlog@@YAXHAEAV?$basic_memory_buffer@D$0PK@U?$allocator@D@detail@v11@fmt@@@v11@fmt@@@Z@QEBA@XZ@$0A@@?$fstring@AEAH@v11@fmt@@QEAA@AEBUFMT_COMPILE_STRING@?1???R<lambda_1>@?6??pad2@fmt_helper@details@spdlog@@YAXHAEAV?$basic_memory_buffer@D$0PK@U?$allocator@D@detail@v11@fmt@@@12@@Z@QEBA@XZ@@Z
	??$?0UFMT_COMPILE_STRING@?1???R<lambda_1>@?L@??flush_@logger@spdlog@@MEAAXXZ@QEBA@XZ@$0A@@?$fstring@PEBDPEBDH@v11@fmt@@QEAA@AEBUFMT_COMPILE_STRING@?1???R<lambda_1>@?L@??flush_@logger@spdlog@@MEAAXXZ@QEBA@XZ@@Z
	??$?0UFMT_COMPILE_STRING@?1???R<lambda_1>@?O@??sink_it_@logger@spdlog@@MEAAXAEBUlog_msg@details@4@@Z@QEBA@XZ@$0A@@?$fstring@PEBDAEBQEBDAEBH@v11@fmt@@QEAA@AEBUFMT_COMPILE_STRING@?1???R<lambda_1>@?O@??sink_it_@logger@spdlog@@MEAAXAEBUlog_msg@details@7@@Z@QEBA@XZ@@Z
	??$?0UFMT_COMPILE_STRING@?1???R<lambda_2>@?1??format_error_code@detail@v11@fmt@@YAXAEAV?$buffer@D@345@HV?$basic_string_view@D@45@@Z@QEBA@XZ@$0A@@?$fstring@AEAY06$$CBDAEAH@v11@fmt@@QEAA@AEBUFMT_COMPILE_STRING@?1???R<lambda_2>@?1??format_error_code@detail@12@YAXAEAV?$buffer@D@612@HV?$basic_string_view@D@12@@Z@QEBA@XZ@@Z
	??$?0U_Exact_args_t@std@@$0A@@?$tuple@$$V@std@@QEAA@U_Exact_args_t@1@@Z
	??$?0U_Exact_args_t@std@@AEBD$$V$0A@@?$tuple@AEBD@std@@QEAA@U_Exact_args_t@1@AEBD@Z
	??$?0U_Exact_args_t@std@@AEBV?$basic_string@DU?$char_traits@D@std@@V?$allocator@D@2@@1@$$V$0A@@?$tuple@AEBV?$basic_string@DU?$char_traits@D@std@@V?$allocator@D@2@@std@@@std@@QEAA@U_Exact_args_t@1@AEBV?$basic_string@DU?$char_traits@D@std@@V?$allocator@D@2@@1@@Z
	??$?0U_Exact_args_t@std@@V?$basic_string@DU?$char_traits@D@std@@V?$allocator@D@2@@1@$$V$0A@@?$tuple@$$QEAV?$basic_string@DU?$char_traits@D@std@@V?$allocator@D@2@@std@@@std@@QEAA@U_Exact_args_t@1@$$QEAV?$basic_string@DU?$char_traits@D@std@@V?$allocator@D@2@@1@@Z
	??$?0U_Move_allocator_tag@std@@V?$allocator@U?$_List_node@U?$pair@$$CBDV?$unique_ptr@Vcustom_flag_formatter@spdlog@@U?$default_delete@Vcustom_flag_formatter@spdlog@@@std@@@std@@@std@@PEAX@std@@@1@$0A@@?$list@U?$pair@$$CBDV?$unique_ptr@Vcustom_flag_formatter@spdlog@@U?$default_delete@Vcustom_flag_formatter@spdlog@@@std@@@std@@@std@@V?$allocator@U?$pair@$$CBDV?$unique_ptr@Vcustom_flag_formatter@spdlog@@U?$default_delete@Vcustom_flag_formatter@spdlog@@@std@@@std@@@std@@@2@@std@@AEAA@U_Move_allocator_tag@1@AEAV?$allocator@U?$_List_node@U?$pair@$$CBDV?$unique_ptr@Vcustom_flag_formatter@spdlog@@U?$default_delete@Vcustom_flag_formatter@spdlog@@@std@@@std@@@std@@PEAX@std@@@1@@Z
	??$?0U_Zero_then_variadic_args_t@std@@M@?$_Compressed_pair@U?$hash@D@std@@V?$_Compressed_pair@U?$equal_to@D@std@@M$00@2@$00@std@@QEAA@U_Zero_then_variadic_args_t@1@$$QEAU21@$$QEAM@Z
	??$?0U_Zero_then_variadic_args_t@std@@M@?$_Compressed_pair@U?$hash@V?$basic_string@DU?$char_traits@D@std@@V?$allocator@D@2@@std@@@std@@V?$_Compressed_pair@U?$equal_to@V?$basic_string@DU?$char_traits@D@std@@V?$allocator@D@2@@std@@@std@@M$00@2@$00@std@@QEAA@U_Zero_then_variadic_args_t@1@$$QEAU21@$$QEAM@Z
	??$?0Ulocale_ref@detail@v11@fmt@@$0A@@?$digit_grouping@D@detail@v11@fmt@@QEAA@Ulocale_ref@123@_N@Z
	??$?0V?$A_formatter@Unull_scoped_padder@details@spdlog@@@details@spdlog@@$0A@@?$default_delete@Vflag_formatter@details@spdlog@@@std@@QEAA@AEBU?$default_delete@V?$A_formatter@Unull_scoped_padder@details@spdlog@@@details@spdlog@@@1@@Z
	??$?0V?$A_formatter@Unull_scoped_padder@details@spdlog@@@details@spdlog@@U?$default_delete@V?$A_formatter@Unull_scoped_padder@details@spdlog@@@details@spdlog@@@std@@$0A@@?$unique_ptr@Vflag_formatter@details@spdlog@@U?$default_delete@Vflag_formatter@details@spdlog@@@std@@@std@@QEAA@$$QEAV?$unique_ptr@V?$A_formatter@Unull_scoped_padder@details@spdlog@@@details@spdlog@@U?$default_delete@V?$A_formatter@Unull_scoped_padder@details@spdlog@@@details@spdlog@@@std@@@1@@Z
	??$?0V?$A_formatter@Vscoped_padder@details@spdlog@@@details@spdlog@@$0A@@?$default_delete@Vflag_formatter@details@spdlog@@@std@@QEAA@AEBU?$default_delete@V?$A_formatter@Vscoped_padder@details@spdlog@@@details@spdlog@@@1@@Z
	??$?0V?$A_formatter@Vscoped_padder@details@spdlog@@@details@spdlog@@U?$default_delete@V?$A_formatter@Vscoped_padder@details@spdlog@@@details@spdlog@@@std@@$0A@@?$unique_ptr@Vflag_formatter@details@spdlog@@U?$default_delete@Vflag_formatter@details@spdlog@@@std@@@std@@QEAA@$$QEAV?$unique_ptr@V?$A_formatter@Vscoped_padder@details@spdlog@@@details@spdlog@@U?$default_delete@V?$A_formatter@Vscoped_padder@details@spdlog@@@details@spdlog@@@std@@@1@@Z
	??$?0V?$B_formatter@Unull_scoped_padder@details@spdlog@@@details@spdlog@@$0A@@?$default_delete@Vflag_formatter@details@spdlog@@@std@@QEAA@AEBU?$default_delete@V?$B_formatter@Unull_scoped_padder@details@spdlog@@@details@spdlog@@@1@@Z
	??$?0V?$B_formatter@Unull_scoped_padder@details@spdlog@@@details@spdlog@@U?$default_delete@V?$B_formatter@Unull_scoped_padder@details@spdlog@@@details@spdlog@@@std@@$0A@@?$unique_ptr@Vflag_formatter@details@spdlog@@U?$default_delete@Vflag_formatter@details@spdlog@@@std@@@std@@QEAA@$$QEAV?$unique_ptr@V?$B_formatter@Unull_scoped_padder@details@spdlog@@@details@spdlog@@U?$default_delete@V?$B_formatter@Unull_scoped_padder@details@spdlog@@@details@spdlog@@@std@@@1@@Z
	??$?0V?$B_formatter@Vscoped_padder@details@spdlog@@@details@spdlog@@$0A@@?$default_delete@Vflag_formatter@details@spdlog@@@std@@QEAA@AEBU?$default_delete@V?$B_formatter@Vscoped_padder@details@spdlog@@@details@spdlog@@@1@@Z
	??$?0V?$B_formatter@Vscoped_padder@details@spdlog@@@details@spdlog@@U?$default_delete@V?$B_formatter@Vscoped_padder@details@spdlog@@@details@spdlog@@@std@@$0A@@?$unique_ptr@Vflag_formatter@details@spdlog@@U?$default_delete@Vflag_formatter@details@spdlog@@@std@@@std@@QEAA@$$QEAV?$unique_ptr@V?$B_formatter@Vscoped_padder@details@spdlog@@@details@spdlog@@U?$default_delete@V?$B_formatter@Vscoped_padder@details@spdlog@@@details@spdlog@@@std@@@1@@Z
	??$?0V?$C_formatter@Unull_scoped_padder@details@spdlog@@@details@spdlog@@$0A@@?$default_delete@Vflag_formatter@details@spdlog@@@std@@QEAA@AEBU?$default_delete@V?$C_formatter@Unull_scoped_padder@details@spdlog@@@details@spdlog@@@1@@Z
	??$?0V?$C_formatter@Unull_scoped_padder@details@spdlog@@@details@spdlog@@U?$default_delete@V?$C_formatter@Unull_scoped_padder@details@spdlog@@@details@spdlog@@@std@@$0A@@?$unique_ptr@Vflag_formatter@details@spdlog@@U?$default_delete@Vflag_formatter@details@spdlog@@@std@@@std@@QEAA@$$QEAV?$unique_ptr@V?$C_formatter@Unull_scoped_padder@details@spdlog@@@details@spdlog@@U?$default_delete@V?$C_formatter@Unull_scoped_padder@details@spdlog@@@details@spdlog@@@std@@@1@@Z
	??$?0V?$C_formatter@Vscoped_padder@details@spdlog@@@details@spdlog@@$0A@@?$default_delete@Vflag_formatter@details@spdlog@@@std@@QEAA@AEBU?$default_delete@V?$C_formatter@Vscoped_padder@details@spdlog@@@details@spdlog@@@1@@Z
	??$?0V?$C_formatter@Vscoped_padder@details@spdlog@@@details@spdlog@@U?$default_delete@V?$C_formatter@Vscoped_padder@details@spdlog@@@details@spdlog@@@std@@$0A@@?$unique_ptr@Vflag_formatter@details@spdlog@@U?$default_delete@Vflag_formatter@details@spdlog@@@std@@@std@@QEAA@$$QEAV?$unique_ptr@V?$C_formatter@Vscoped_padder@details@spdlog@@@details@spdlog@@U?$default_delete@V?$C_formatter@Vscoped_padder@details@spdlog@@@details@spdlog@@@std@@@1@@Z
	??$?0V?$D_formatter@Unull_scoped_padder@details@spdlog@@@details@spdlog@@$0A@@?$default_delete@Vflag_formatter@details@spdlog@@@std@@QEAA@AEBU?$default_delete@V?$D_formatter@Unull_scoped_padder@details@spdlog@@@details@spdlog@@@1@@Z
	??$?0V?$D_formatter@Unull_scoped_padder@details@spdlog@@@details@spdlog@@U?$default_delete@V?$D_formatter@Unull_scoped_padder@details@spdlog@@@details@spdlog@@@std@@$0A@@?$unique_ptr@Vflag_formatter@details@spdlog@@U?$default_delete@Vflag_formatter@details@spdlog@@@std@@@std@@QEAA@$$QEAV?$unique_ptr@V?$D_formatter@Unull_scoped_padder@details@spdlog@@@details@spdlog@@U?$default_delete@V?$D_formatter@Unull_scoped_padder@details@spdlog@@@details@spdlog@@@std@@@1@@Z
	??$?0V?$D_formatter@Vscoped_padder@details@spdlog@@@details@spdlog@@$0A@@?$default_delete@Vflag_formatter@details@spdlog@@@std@@QEAA@AEBU?$default_delete@V?$D_formatter@Vscoped_padder@details@spdlog@@@details@spdlog@@@1@@Z
	??$?0V?$D_formatter@Vscoped_padder@details@spdlog@@@details@spdlog@@U?$default_delete@V?$D_formatter@Vscoped_padder@details@spdlog@@@details@spdlog@@@std@@$0A@@?$unique_ptr@Vflag_formatter@details@spdlog@@U?$default_delete@Vflag_formatter@details@spdlog@@@std@@@std@@QEAA@$$QEAV?$unique_ptr@V?$D_formatter@Vscoped_padder@details@spdlog@@@details@spdlog@@U?$default_delete@V?$D_formatter@Vscoped_padder@details@spdlog@@@details@spdlog@@@std@@@1@@Z
	??$?0V?$E_formatter@Unull_scoped_padder@details@spdlog@@@details@spdlog@@$0A@@?$default_delete@Vflag_formatter@details@spdlog@@@std@@QEAA@AEBU?$default_delete@V?$E_formatter@Unull_scoped_padder@details@spdlog@@@details@spdlog@@@1@@Z
	??$?0V?$E_formatter@Unull_scoped_padder@details@spdlog@@@details@spdlog@@U?$default_delete@V?$E_formatter@Unull_scoped_padder@details@spdlog@@@details@spdlog@@@std@@$0A@@?$unique_ptr@Vflag_formatter@details@spdlog@@U?$default_delete@Vflag_formatter@details@spdlog@@@std@@@std@@QEAA@$$QEAV?$unique_ptr@V?$E_formatter@Unull_scoped_padder@details@spdlog@@@details@spdlog@@U?$default_delete@V?$E_formatter@Unull_scoped_padder@details@spdlog@@@details@spdlog@@@std@@@1@@Z
	??$?0V?$E_formatter@Vscoped_padder@details@spdlog@@@details@spdlog@@$0A@@?$default_delete@Vflag_formatter@details@spdlog@@@std@@QEAA@AEBU?$default_delete@V?$E_formatter@Vscoped_padder@details@spdlog@@@details@spdlog@@@1@@Z
	??$?0V?$E_formatter@Vscoped_padder@details@spdlog@@@details@spdlog@@U?$default_delete@V?$E_formatter@Vscoped_padder@details@spdlog@@@details@spdlog@@@std@@$0A@@?$unique_ptr@Vflag_formatter@details@spdlog@@U?$default_delete@Vflag_formatter@details@spdlog@@@std@@@std@@QEAA@$$QEAV?$unique_ptr@V?$E_formatter@Vscoped_padder@details@spdlog@@@details@spdlog@@U?$default_delete@V?$E_formatter@Vscoped_padder@details@spdlog@@@details@spdlog@@@std@@@1@@Z
	??$?0V?$F_formatter@Unull_scoped_padder@details@spdlog@@@details@spdlog@@$0A@@?$default_delete@Vflag_formatter@details@spdlog@@@std@@QEAA@AEBU?$default_delete@V?$F_formatter@Unull_scoped_padder@details@spdlog@@@details@spdlog@@@1@@Z
	??$?0V?$F_formatter@Unull_scoped_padder@details@spdlog@@@details@spdlog@@U?$default_delete@V?$F_formatter@Unull_scoped_padder@details@spdlog@@@details@spdlog@@@std@@$0A@@?$unique_ptr@Vflag_formatter@details@spdlog@@U?$default_delete@Vflag_formatter@details@spdlog@@@std@@@std@@QEAA@$$QEAV?$unique_ptr@V?$F_formatter@Unull_scoped_padder@details@spdlog@@@details@spdlog@@U?$default_delete@V?$F_formatter@Unull_scoped_padder@details@spdlog@@@details@spdlog@@@std@@@1@@Z
	??$?0V?$F_formatter@Vscoped_padder@details@spdlog@@@details@spdlog@@$0A@@?$default_delete@Vflag_formatter@details@spdlog@@@std@@QEAA@AEBU?$default_delete@V?$F_formatter@Vscoped_padder@details@spdlog@@@details@spdlog@@@1@@Z
	??$?0V?$F_formatter@Vscoped_padder@details@spdlog@@@details@spdlog@@U?$default_delete@V?$F_formatter@Vscoped_padder@details@spdlog@@@details@spdlog@@@std@@$0A@@?$unique_ptr@Vflag_formatter@details@spdlog@@U?$default_delete@Vflag_formatter@details@spdlog@@@std@@@std@@QEAA@$$QEAV?$unique_ptr@V?$F_formatter@Vscoped_padder@details@spdlog@@@details@spdlog@@U?$default_delete@V?$F_formatter@Vscoped_padder@details@spdlog@@@details@spdlog@@@std@@@1@@Z
	??$?0V?$H_formatter@Unull_scoped_padder@details@spdlog@@@details@spdlog@@$0A@@?$default_delete@Vflag_formatter@details@spdlog@@@std@@QEAA@AEBU?$default_delete@V?$H_formatter@Unull_scoped_padder@details@spdlog@@@details@spdlog@@@1@@Z
	??$?0V?$H_formatter@Unull_scoped_padder@details@spdlog@@@details@spdlog@@U?$default_delete@V?$H_formatter@Unull_scoped_padder@details@spdlog@@@details@spdlog@@@std@@$0A@@?$unique_ptr@Vflag_formatter@details@spdlog@@U?$default_delete@Vflag_formatter@details@spdlog@@@std@@@std@@QEAA@$$QEAV?$unique_ptr@V?$H_formatter@Unull_scoped_padder@details@spdlog@@@details@spdlog@@U?$default_delete@V?$H_formatter@Unull_scoped_padder@details@spdlog@@@details@spdlog@@@std@@@1@@Z
	??$?0V?$H_formatter@Vscoped_padder@details@spdlog@@@details@spdlog@@$0A@@?$default_delete@Vflag_formatter@details@spdlog@@@std@@QEAA@AEBU?$default_delete@V?$H_formatter@Vscoped_padder@details@spdlog@@@details@spdlog@@@1@@Z
	??$?0V?$H_formatter@Vscoped_padder@details@spdlog@@@details@spdlog@@U?$default_delete@V?$H_formatter@Vscoped_padder@details@spdlog@@@details@spdlog@@@std@@$0A@@?$unique_ptr@Vflag_formatter@details@spdlog@@U?$default_delete@Vflag_formatter@details@spdlog@@@std@@@std@@QEAA@$$QEAV?$unique_ptr@V?$H_formatter@Vscoped_padder@details@spdlog@@@details@spdlog@@U?$default_delete@V?$H_formatter@Vscoped_padder@details@spdlog@@@details@spdlog@@@std@@@1@@Z
	??$?0V?$I_formatter@Unull_scoped_padder@details@spdlog@@@details@spdlog@@$0A@@?$default_delete@Vflag_formatter@details@spdlog@@@std@@QEAA@AEBU?$default_delete@V?$I_formatter@Unull_scoped_padder@details@spdlog@@@details@spdlog@@@1@@Z
	??$?0V?$I_formatter@Unull_scoped_padder@details@spdlog@@@details@spdlog@@U?$default_delete@V?$I_formatter@Unull_scoped_padder@details@spdlog@@@details@spdlog@@@std@@$0A@@?$unique_ptr@Vflag_formatter@details@spdlog@@U?$default_delete@Vflag_formatter@details@spdlog@@@std@@@std@@QEAA@$$QEAV?$unique_ptr@V?$I_formatter@Unull_scoped_padder@details@spdlog@@@details@spdlog@@U?$default_delete@V?$I_formatter@Unull_scoped_padder@details@spdlog@@@details@spdlog@@@std@@@1@@Z
	??$?0V?$I_formatter@Vscoped_padder@details@spdlog@@@details@spdlog@@$0A@@?$default_delete@Vflag_formatter@details@spdlog@@@std@@QEAA@AEBU?$default_delete@V?$I_formatter@Vscoped_padder@details@spdlog@@@details@spdlog@@@1@@Z
	??$?0V?$I_formatter@Vscoped_padder@details@spdlog@@@details@spdlog@@U?$default_delete@V?$I_formatter@Vscoped_padder@details@spdlog@@@details@spdlog@@@std@@$0A@@?$unique_ptr@Vflag_formatter@details@spdlog@@U?$default_delete@Vflag_formatter@details@spdlog@@@std@@@std@@QEAA@$$QEAV?$unique_ptr@V?$I_formatter@Vscoped_padder@details@spdlog@@@details@spdlog@@U?$default_delete@V?$I_formatter@Vscoped_padder@details@spdlog@@@details@spdlog@@@std@@@1@@Z
	??$?0V?$M_formatter@Unull_scoped_padder@details@spdlog@@@details@spdlog@@$0A@@?$default_delete@Vflag_formatter@details@spdlog@@@std@@QEAA@AEBU?$default_delete@V?$M_formatter@Unull_scoped_padder@details@spdlog@@@details@spdlog@@@1@@Z
	??$?0V?$M_formatter@Unull_scoped_padder@details@spdlog@@@details@spdlog@@U?$default_delete@V?$M_formatter@Unull_scoped_padder@details@spdlog@@@details@spdlog@@@std@@$0A@@?$unique_ptr@Vflag_formatter@details@spdlog@@U?$default_delete@Vflag_formatter@details@spdlog@@@std@@@std@@QEAA@$$QEAV?$unique_ptr@V?$M_formatter@Unull_scoped_padder@details@spdlog@@@details@spdlog@@U?$default_delete@V?$M_formatter@Unull_scoped_padder@details@spdlog@@@details@spdlog@@@std@@@1@@Z
	??$?0V?$M_formatter@Vscoped_padder@details@spdlog@@@details@spdlog@@$0A@@?$default_delete@Vflag_formatter@details@spdlog@@@std@@QEAA@AEBU?$default_delete@V?$M_formatter@Vscoped_padder@details@spdlog@@@details@spdlog@@@1@@Z
	??$?0V?$M_formatter@Vscoped_padder@details@spdlog@@@details@spdlog@@U?$default_delete@V?$M_formatter@Vscoped_padder@details@spdlog@@@details@spdlog@@@std@@$0A@@?$unique_ptr@Vflag_formatter@details@spdlog@@U?$default_delete@Vflag_formatter@details@spdlog@@@std@@@std@@QEAA@$$QEAV?$unique_ptr@V?$M_formatter@Vscoped_padder@details@spdlog@@@details@spdlog@@U?$default_delete@V?$M_formatter@Vscoped_padder@details@spdlog@@@details@spdlog@@@std@@@1@@Z
	??$?0V?$R_formatter@Unull_scoped_padder@details@spdlog@@@details@spdlog@@$0A@@?$default_delete@Vflag_formatter@details@spdlog@@@std@@QEAA@AEBU?$default_delete@V?$R_formatter@Unull_scoped_padder@details@spdlog@@@details@spdlog@@@1@@Z
	??$?0V?$R_formatter@Unull_scoped_padder@details@spdlog@@@details@spdlog@@U?$default_delete@V?$R_formatter@Unull_scoped_padder@details@spdlog@@@details@spdlog@@@std@@$0A@@?$unique_ptr@Vflag_formatter@details@spdlog@@U?$default_delete@Vflag_formatter@details@spdlog@@@std@@@std@@QEAA@$$QEAV?$unique_ptr@V?$R_formatter@Unull_scoped_padder@details@spdlog@@@details@spdlog@@U?$default_delete@V?$R_formatter@Unull_scoped_padder@details@spdlog@@@details@spdlog@@@std@@@1@@Z
	??$?0V?$R_formatter@Vscoped_padder@details@spdlog@@@details@spdlog@@$0A@@?$default_delete@Vflag_formatter@details@spdlog@@@std@@QEAA@AEBU?$default_delete@V?$R_formatter@Vscoped_padder@details@spdlog@@@details@spdlog@@@1@@Z
	??$?0V?$R_formatter@Vscoped_padder@details@spdlog@@@details@spdlog@@U?$default_delete@V?$R_formatter@Vscoped_padder@details@spdlog@@@details@spdlog@@@std@@$0A@@?$unique_ptr@Vflag_formatter@details@spdlog@@U?$default_delete@Vflag_formatter@details@spdlog@@@std@@@std@@QEAA@$$QEAV?$unique_ptr@V?$R_formatter@Vscoped_padder@details@spdlog@@@details@spdlog@@U?$default_delete@V?$R_formatter@Vscoped_padder@details@spdlog@@@details@spdlog@@@std@@@1@@Z
	??$?0V?$S_formatter@Unull_scoped_padder@details@spdlog@@@details@spdlog@@$0A@@?$default_delete@Vflag_formatter@details@spdlog@@@std@@QEAA@AEBU?$default_delete@V?$S_formatter@Unull_scoped_padder@details@spdlog@@@details@spdlog@@@1@@Z
	??$?0V?$S_formatter@Unull_scoped_padder@details@spdlog@@@details@spdlog@@U?$default_delete@V?$S_formatter@Unull_scoped_padder@details@spdlog@@@details@spdlog@@@std@@$0A@@?$unique_ptr@Vflag_formatter@details@spdlog@@U?$default_delete@Vflag_formatter@details@spdlog@@@std@@@std@@QEAA@$$QEAV?$unique_ptr@V?$S_formatter@Unull_scoped_padder@details@spdlog@@@details@spdlog@@U?$default_delete@V?$S_formatter@Unull_scoped_padder@details@spdlog@@@details@spdlog@@@std@@@1@@Z
	??$?0V?$S_formatter@Vscoped_padder@details@spdlog@@@details@spdlog@@$0A@@?$default_delete@Vflag_formatter@details@spdlog@@@std@@QEAA@AEBU?$default_delete@V?$S_formatter@Vscoped_padder@details@spdlog@@@details@spdlog@@@1@@Z
	??$?0V?$S_formatter@Vscoped_padder@details@spdlog@@@details@spdlog@@U?$default_delete@V?$S_formatter@Vscoped_padder@details@spdlog@@@details@spdlog@@@std@@$0A@@?$unique_ptr@Vflag_formatter@details@spdlog@@U?$default_delete@Vflag_formatter@details@spdlog@@@std@@@std@@QEAA@$$QEAV?$unique_ptr@V?$S_formatter@Vscoped_padder@details@spdlog@@@details@spdlog@@U?$default_delete@V?$S_formatter@Vscoped_padder@details@spdlog@@@details@spdlog@@@std@@@1@@Z
	??$?0V?$T_formatter@Unull_scoped_padder@details@spdlog@@@details@spdlog@@$0A@@?$default_delete@Vflag_formatter@details@spdlog@@@std@@QEAA@AEBU?$default_delete@V?$T_formatter@Unull_scoped_padder@details@spdlog@@@details@spdlog@@@1@@Z
	??$?0V?$T_formatter@Unull_scoped_padder@details@spdlog@@@details@spdlog@@U?$default_delete@V?$T_formatter@Unull_scoped_padder@details@spdlog@@@details@spdlog@@@std@@$0A@@?$unique_ptr@Vflag_formatter@details@spdlog@@U?$default_delete@Vflag_formatter@details@spdlog@@@std@@@std@@QEAA@$$QEAV?$unique_ptr@V?$T_formatter@Unull_scoped_padder@details@spdlog@@@details@spdlog@@U?$default_delete@V?$T_formatter@Unull_scoped_padder@details@spdlog@@@details@spdlog@@@std@@@1@@Z
	??$?0V?$T_formatter@Vscoped_padder@details@spdlog@@@details@spdlog@@$0A@@?$default_delete@Vflag_formatter@details@spdlog@@@std@@QEAA@AEBU?$default_delete@V?$T_formatter@Vscoped_padder@details@spdlog@@@details@spdlog@@@1@@Z
	??$?0V?$T_formatter@Vscoped_padder@details@spdlog@@@details@spdlog@@U?$default_delete@V?$T_formatter@Vscoped_padder@details@spdlog@@@details@spdlog@@@std@@$0A@@?$unique_ptr@Vflag_formatter@details@spdlog@@U?$default_delete@Vflag_formatter@details@spdlog@@@std@@@std@@QEAA@$$QEAV?$unique_ptr@V?$T_formatter@Vscoped_padder@details@spdlog@@@details@spdlog@@U?$default_delete@V?$T_formatter@Vscoped_padder@details@spdlog@@@details@spdlog@@@std@@@1@@Z
	??$?0V?$Y_formatter@Unull_scoped_padder@details@spdlog@@@details@spdlog@@$0A@@?$default_delete@Vflag_formatter@details@spdlog@@@std@@QEAA@AEBU?$default_delete@V?$Y_formatter@Unull_scoped_padder@details@spdlog@@@details@spdlog@@@1@@Z
	??$?0V?$Y_formatter@Unull_scoped_padder@details@spdlog@@@details@spdlog@@U?$default_delete@V?$Y_formatter@Unull_scoped_padder@details@spdlog@@@details@spdlog@@@std@@$0A@@?$unique_ptr@Vflag_formatter@details@spdlog@@U?$default_delete@Vflag_formatter@details@spdlog@@@std@@@std@@QEAA@$$QEAV?$unique_ptr@V?$Y_formatter@Unull_scoped_padder@details@spdlog@@@details@spdlog@@U?$default_delete@V?$Y_formatter@Unull_scoped_padder@details@spdlog@@@details@spdlog@@@std@@@1@@Z
	??$?0V?$Y_formatter@Vscoped_padder@details@spdlog@@@details@spdlog@@$0A@@?$default_delete@Vflag_formatter@details@spdlog@@@std@@QEAA@AEBU?$default_delete@V?$Y_formatter@Vscoped_padder@details@spdlog@@@details@spdlog@@@1@@Z
	??$?0V?$Y_formatter@Vscoped_padder@details@spdlog@@@details@spdlog@@U?$default_delete@V?$Y_formatter@Vscoped_padder@details@spdlog@@@details@spdlog@@@std@@$0A@@?$unique_ptr@Vflag_formatter@details@spdlog@@U?$default_delete@Vflag_formatter@details@spdlog@@@std@@@std@@QEAA@$$QEAV?$unique_ptr@V?$Y_formatter@Vscoped_padder@details@spdlog@@@details@spdlog@@U?$default_delete@V?$Y_formatter@Vscoped_padder@details@spdlog@@@details@spdlog@@@std@@@1@@Z
	??$?0V?$a_formatter@Unull_scoped_padder@details@spdlog@@@details@spdlog@@$0A@@?$default_delete@Vflag_formatter@details@spdlog@@@std@@QEAA@AEBU?$default_delete@V?$a_formatter@Unull_scoped_padder@details@spdlog@@@details@spdlog@@@1@@Z
	??$?0V?$a_formatter@Unull_scoped_padder@details@spdlog@@@details@spdlog@@U?$default_delete@V?$a_formatter@Unull_scoped_padder@details@spdlog@@@details@spdlog@@@std@@$0A@@?$unique_ptr@Vflag_formatter@details@spdlog@@U?$default_delete@Vflag_formatter@details@spdlog@@@std@@@std@@QEAA@$$QEAV?$unique_ptr@V?$a_formatter@Unull_scoped_padder@details@spdlog@@@details@spdlog@@U?$default_delete@V?$a_formatter@Unull_scoped_padder@details@spdlog@@@details@spdlog@@@std@@@1@@Z
	??$?0V?$a_formatter@Vscoped_padder@details@spdlog@@@details@spdlog@@$0A@@?$default_delete@Vflag_formatter@details@spdlog@@@std@@QEAA@AEBU?$default_delete@V?$a_formatter@Vscoped_padder@details@spdlog@@@details@spdlog@@@1@@Z
	??$?0V?$a_formatter@Vscoped_padder@details@spdlog@@@details@spdlog@@U?$default_delete@V?$a_formatter@Vscoped_padder@details@spdlog@@@details@spdlog@@@std@@$0A@@?$unique_ptr@Vflag_formatter@details@spdlog@@U?$default_delete@Vflag_formatter@details@spdlog@@@std@@@std@@QEAA@$$QEAV?$unique_ptr@V?$a_formatter@Vscoped_padder@details@spdlog@@@details@spdlog@@U?$default_delete@V?$a_formatter@Vscoped_padder@details@spdlog@@@details@spdlog@@@std@@@1@@Z
	??$?0V?$allocator@D@std@@$$V@?$_Compressed_pair@V?$allocator@D@std@@V?$_String_val@U?$_Simple_types@D@std@@@2@$00@std@@QEAA@U_One_then_variadic_args_t@1@$$QEAV?$allocator@D@1@@Z
	??$?0V?$allocator@U?$_List_node@U?$pair@$$CBDV?$unique_ptr@Vcustom_flag_formatter@spdlog@@U?$default_delete@Vcustom_flag_formatter@spdlog@@@std@@@std@@@std@@PEAX@std@@@std@@$$V@?$_Compressed_pair@V?$allocator@U?$_List_node@U?$pair@$$CBDV?$unique_ptr@Vcustom_flag_formatter@spdlog@@U?$default_delete@Vcustom_flag_formatter@spdlog@@@std@@@std@@@std@@PEAX@std@@@std@@V?$_List_val@U?$_List_simple_types@U?$pair@$$CBDV?$unique_ptr@Vcustom_flag_formatter@spdlog@@U?$default_delete@Vcustom_flag_formatter@spdlog@@@std@@@std@@@std@@@std@@@2@$00@std@@QEAA@U_One_then_variadic_args_t@1@$$QEAV?$allocator@U?$_List_node@U?$pair@$$CBDV?$unique_ptr@Vcustom_flag_formatter@spdlog@@U?$default_delete@Vcustom_flag_formatter@spdlog@@@std@@@std@@@std@@PEAX@std@@@1@@Z
	??$?0V?$allocator@V?$_List_unchecked_iterator@V?$_List_val@U?$_List_simple_types@U?$pair@$$CBDV?$unique_ptr@Vcustom_flag_formatter@spdlog@@U?$default_delete@Vcustom_flag_formatter@spdlog@@@std@@@std@@@std@@@std@@@std@@@std@@@std@@$$V@?$_Compressed_pair@V?$allocator@V?$_List_unchecked_iterator@V?$_List_val@U?$_List_simple_types@U?$pair@$$CBDV?$unique_ptr@Vcustom_flag_formatter@spdlog@@U?$default_delete@Vcustom_flag_formatter@spdlog@@@std@@@std@@@std@@@std@@@std@@@std@@@std@@V?$_Vector_val@U?$_Simple_types@V?$_List_unchecked_iterator@V?$_List_val@U?$_List_simple_types@U?$pair@$$CBDV?$unique_ptr@Vcustom_flag_formatter@spdlog@@U?$default_delete@Vcustom_flag_formatter@spdlog@@@std@@@std@@@std@@@std@@@std@@@std@@@std@@@2@$00@std@@QEAA@U_One_then_variadic_args_t@1@$$QEAV?$allocator@V?$_List_unchecked_iterator@V?$_List_val@U?$_List_simple_types@U?$pair@$$CBDV?$unique_ptr@Vcustom_flag_formatter@spdlog@@U?$default_delete@Vcustom_flag_formatter@spdlog@@@std@@@std@@@std@@@std@@@std@@@std@@@1@@Z
	??$?0V?$allocator@V?$_List_unchecked_iterator@V?$_List_val@U?$_List_simple_types@U?$pair@$$CBDV?$unique_ptr@Vcustom_flag_formatter@spdlog@@U?$default_delete@Vcustom_flag_formatter@spdlog@@@std@@@std@@@std@@@std@@@std@@@std@@@std@@$0A@@?$_Hash_vec@V?$allocator@V?$_List_unchecked_iterator@V?$_List_val@U?$_List_simple_types@U?$pair@$$CBDV?$unique_ptr@Vcustom_flag_formatter@spdlog@@U?$default_delete@Vcustom_flag_formatter@spdlog@@@std@@@std@@@std@@@std@@@std@@@std@@@std@@@std@@QEAA@$$QEAV?$allocator@V?$_List_unchecked_iterator@V?$_List_val@U?$_List_simple_types@U?$pair@$$CBDV?$unique_ptr@Vcustom_flag_formatter@spdlog@@U?$default_delete@Vcustom_flag_formatter@spdlog@@@std@@@std@@@std@@@std@@@std@@@std@@@1@@Z
	??$?0V?$allocator@V?$shared_ptr@Vsink@sinks@spdlog@@@std@@@std@@$$V@?$_Compressed_pair@V?$allocator@V?$shared_ptr@Vsink@sinks@spdlog@@@std@@@std@@V?$_Vector_val@U?$_Simple_types@V?$shared_ptr@Vsink@sinks@spdlog@@@std@@@std@@@2@$00@std@@QEAA@U_One_then_variadic_args_t@1@$$QEAV?$allocator@V?$shared_ptr@Vsink@sinks@spdlog@@@std@@@1@@Z
	??$?0V?$b_formatter@Unull_scoped_padder@details@spdlog@@@details@spdlog@@$0A@@?$default_delete@Vflag_formatter@details@spdlog@@@std@@QEAA@AEBU?$default_delete@V?$b_formatter@Unull_scoped_padder@details@spdlog@@@details@spdlog@@@1@@Z
	??$?0V?$b_formatter@Unull_scoped_padder@details@spdlog@@@details@spdlog@@U?$default_delete@V?$b_formatter@Unull_scoped_padder@details@spdlog@@@details@spdlog@@@std@@$0A@@?$unique_ptr@Vflag_formatter@details@spdlog@@U?$default_delete@Vflag_formatter@details@spdlog@@@std@@@std@@QEAA@$$QEAV?$unique_ptr@V?$b_formatter@Unull_scoped_padder@details@spdlog@@@details@spdlog@@U?$default_delete@V?$b_formatter@Unull_scoped_padder@details@spdlog@@@details@spdlog@@@std@@@1@@Z
	??$?0V?$b_formatter@Vscoped_padder@details@spdlog@@@details@spdlog@@$0A@@?$default_delete@Vflag_formatter@details@spdlog@@@std@@QEAA@AEBU?$default_delete@V?$b_formatter@Vscoped_padder@details@spdlog@@@details@spdlog@@@1@@Z
	??$?0V?$b_formatter@Vscoped_padder@details@spdlog@@@details@spdlog@@U?$default_delete@V?$b_formatter@Vscoped_padder@details@spdlog@@@details@spdlog@@@std@@$0A@@?$unique_ptr@Vflag_formatter@details@spdlog@@U?$default_delete@Vflag_formatter@details@spdlog@@@std@@@std@@QEAA@$$QEAV?$unique_ptr@V?$b_formatter@Vscoped_padder@details@spdlog@@@details@spdlog@@U?$default_delete@V?$b_formatter@Vscoped_padder@details@spdlog@@@details@spdlog@@@std@@@1@@Z
	??$?0V?$basic_string@DU?$char_traits@D@std@@V?$allocator@D@2@@std@@$$V$0A@@?$tuple@$$QEAV?$basic_string@DU?$char_traits@D@std@@V?$allocator@D@2@@std@@@std@@QEAA@$$QEAV?$basic_string@DU?$char_traits@D@std@@V?$allocator@D@2@@1@@Z
	??$?0V?$basic_string@DU?$char_traits@D@std@@V?$allocator@D@2@@std@@$0A@@?$basic_string_view@D@v11@fmt@@QEAA@AEBV?$basic_string@DU?$char_traits@D@std@@V?$allocator@D@2@@std@@@Z
	??$?0V?$basic_string@DU?$char_traits@D@std@@V?$allocator@D@2@@std@@@?$_Tuple_val@$$QEAV?$basic_string@DU?$char_traits@D@std@@V?$allocator@D@2@@std@@@std@@QEAA@$$QEAV?$basic_string@DU?$char_traits@D@std@@V?$allocator@D@2@@1@@Z
	??$?0V?$basic_string@DU?$char_traits@D@std@@V?$allocator@D@2@@std@@V?$shared_ptr@V?$wincolor_stdout_sink@Uconsole_mutex@details@spdlog@@@sinks@spdlog@@@1@@?$_Ref_count_obj2@Vlogger@spdlog@@@std@@QEAA@$$QEAV?$basic_string@DU?$char_traits@D@std@@V?$allocator@D@2@@1@$$QEAV?$shared_ptr@V?$wincolor_stdout_sink@Uconsole_mutex@details@spdlog@@@sinks@spdlog@@@1@@Z
	??$?0V?$basic_string_view@D@v11@fmt@@D$0A@@?$value@Vcontext@v11@fmt@@@detail@v11@fmt@@QEAA@AEBV?$basic_string_view@D@23@@Z
	??$?0V?$c_formatter@Unull_scoped_padder@details@spdlog@@@details@spdlog@@$0A@@?$default_delete@Vflag_formatter@details@spdlog@@@std@@QEAA@AEBU?$default_delete@V?$c_formatter@Unull_scoped_padder@details@spdlog@@@details@spdlog@@@1@@Z
	??$?0V?$c_formatter@Unull_scoped_padder@details@spdlog@@@details@spdlog@@U?$default_delete@V?$c_formatter@Unull_scoped_padder@details@spdlog@@@details@spdlog@@@std@@$0A@@?$unique_ptr@Vflag_formatter@details@spdlog@@U?$default_delete@Vflag_formatter@details@spdlog@@@std@@@std@@QEAA@$$QEAV?$unique_ptr@V?$c_formatter@Unull_scoped_padder@details@spdlog@@@details@spdlog@@U?$default_delete@V?$c_formatter@Unull_scoped_padder@details@spdlog@@@details@spdlog@@@std@@@1@@Z
	??$?0V?$c_formatter@Vscoped_padder@details@spdlog@@@details@spdlog@@$0A@@?$default_delete@Vflag_formatter@details@spdlog@@@std@@QEAA@AEBU?$default_delete@V?$c_formatter@Vscoped_padder@details@spdlog@@@details@spdlog@@@1@@Z
	??$?0V?$c_formatter@Vscoped_padder@details@spdlog@@@details@spdlog@@U?$default_delete@V?$c_formatter@Vscoped_padder@details@spdlog@@@details@spdlog@@@std@@$0A@@?$unique_ptr@Vflag_formatter@details@spdlog@@U?$default_delete@Vflag_formatter@details@spdlog@@@std@@@std@@QEAA@$$QEAV?$unique_ptr@V?$c_formatter@Vscoped_padder@details@spdlog@@@details@spdlog@@U?$default_delete@V?$c_formatter@Vscoped_padder@details@spdlog@@@details@spdlog@@@std@@@1@@Z
	??$?0V?$d_formatter@Unull_scoped_padder@details@spdlog@@@details@spdlog@@$0A@@?$default_delete@Vflag_formatter@details@spdlog@@@std@@QEAA@AEBU?$default_delete@V?$d_formatter@Unull_scoped_padder@details@spdlog@@@details@spdlog@@@1@@Z
	??$?0V?$d_formatter@Unull_scoped_padder@details@spdlog@@@details@spdlog@@U?$default_delete@V?$d_formatter@Unull_scoped_padder@details@spdlog@@@details@spdlog@@@std@@$0A@@?$unique_ptr@Vflag_formatter@details@spdlog@@U?$default_delete@Vflag_formatter@details@spdlog@@@std@@@std@@QEAA@$$QEAV?$unique_ptr@V?$d_formatter@Unull_scoped_padder@details@spdlog@@@details@spdlog@@U?$default_delete@V?$d_formatter@Unull_scoped_padder@details@spdlog@@@details@spdlog@@@std@@@1@@Z
	??$?0V?$d_formatter@Vscoped_padder@details@spdlog@@@details@spdlog@@$0A@@?$default_delete@Vflag_formatter@details@spdlog@@@std@@QEAA@AEBU?$default_delete@V?$d_formatter@Vscoped_padder@details@spdlog@@@details@spdlog@@@1@@Z
	??$?0V?$d_formatter@Vscoped_padder@details@spdlog@@@details@spdlog@@U?$default_delete@V?$d_formatter@Vscoped_padder@details@spdlog@@@details@spdlog@@@std@@$0A@@?$unique_ptr@Vflag_formatter@details@spdlog@@U?$default_delete@Vflag_formatter@details@spdlog@@@std@@@std@@QEAA@$$QEAV?$unique_ptr@V?$d_formatter@Vscoped_padder@details@spdlog@@@details@spdlog@@U?$default_delete@V?$d_formatter@Vscoped_padder@details@spdlog@@@details@spdlog@@@std@@@1@@Z
	??$?0V?$e_formatter@Unull_scoped_padder@details@spdlog@@@details@spdlog@@$0A@@?$default_delete@Vflag_formatter@details@spdlog@@@std@@QEAA@AEBU?$default_delete@V?$e_formatter@Unull_scoped_padder@details@spdlog@@@details@spdlog@@@1@@Z
	??$?0V?$e_formatter@Unull_scoped_padder@details@spdlog@@@details@spdlog@@U?$default_delete@V?$e_formatter@Unull_scoped_padder@details@spdlog@@@details@spdlog@@@std@@$0A@@?$unique_ptr@Vflag_formatter@details@spdlog@@U?$default_delete@Vflag_formatter@details@spdlog@@@std@@@std@@QEAA@$$QEAV?$unique_ptr@V?$e_formatter@Unull_scoped_padder@details@spdlog@@@details@spdlog@@U?$default_delete@V?$e_formatter@Unull_scoped_padder@details@spdlog@@@details@spdlog@@@std@@@1@@Z
	??$?0V?$e_formatter@Vscoped_padder@details@spdlog@@@details@spdlog@@$0A@@?$default_delete@Vflag_formatter@details@spdlog@@@std@@QEAA@AEBU?$default_delete@V?$e_formatter@Vscoped_padder@details@spdlog@@@details@spdlog@@@1@@Z
	??$?0V?$e_formatter@Vscoped_padder@details@spdlog@@@details@spdlog@@U?$default_delete@V?$e_formatter@Vscoped_padder@details@spdlog@@@details@spdlog@@@std@@$0A@@?$unique_ptr@Vflag_formatter@details@spdlog@@U?$default_delete@Vflag_formatter@details@spdlog@@@std@@@std@@QEAA@$$QEAV?$unique_ptr@V?$e_formatter@Vscoped_padder@details@spdlog@@@details@spdlog@@U?$default_delete@V?$e_formatter@Vscoped_padder@details@spdlog@@@details@spdlog@@@std@@@1@@Z
	??$?0V?$elapsed_formatter@Unull_scoped_padder@details@spdlog@@V?$duration@_JU?$ratio@$00$00@std@@@chrono@std@@@details@spdlog@@$0A@@?$default_delete@Vflag_formatter@details@spdlog@@@std@@QEAA@AEBU?$default_delete@V?$elapsed_formatter@Unull_scoped_padder@details@spdlog@@V?$duration@_JU?$ratio@$00$00@std@@@chrono@std@@@details@spdlog@@@1@@Z
	??$?0V?$elapsed_formatter@Unull_scoped_padder@details@spdlog@@V?$duration@_JU?$ratio@$00$00@std@@@chrono@std@@@details@spdlog@@U?$default_delete@V?$elapsed_formatter@Unull_scoped_padder@details@spdlog@@V?$duration@_JU?$ratio@$00$00@std@@@chrono@std@@@details@spdlog@@@std@@$0A@@?$unique_ptr@Vflag_formatter@details@spdlog@@U?$default_delete@Vflag_formatter@details@spdlog@@@std@@@std@@QEAA@$$QEAV?$unique_ptr@V?$elapsed_formatter@Unull_scoped_padder@details@spdlog@@V?$duration@_JU?$ratio@$00$00@std@@@chrono@std@@@details@spdlog@@U?$default_delete@V?$elapsed_formatter@Unull_scoped_padder@details@spdlog@@V?$duration@_JU?$ratio@$00$00@std@@@chrono@std@@@details@spdlog@@@std@@@1@@Z
	??$?0V?$elapsed_formatter@Unull_scoped_padder@details@spdlog@@V?$duration@_JU?$ratio@$00$0DLJKMKAA@@std@@@chrono@std@@@details@spdlog@@$0A@@?$default_delete@Vflag_formatter@details@spdlog@@@std@@QEAA@AEBU?$default_delete@V?$elapsed_formatter@Unull_scoped_padder@details@spdlog@@V?$duration@_JU?$ratio@$00$0DLJKMKAA@@std@@@chrono@std@@@details@spdlog@@@1@@Z
	??$?0V?$elapsed_formatter@Unull_scoped_padder@details@spdlog@@V?$duration@_JU?$ratio@$00$0DLJKMKAA@@std@@@chrono@std@@@details@spdlog@@U?$default_delete@V?$elapsed_formatter@Unull_scoped_padder@details@spdlog@@V?$duration@_JU?$ratio@$00$0DLJKMKAA@@std@@@chrono@std@@@details@spdlog@@@std@@$0A@@?$unique_ptr@Vflag_formatter@details@spdlog@@U?$default_delete@Vflag_formatter@details@spdlog@@@std@@@std@@QEAA@$$QEAV?$unique_ptr@V?$elapsed_formatter@Unull_scoped_padder@details@spdlog@@V?$duration@_JU?$ratio@$00$0DLJKMKAA@@std@@@chrono@std@@@details@spdlog@@U?$default_delete@V?$elapsed_formatter@Unull_scoped_padder@details@spdlog@@V?$duration@_JU?$ratio@$00$0DLJKMKAA@@std@@@chrono@std@@@details@spdlog@@@std@@@1@@Z
	??$?0V?$elapsed_formatter@Unull_scoped_padder@details@spdlog@@V?$duration@_JU?$ratio@$00$0DOI@@std@@@chrono@std@@@details@spdlog@@$0A@@?$default_delete@Vflag_formatter@details@spdlog@@@std@@QEAA@AEBU?$default_delete@V?$elapsed_formatter@Unull_scoped_padder@details@spdlog@@V?$duration@_JU?$ratio@$00$0DOI@@std@@@chrono@std@@@details@spdlog@@@1@@Z
	??$?0V?$elapsed_formatter@Unull_scoped_padder@details@spdlog@@V?$duration@_JU?$ratio@$00$0DOI@@std@@@chrono@std@@@details@spdlog@@U?$default_delete@V?$elapsed_formatter@Unull_scoped_padder@details@spdlog@@V?$duration@_JU?$ratio@$00$0DOI@@std@@@chrono@std@@@details@spdlog@@@std@@$0A@@?$unique_ptr@Vflag_formatter@details@spdlog@@U?$default_delete@Vflag_formatter@details@spdlog@@@std@@@std@@QEAA@$$QEAV?$unique_ptr@V?$elapsed_formatter@Unull_scoped_padder@details@spdlog@@V?$duration@_JU?$ratio@$00$0DOI@@std@@@chrono@std@@@details@spdlog@@U?$default_delete@V?$elapsed_formatter@Unull_scoped_padder@details@spdlog@@V?$duration@_JU?$ratio@$00$0DOI@@std@@@chrono@std@@@details@spdlog@@@std@@@1@@Z
	??$?0V?$elapsed_formatter@Unull_scoped_padder@details@spdlog@@V?$duration@_JU?$ratio@$00$0PECEA@@std@@@chrono@std@@@details@spdlog@@$0A@@?$default_delete@Vflag_formatter@details@spdlog@@@std@@QEAA@AEBU?$default_delete@V?$elapsed_formatter@Unull_scoped_padder@details@spdlog@@V?$duration@_JU?$ratio@$00$0PECEA@@std@@@chrono@std@@@details@spdlog@@@1@@Z
	??$?0V?$elapsed_formatter@Unull_scoped_padder@details@spdlog@@V?$duration@_JU?$ratio@$00$0PECEA@@std@@@chrono@std@@@details@spdlog@@U?$default_delete@V?$elapsed_formatter@Unull_scoped_padder@details@spdlog@@V?$duration@_JU?$ratio@$00$0PECEA@@std@@@chrono@std@@@details@spdlog@@@std@@$0A@@?$unique_ptr@Vflag_formatter@details@spdlog@@U?$default_delete@Vflag_formatter@details@spdlog@@@std@@@std@@QEAA@$$QEAV?$unique_ptr@V?$elapsed_formatter@Unull_scoped_padder@details@spdlog@@V?$duration@_JU?$ratio@$00$0PECEA@@std@@@chrono@std@@@details@spdlog@@U?$default_delete@V?$elapsed_formatter@Unull_scoped_padder@details@spdlog@@V?$duration@_JU?$ratio@$00$0PECEA@@std@@@chrono@std@@@details@spdlog@@@std@@@1@@Z
	??$?0V?$elapsed_formatter@Vscoped_padder@details@spdlog@@V?$duration@_JU?$ratio@$00$00@std@@@chrono@std@@@details@spdlog@@$0A@@?$default_delete@Vflag_formatter@details@spdlog@@@std@@QEAA@AEBU?$default_delete@V?$elapsed_formatter@Vscoped_padder@details@spdlog@@V?$duration@_JU?$ratio@$00$00@std@@@chrono@std@@@details@spdlog@@@1@@Z
	??$?0V?$elapsed_formatter@Vscoped_padder@details@spdlog@@V?$duration@_JU?$ratio@$00$00@std@@@chrono@std@@@details@spdlog@@U?$default_delete@V?$elapsed_formatter@Vscoped_padder@details@spdlog@@V?$duration@_JU?$ratio@$00$00@std@@@chrono@std@@@details@spdlog@@@std@@$0A@@?$unique_ptr@Vflag_formatter@details@spdlog@@U?$default_delete@Vflag_formatter@details@spdlog@@@std@@@std@@QEAA@$$QEAV?$unique_ptr@V?$elapsed_formatter@Vscoped_padder@details@spdlog@@V?$duration@_JU?$ratio@$00$00@std@@@chrono@std@@@details@spdlog@@U?$default_delete@V?$elapsed_formatter@Vscoped_padder@details@spdlog@@V?$duration@_JU?$ratio@$00$00@std@@@chrono@std@@@details@spdlog@@@std@@@1@@Z
	??$?0V?$elapsed_formatter@Vscoped_padder@details@spdlog@@V?$duration@_JU?$ratio@$00$0DLJKMKAA@@std@@@chrono@std@@@details@spdlog@@$0A@@?$default_delete@Vflag_formatter@details@spdlog@@@std@@QEAA@AEBU?$default_delete@V?$elapsed_formatter@Vscoped_padder@details@spdlog@@V?$duration@_JU?$ratio@$00$0DLJKMKAA@@std@@@chrono@std@@@details@spdlog@@@1@@Z
	??$?0V?$elapsed_formatter@Vscoped_padder@details@spdlog@@V?$duration@_JU?$ratio@$00$0DLJKMKAA@@std@@@chrono@std@@@details@spdlog@@U?$default_delete@V?$elapsed_formatter@Vscoped_padder@details@spdlog@@V?$duration@_JU?$ratio@$00$0DLJKMKAA@@std@@@chrono@std@@@details@spdlog@@@std@@$0A@@?$unique_ptr@Vflag_formatter@details@spdlog@@U?$default_delete@Vflag_formatter@details@spdlog@@@std@@@std@@QEAA@$$QEAV?$unique_ptr@V?$elapsed_formatter@Vscoped_padder@details@spdlog@@V?$duration@_JU?$ratio@$00$0DLJKMKAA@@std@@@chrono@std@@@details@spdlog@@U?$default_delete@V?$elapsed_formatter@Vscoped_padder@details@spdlog@@V?$duration@_JU?$ratio@$00$0DLJKMKAA@@std@@@chrono@std@@@details@spdlog@@@std@@@1@@Z
	??$?0V?$elapsed_formatter@Vscoped_padder@details@spdlog@@V?$duration@_JU?$ratio@$00$0DOI@@std@@@chrono@std@@@details@spdlog@@$0A@@?$default_delete@Vflag_formatter@details@spdlog@@@std@@QEAA@AEBU?$default_delete@V?$elapsed_formatter@Vscoped_padder@details@spdlog@@V?$duration@_JU?$ratio@$00$0DOI@@std@@@chrono@std@@@details@spdlog@@@1@@Z
	??$?0V?$elapsed_formatter@Vscoped_padder@details@spdlog@@V?$duration@_JU?$ratio@$00$0DOI@@std@@@chrono@std@@@details@spdlog@@U?$default_delete@V?$elapsed_formatter@Vscoped_padder@details@spdlog@@V?$duration@_JU?$ratio@$00$0DOI@@std@@@chrono@std@@@details@spdlog@@@std@@$0A@@?$unique_ptr@Vflag_formatter@details@spdlog@@U?$default_delete@Vflag_formatter@details@spdlog@@@std@@@std@@QEAA@$$QEAV?$unique_ptr@V?$elapsed_formatter@Vscoped_padder@details@spdlog@@V?$duration@_JU?$ratio@$00$0DOI@@std@@@chrono@std@@@details@spdlog@@U?$default_delete@V?$elapsed_formatter@Vscoped_padder@details@spdlog@@V?$duration@_JU?$ratio@$00$0DOI@@std@@@chrono@std@@@details@spdlog@@@std@@@1@@Z
	??$?0V?$elapsed_formatter@Vscoped_padder@details@spdlog@@V?$duration@_JU?$ratio@$00$0PECEA@@std@@@chrono@std@@@details@spdlog@@$0A@@?$default_delete@Vflag_formatter@details@spdlog@@@std@@QEAA@AEBU?$default_delete@V?$elapsed_formatter@Vscoped_padder@details@spdlog@@V?$duration@_JU?$ratio@$00$0PECEA@@std@@@chrono@std@@@details@spdlog@@@1@@Z
	??$?0V?$elapsed_formatter@Vscoped_padder@details@spdlog@@V?$duration@_JU?$ratio@$00$0PECEA@@std@@@chrono@std@@@details@spdlog@@U?$default_delete@V?$elapsed_formatter@Vscoped_padder@details@spdlog@@V?$duration@_JU?$ratio@$00$0PECEA@@std@@@chrono@std@@@details@spdlog@@@std@@$0A@@?$unique_ptr@Vflag_formatter@details@spdlog@@U?$default_delete@Vflag_formatter@details@spdlog@@@std@@@std@@QEAA@$$QEAV?$unique_ptr@V?$elapsed_formatter@Vscoped_padder@details@spdlog@@V?$duration@_JU?$ratio@$00$0PECEA@@std@@@chrono@std@@@details@spdlog@@U?$default_delete@V?$elapsed_formatter@Vscoped_padder@details@spdlog@@V?$duration@_JU?$ratio@$00$0PECEA@@std@@@chrono@std@@@details@spdlog@@@std@@@1@@Z
	??$?0V?$f_formatter@Unull_scoped_padder@details@spdlog@@@details@spdlog@@$0A@@?$default_delete@Vflag_formatter@details@spdlog@@@std@@QEAA@AEBU?$default_delete@V?$f_formatter@Unull_scoped_padder@details@spdlog@@@details@spdlog@@@1@@Z
	??$?0V?$f_formatter@Unull_scoped_padder@details@spdlog@@@details@spdlog@@U?$default_delete@V?$f_formatter@Unull_scoped_padder@details@spdlog@@@details@spdlog@@@std@@$0A@@?$unique_ptr@Vflag_formatter@details@spdlog@@U?$default_delete@Vflag_formatter@details@spdlog@@@std@@@std@@QEAA@$$QEAV?$unique_ptr@V?$f_formatter@Unull_scoped_padder@details@spdlog@@@details@spdlog@@U?$default_delete@V?$f_formatter@Unull_scoped_padder@details@spdlog@@@details@spdlog@@@std@@@1@@Z
	??$?0V?$f_formatter@Vscoped_padder@details@spdlog@@@details@spdlog@@$0A@@?$default_delete@Vflag_formatter@details@spdlog@@@std@@QEAA@AEBU?$default_delete@V?$f_formatter@Vscoped_padder@details@spdlog@@@details@spdlog@@@1@@Z
	??$?0V?$f_formatter@Vscoped_padder@details@spdlog@@@details@spdlog@@U?$default_delete@V?$f_formatter@Vscoped_padder@details@spdlog@@@details@spdlog@@@std@@$0A@@?$unique_ptr@Vflag_formatter@details@spdlog@@U?$default_delete@Vflag_formatter@details@spdlog@@@std@@@std@@QEAA@$$QEAV?$unique_ptr@V?$f_formatter@Vscoped_padder@details@spdlog@@@details@spdlog@@U?$default_delete@V?$f_formatter@Vscoped_padder@details@spdlog@@@details@spdlog@@@std@@@1@@Z
	??$?0V?$level_formatter@Unull_scoped_padder@details@spdlog@@@details@spdlog@@$0A@@?$default_delete@Vflag_formatter@details@spdlog@@@std@@QEAA@AEBU?$default_delete@V?$level_formatter@Unull_scoped_padder@details@spdlog@@@details@spdlog@@@1@@Z
	??$?0V?$level_formatter@Unull_scoped_padder@details@spdlog@@@details@spdlog@@U?$default_delete@V?$level_formatter@Unull_scoped_padder@details@spdlog@@@details@spdlog@@@std@@$0A@@?$unique_ptr@Vflag_formatter@details@spdlog@@U?$default_delete@Vflag_formatter@details@spdlog@@@std@@@std@@QEAA@$$QEAV?$unique_ptr@V?$level_formatter@Unull_scoped_padder@details@spdlog@@@details@spdlog@@U?$default_delete@V?$level_formatter@Unull_scoped_padder@details@spdlog@@@details@spdlog@@@std@@@1@@Z
	??$?0V?$level_formatter@Vscoped_padder@details@spdlog@@@details@spdlog@@$0A@@?$default_delete@Vflag_formatter@details@spdlog@@@std@@QEAA@AEBU?$default_delete@V?$level_formatter@Vscoped_padder@details@spdlog@@@details@spdlog@@@1@@Z
	??$?0V?$level_formatter@Vscoped_padder@details@spdlog@@@details@spdlog@@U?$default_delete@V?$level_formatter@Vscoped_padder@details@spdlog@@@details@spdlog@@@std@@$0A@@?$unique_ptr@Vflag_formatter@details@spdlog@@U?$default_delete@Vflag_formatter@details@spdlog@@@std@@@std@@QEAA@$$QEAV?$unique_ptr@V?$level_formatter@Vscoped_padder@details@spdlog@@@details@spdlog@@U?$default_delete@V?$level_formatter@Vscoped_padder@details@spdlog@@@details@spdlog@@@std@@@1@@Z
	??$?0V?$m_formatter@Unull_scoped_padder@details@spdlog@@@details@spdlog@@$0A@@?$default_delete@Vflag_formatter@details@spdlog@@@std@@QEAA@AEBU?$default_delete@V?$m_formatter@Unull_scoped_padder@details@spdlog@@@details@spdlog@@@1@@Z
	??$?0V?$m_formatter@Unull_scoped_padder@details@spdlog@@@details@spdlog@@U?$default_delete@V?$m_formatter@Unull_scoped_padder@details@spdlog@@@details@spdlog@@@std@@$0A@@?$unique_ptr@Vflag_formatter@details@spdlog@@U?$default_delete@Vflag_formatter@details@spdlog@@@std@@@std@@QEAA@$$QEAV?$unique_ptr@V?$m_formatter@Unull_scoped_padder@details@spdlog@@@details@spdlog@@U?$default_delete@V?$m_formatter@Unull_scoped_padder@details@spdlog@@@details@spdlog@@@std@@@1@@Z
	??$?0V?$m_formatter@Vscoped_padder@details@spdlog@@@details@spdlog@@$0A@@?$default_delete@Vflag_formatter@details@spdlog@@@std@@QEAA@AEBU?$default_delete@V?$m_formatter@Vscoped_padder@details@spdlog@@@details@spdlog@@@1@@Z
	??$?0V?$m_formatter@Vscoped_padder@details@spdlog@@@details@spdlog@@U?$default_delete@V?$m_formatter@Vscoped_padder@details@spdlog@@@details@spdlog@@@std@@$0A@@?$unique_ptr@Vflag_formatter@details@spdlog@@U?$default_delete@Vflag_formatter@details@spdlog@@@std@@@std@@QEAA@$$QEAV?$unique_ptr@V?$m_formatter@Vscoped_padder@details@spdlog@@@details@spdlog@@U?$default_delete@V?$m_formatter@Vscoped_padder@details@spdlog@@@details@spdlog@@@std@@@1@@Z
	??$?0V?$mdc_formatter@Unull_scoped_padder@details@spdlog@@@details@spdlog@@$0A@@?$default_delete@Vflag_formatter@details@spdlog@@@std@@QEAA@AEBU?$default_delete@V?$mdc_formatter@Unull_scoped_padder@details@spdlog@@@details@spdlog@@@1@@Z
	??$?0V?$mdc_formatter@Unull_scoped_padder@details@spdlog@@@details@spdlog@@U?$default_delete@V?$mdc_formatter@Unull_scoped_padder@details@spdlog@@@details@spdlog@@@std@@$0A@@?$unique_ptr@Vflag_formatter@details@spdlog@@U?$default_delete@Vflag_formatter@details@spdlog@@@std@@@std@@QEAA@$$QEAV?$unique_ptr@V?$mdc_formatter@Unull_scoped_padder@details@spdlog@@@details@spdlog@@U?$default_delete@V?$mdc_formatter@Unull_scoped_padder@details@spdlog@@@details@spdlog@@@std@@@1@@Z
	??$?0V?$mdc_formatter@Vscoped_padder@details@spdlog@@@details@spdlog@@$0A@@?$default_delete@Vflag_formatter@details@spdlog@@@std@@QEAA@AEBU?$default_delete@V?$mdc_formatter@Vscoped_padder@details@spdlog@@@details@spdlog@@@1@@Z
	??$?0V?$mdc_formatter@Vscoped_padder@details@spdlog@@@details@spdlog@@U?$default_delete@V?$mdc_formatter@Vscoped_padder@details@spdlog@@@details@spdlog@@@std@@$0A@@?$unique_ptr@Vflag_formatter@details@spdlog@@U?$default_delete@Vflag_formatter@details@spdlog@@@std@@@std@@QEAA@$$QEAV?$unique_ptr@V?$mdc_formatter@Vscoped_padder@details@spdlog@@@details@spdlog@@U?$default_delete@V?$mdc_formatter@Vscoped_padder@details@spdlog@@@details@spdlog@@@std@@@1@@Z
	??$?0V?$name_formatter@Unull_scoped_padder@details@spdlog@@@details@spdlog@@$0A@@?$default_delete@Vflag_formatter@details@spdlog@@@std@@QEAA@AEBU?$default_delete@V?$name_formatter@Unull_scoped_padder@details@spdlog@@@details@spdlog@@@1@@Z
	??$?0V?$name_formatter@Unull_scoped_padder@details@spdlog@@@details@spdlog@@U?$default_delete@V?$name_formatter@Unull_scoped_padder@details@spdlog@@@details@spdlog@@@std@@$0A@@?$unique_ptr@Vflag_formatter@details@spdlog@@U?$default_delete@Vflag_formatter@details@spdlog@@@std@@@std@@QEAA@$$QEAV?$unique_ptr@V?$name_formatter@Unull_scoped_padder@details@spdlog@@@details@spdlog@@U?$default_delete@V?$name_formatter@Unull_scoped_padder@details@spdlog@@@details@spdlog@@@std@@@1@@Z
	??$?0V?$name_formatter@Vscoped_padder@details@spdlog@@@details@spdlog@@$0A@@?$default_delete@Vflag_formatter@details@spdlog@@@std@@QEAA@AEBU?$default_delete@V?$name_formatter@Vscoped_padder@details@spdlog@@@details@spdlog@@@1@@Z
	??$?0V?$name_formatter@Vscoped_padder@details@spdlog@@@details@spdlog@@U?$default_delete@V?$name_formatter@Vscoped_padder@details@spdlog@@@details@spdlog@@@std@@$0A@@?$unique_ptr@Vflag_formatter@details@spdlog@@U?$default_delete@Vflag_formatter@details@spdlog@@@std@@@std@@QEAA@$$QEAV?$unique_ptr@V?$name_formatter@Vscoped_padder@details@spdlog@@@details@spdlog@@U?$default_delete@V?$name_formatter@Vscoped_padder@details@spdlog@@@details@spdlog@@@std@@@1@@Z
	??$?0V?$p_formatter@Unull_scoped_padder@details@spdlog@@@details@spdlog@@$0A@@?$default_delete@Vflag_formatter@details@spdlog@@@std@@QEAA@AEBU?$default_delete@V?$p_formatter@Unull_scoped_padder@details@spdlog@@@details@spdlog@@@1@@Z
	??$?0V?$p_formatter@Unull_scoped_padder@details@spdlog@@@details@spdlog@@U?$default_delete@V?$p_formatter@Unull_scoped_padder@details@spdlog@@@details@spdlog@@@std@@$0A@@?$unique_ptr@Vflag_formatter@details@spdlog@@U?$default_delete@Vflag_formatter@details@spdlog@@@std@@@std@@QEAA@$$QEAV?$unique_ptr@V?$p_formatter@Unull_scoped_padder@details@spdlog@@@details@spdlog@@U?$default_delete@V?$p_formatter@Unull_scoped_padder@details@spdlog@@@details@spdlog@@@std@@@1@@Z
	??$?0V?$p_formatter@Vscoped_padder@details@spdlog@@@details@spdlog@@$0A@@?$default_delete@Vflag_formatter@details@spdlog@@@std@@QEAA@AEBU?$default_delete@V?$p_formatter@Vscoped_padder@details@spdlog@@@details@spdlog@@@1@@Z
	??$?0V?$p_formatter@Vscoped_padder@details@spdlog@@@details@spdlog@@U?$default_delete@V?$p_formatter@Vscoped_padder@details@spdlog@@@details@spdlog@@@std@@$0A@@?$unique_ptr@Vflag_formatter@details@spdlog@@U?$default_delete@Vflag_formatter@details@spdlog@@@std@@@std@@QEAA@$$QEAV?$unique_ptr@V?$p_formatter@Vscoped_padder@details@spdlog@@@details@spdlog@@U?$default_delete@V?$p_formatter@Vscoped_padder@details@spdlog@@@details@spdlog@@@std@@@1@@Z
	??$?0V?$pid_formatter@Unull_scoped_padder@details@spdlog@@@details@spdlog@@$0A@@?$default_delete@Vflag_formatter@details@spdlog@@@std@@QEAA@AEBU?$default_delete@V?$pid_formatter@Unull_scoped_padder@details@spdlog@@@details@spdlog@@@1@@Z
	??$?0V?$pid_formatter@Unull_scoped_padder@details@spdlog@@@details@spdlog@@U?$default_delete@V?$pid_formatter@Unull_scoped_padder@details@spdlog@@@details@spdlog@@@std@@$0A@@?$unique_ptr@Vflag_formatter@details@spdlog@@U?$default_delete@Vflag_formatter@details@spdlog@@@std@@@std@@QEAA@$$QEAV?$unique_ptr@V?$pid_formatter@Unull_scoped_padder@details@spdlog@@@details@spdlog@@U?$default_delete@V?$pid_formatter@Unull_scoped_padder@details@spdlog@@@details@spdlog@@@std@@@1@@Z
	??$?0V?$pid_formatter@Vscoped_padder@details@spdlog@@@details@spdlog@@$0A@@?$default_delete@Vflag_formatter@details@spdlog@@@std@@QEAA@AEBU?$default_delete@V?$pid_formatter@Vscoped_padder@details@spdlog@@@details@spdlog@@@1@@Z
	??$?0V?$pid_formatter@Vscoped_padder@details@spdlog@@@details@spdlog@@U?$default_delete@V?$pid_formatter@Vscoped_padder@details@spdlog@@@details@spdlog@@@std@@$0A@@?$unique_ptr@Vflag_formatter@details@spdlog@@U?$default_delete@Vflag_formatter@details@spdlog@@@std@@@std@@QEAA@$$QEAV?$unique_ptr@V?$pid_formatter@Vscoped_padder@details@spdlog@@@details@spdlog@@U?$default_delete@V?$pid_formatter@Vscoped_padder@details@spdlog@@@details@spdlog@@@std@@@1@@Z
	??$?0V?$r_formatter@Unull_scoped_padder@details@spdlog@@@details@spdlog@@$0A@@?$default_delete@Vflag_formatter@details@spdlog@@@std@@QEAA@AEBU?$default_delete@V?$r_formatter@Unull_scoped_padder@details@spdlog@@@details@spdlog@@@1@@Z
	??$?0V?$r_formatter@Unull_scoped_padder@details@spdlog@@@details@spdlog@@U?$default_delete@V?$r_formatter@Unull_scoped_padder@details@spdlog@@@details@spdlog@@@std@@$0A@@?$unique_ptr@Vflag_formatter@details@spdlog@@U?$default_delete@Vflag_formatter@details@spdlog@@@std@@@std@@QEAA@$$QEAV?$unique_ptr@V?$r_formatter@Unull_scoped_padder@details@spdlog@@@details@spdlog@@U?$default_delete@V?$r_formatter@Unull_scoped_padder@details@spdlog@@@details@spdlog@@@std@@@1@@Z
	??$?0V?$r_formatter@Vscoped_padder@details@spdlog@@@details@spdlog@@$0A@@?$default_delete@Vflag_formatter@details@spdlog@@@std@@QEAA@AEBU?$default_delete@V?$r_formatter@Vscoped_padder@details@spdlog@@@details@spdlog@@@1@@Z
	??$?0V?$r_formatter@Vscoped_padder@details@spdlog@@@details@spdlog@@U?$default_delete@V?$r_formatter@Vscoped_padder@details@spdlog@@@details@spdlog@@@std@@$0A@@?$unique_ptr@Vflag_formatter@details@spdlog@@U?$default_delete@Vflag_formatter@details@spdlog@@@std@@@std@@QEAA@$$QEAV?$unique_ptr@V?$r_formatter@Vscoped_padder@details@spdlog@@@details@spdlog@@U?$default_delete@V?$r_formatter@Vscoped_padder@details@spdlog@@@details@spdlog@@@std@@@1@@Z
	??$?0V?$short_filename_formatter@Unull_scoped_padder@details@spdlog@@@details@spdlog@@$0A@@?$default_delete@Vflag_formatter@details@spdlog@@@std@@QEAA@AEBU?$default_delete@V?$short_filename_formatter@Unull_scoped_padder@details@spdlog@@@details@spdlog@@@1@@Z
	??$?0V?$short_filename_formatter@Unull_scoped_padder@details@spdlog@@@details@spdlog@@U?$default_delete@V?$short_filename_formatter@Unull_scoped_padder@details@spdlog@@@details@spdlog@@@std@@$0A@@?$unique_ptr@Vflag_formatter@details@spdlog@@U?$default_delete@Vflag_formatter@details@spdlog@@@std@@@std@@QEAA@$$QEAV?$unique_ptr@V?$short_filename_formatter@Unull_scoped_padder@details@spdlog@@@details@spdlog@@U?$default_delete@V?$short_filename_formatter@Unull_scoped_padder@details@spdlog@@@details@spdlog@@@std@@@1@@Z
	??$?0V?$short_filename_formatter@Vscoped_padder@details@spdlog@@@details@spdlog@@$0A@@?$default_delete@Vflag_formatter@details@spdlog@@@std@@QEAA@AEBU?$default_delete@V?$short_filename_formatter@Vscoped_padder@details@spdlog@@@details@spdlog@@@1@@Z
	??$?0V?$short_filename_formatter@Vscoped_padder@details@spdlog@@@details@spdlog@@U?$default_delete@V?$short_filename_formatter@Vscoped_padder@details@spdlog@@@details@spdlog@@@std@@$0A@@?$unique_ptr@Vflag_formatter@details@spdlog@@U?$default_delete@Vflag_formatter@details@spdlog@@@std@@@std@@QEAA@$$QEAV?$unique_ptr@V?$short_filename_formatter@Vscoped_padder@details@spdlog@@@details@spdlog@@U?$default_delete@V?$short_filename_formatter@Vscoped_padder@details@spdlog@@@details@spdlog@@@std@@@1@@Z
	??$?0V?$short_level_formatter@Unull_scoped_padder@details@spdlog@@@details@spdlog@@$0A@@?$default_delete@Vflag_formatter@details@spdlog@@@std@@QEAA@AEBU?$default_delete@V?$short_level_formatter@Unull_scoped_padder@details@spdlog@@@details@spdlog@@@1@@Z
	??$?0V?$short_level_formatter@Unull_scoped_padder@details@spdlog@@@details@spdlog@@U?$default_delete@V?$short_level_formatter@Unull_scoped_padder@details@spdlog@@@details@spdlog@@@std@@$0A@@?$unique_ptr@Vflag_formatter@details@spdlog@@U?$default_delete@Vflag_formatter@details@spdlog@@@std@@@std@@QEAA@$$QEAV?$unique_ptr@V?$short_level_formatter@Unull_scoped_padder@details@spdlog@@@details@spdlog@@U?$default_delete@V?$short_level_formatter@Unull_scoped_padder@details@spdlog@@@details@spdlog@@@std@@@1@@Z
	??$?0V?$short_level_formatter@Vscoped_padder@details@spdlog@@@details@spdlog@@$0A@@?$default_delete@Vflag_formatter@details@spdlog@@@std@@QEAA@AEBU?$default_delete@V?$short_level_formatter@Vscoped_padder@details@spdlog@@@details@spdlog@@@1@@Z
	??$?0V?$short_level_formatter@Vscoped_padder@details@spdlog@@@details@spdlog@@U?$default_delete@V?$short_level_formatter@Vscoped_padder@details@spdlog@@@details@spdlog@@@std@@$0A@@?$unique_ptr@Vflag_formatter@details@spdlog@@U?$default_delete@Vflag_formatter@details@spdlog@@@std@@@std@@QEAA@$$QEAV?$unique_ptr@V?$short_level_formatter@Vscoped_padder@details@spdlog@@@details@spdlog@@U?$default_delete@V?$short_level_formatter@Vscoped_padder@details@spdlog@@@details@spdlog@@@std@@@1@@Z
	??$?0V?$source_filename_formatter@Unull_scoped_padder@details@spdlog@@@details@spdlog@@$0A@@?$default_delete@Vflag_formatter@details@spdlog@@@std@@QEAA@AEBU?$default_delete@V?$source_filename_formatter@Unull_scoped_padder@details@spdlog@@@details@spdlog@@@1@@Z
	??$?0V?$source_filename_formatter@Unull_scoped_padder@details@spdlog@@@details@spdlog@@U?$default_delete@V?$source_filename_formatter@Unull_scoped_padder@details@spdlog@@@details@spdlog@@@std@@$0A@@?$unique_ptr@Vflag_formatter@details@spdlog@@U?$default_delete@Vflag_formatter@details@spdlog@@@std@@@std@@QEAA@$$QEAV?$unique_ptr@V?$source_filename_formatter@Unull_scoped_padder@details@spdlog@@@details@spdlog@@U?$default_delete@V?$source_filename_formatter@Unull_scoped_padder@details@spdlog@@@details@spdlog@@@std@@@1@@Z
	??$?0V?$source_filename_formatter@Vscoped_padder@details@spdlog@@@details@spdlog@@$0A@@?$default_delete@Vflag_formatter@details@spdlog@@@std@@QEAA@AEBU?$default_delete@V?$source_filename_formatter@Vscoped_padder@details@spdlog@@@details@spdlog@@@1@@Z
	??$?0V?$source_filename_formatter@Vscoped_padder@details@spdlog@@@details@spdlog@@U?$default_delete@V?$source_filename_formatter@Vscoped_padder@details@spdlog@@@details@spdlog@@@std@@$0A@@?$unique_ptr@Vflag_formatter@details@spdlog@@U?$default_delete@Vflag_formatter@details@spdlog@@@std@@@std@@QEAA@$$QEAV?$unique_ptr@V?$source_filename_formatter@Vscoped_padder@details@spdlog@@@details@spdlog@@U?$default_delete@V?$source_filename_formatter@Vscoped_padder@details@spdlog@@@details@spdlog@@@std@@@1@@Z
	??$?0V?$source_funcname_formatter@Unull_scoped_padder@details@spdlog@@@details@spdlog@@$0A@@?$default_delete@Vflag_formatter@details@spdlog@@@std@@QEAA@AEBU?$default_delete@V?$source_funcname_formatter@Unull_scoped_padder@details@spdlog@@@details@spdlog@@@1@@Z
	??$?0V?$source_funcname_formatter@Unull_scoped_padder@details@spdlog@@@details@spdlog@@U?$default_delete@V?$source_funcname_formatter@Unull_scoped_padder@details@spdlog@@@details@spdlog@@@std@@$0A@@?$unique_ptr@Vflag_formatter@details@spdlog@@U?$default_delete@Vflag_formatter@details@spdlog@@@std@@@std@@QEAA@$$QEAV?$unique_ptr@V?$source_funcname_formatter@Unull_scoped_padder@details@spdlog@@@details@spdlog@@U?$default_delete@V?$source_funcname_formatter@Unull_scoped_padder@details@spdlog@@@details@spdlog@@@std@@@1@@Z
	??$?0V?$source_funcname_formatter@Vscoped_padder@details@spdlog@@@details@spdlog@@$0A@@?$default_delete@Vflag_formatter@details@spdlog@@@std@@QEAA@AEBU?$default_delete@V?$source_funcname_formatter@Vscoped_padder@details@spdlog@@@details@spdlog@@@1@@Z
	??$?0V?$source_funcname_formatter@Vscoped_padder@details@spdlog@@@details@spdlog@@U?$default_delete@V?$source_funcname_formatter@Vscoped_padder@details@spdlog@@@details@spdlog@@@std@@$0A@@?$unique_ptr@Vflag_formatter@details@spdlog@@U?$default_delete@Vflag_formatter@details@spdlog@@@std@@@std@@QEAA@$$QEAV?$unique_ptr@V?$source_funcname_formatter@Vscoped_padder@details@spdlog@@@details@spdlog@@U?$default_delete@V?$source_funcname_formatter@Vscoped_padder@details@spdlog@@@details@spdlog@@@std@@@1@@Z
	??$?0V?$source_linenum_formatter@Unull_scoped_padder@details@spdlog@@@details@spdlog@@$0A@@?$default_delete@Vflag_formatter@details@spdlog@@@std@@QEAA@AEBU?$default_delete@V?$source_linenum_formatter@Unull_scoped_padder@details@spdlog@@@details@spdlog@@@1@@Z
	??$?0V?$source_linenum_formatter@Unull_scoped_padder@details@spdlog@@@details@spdlog@@U?$default_delete@V?$source_linenum_formatter@Unull_scoped_padder@details@spdlog@@@details@spdlog@@@std@@$0A@@?$unique_ptr@Vflag_formatter@details@spdlog@@U?$default_delete@Vflag_formatter@details@spdlog@@@std@@@std@@QEAA@$$QEAV?$unique_ptr@V?$source_linenum_formatter@Unull_scoped_padder@details@spdlog@@@details@spdlog@@U?$default_delete@V?$source_linenum_formatter@Unull_scoped_padder@details@spdlog@@@details@spdlog@@@std@@@1@@Z
	??$?0V?$source_linenum_formatter@Vscoped_padder@details@spdlog@@@details@spdlog@@$0A@@?$default_delete@Vflag_formatter@details@spdlog@@@std@@QEAA@AEBU?$default_delete@V?$source_linenum_formatter@Vscoped_padder@details@spdlog@@@details@spdlog@@@1@@Z
	??$?0V?$source_linenum_formatter@Vscoped_padder@details@spdlog@@@details@spdlog@@U?$default_delete@V?$source_linenum_formatter@Vscoped_padder@details@spdlog@@@details@spdlog@@@std@@$0A@@?$unique_ptr@Vflag_formatter@details@spdlog@@U?$default_delete@Vflag_formatter@details@spdlog@@@std@@@std@@QEAA@$$QEAV?$unique_ptr@V?$source_linenum_formatter@Vscoped_padder@details@spdlog@@@details@spdlog@@U?$default_delete@V?$source_linenum_formatter@Vscoped_padder@details@spdlog@@@details@spdlog@@@std@@@1@@Z
	??$?0V?$source_location_formatter@Unull_scoped_padder@details@spdlog@@@details@spdlog@@$0A@@?$default_delete@Vflag_formatter@details@spdlog@@@std@@QEAA@AEBU?$default_delete@V?$source_location_formatter@Unull_scoped_padder@details@spdlog@@@details@spdlog@@@1@@Z
	??$?0V?$source_location_formatter@Unull_scoped_padder@details@spdlog@@@details@spdlog@@U?$default_delete@V?$source_location_formatter@Unull_scoped_padder@details@spdlog@@@details@spdlog@@@std@@$0A@@?$unique_ptr@Vflag_formatter@details@spdlog@@U?$default_delete@Vflag_formatter@details@spdlog@@@std@@@std@@QEAA@$$QEAV?$unique_ptr@V?$source_location_formatter@Unull_scoped_padder@details@spdlog@@@details@spdlog@@U?$default_delete@V?$source_location_formatter@Unull_scoped_padder@details@spdlog@@@details@spdlog@@@std@@@1@@Z
	??$?0V?$source_location_formatter@Vscoped_padder@details@spdlog@@@details@spdlog@@$0A@@?$default_delete@Vflag_formatter@details@spdlog@@@std@@QEAA@AEBU?$default_delete@V?$source_location_formatter@Vscoped_padder@details@spdlog@@@details@spdlog@@@1@@Z
	??$?0V?$source_location_formatter@Vscoped_padder@details@spdlog@@@details@spdlog@@U?$default_delete@V?$source_location_formatter@Vscoped_padder@details@spdlog@@@details@spdlog@@@std@@$0A@@?$unique_ptr@Vflag_formatter@details@spdlog@@U?$default_delete@Vflag_formatter@details@spdlog@@@std@@@std@@QEAA@$$QEAV?$unique_ptr@V?$source_location_formatter@Vscoped_padder@details@spdlog@@@details@spdlog@@U?$default_delete@V?$source_location_formatter@Vscoped_padder@details@spdlog@@@details@spdlog@@@std@@@1@@Z
	??$?0V?$t_formatter@Unull_scoped_padder@details@spdlog@@@details@spdlog@@$0A@@?$default_delete@Vflag_formatter@details@spdlog@@@std@@QEAA@AEBU?$default_delete@V?$t_formatter@Unull_scoped_padder@details@spdlog@@@details@spdlog@@@1@@Z
	??$?0V?$t_formatter@Unull_scoped_padder@details@spdlog@@@details@spdlog@@U?$default_delete@V?$t_formatter@Unull_scoped_padder@details@spdlog@@@details@spdlog@@@std@@$0A@@?$unique_ptr@Vflag_formatter@details@spdlog@@U?$default_delete@Vflag_formatter@details@spdlog@@@std@@@std@@QEAA@$$QEAV?$unique_ptr@V?$t_formatter@Unull_scoped_padder@details@spdlog@@@details@spdlog@@U?$default_delete@V?$t_formatter@Unull_scoped_padder@details@spdlog@@@details@spdlog@@@std@@@1@@Z
	??$?0V?$t_formatter@Vscoped_padder@details@spdlog@@@details@spdlog@@$0A@@?$default_delete@Vflag_formatter@details@spdlog@@@std@@QEAA@AEBU?$default_delete@V?$t_formatter@Vscoped_padder@details@spdlog@@@details@spdlog@@@1@@Z
	??$?0V?$t_formatter@Vscoped_padder@details@spdlog@@@details@spdlog@@U?$default_delete@V?$t_formatter@Vscoped_padder@details@spdlog@@@details@spdlog@@@std@@$0A@@?$unique_ptr@Vflag_formatter@details@spdlog@@U?$default_delete@Vflag_formatter@details@spdlog@@@std@@@std@@QEAA@$$QEAV?$unique_ptr@V?$t_formatter@Vscoped_padder@details@spdlog@@@details@spdlog@@U?$default_delete@V?$t_formatter@Vscoped_padder@details@spdlog@@@details@spdlog@@@std@@@1@@Z
	??$?0V?$tuple@$$QEAV?$basic_string@DU?$char_traits@D@std@@V?$allocator@D@2@@std@@@std@@V?$tuple@$$V@1@$0A@$$Z$S@?$pair@$$CBV?$basic_string@DU?$char_traits@D@std@@V?$allocator@D@2@@std@@V?$shared_ptr@Vlogger@spdlog@@@2@@std@@AEAA@AEAV?$tuple@$$QEAV?$basic_string@DU?$char_traits@D@std@@V?$allocator@D@2@@std@@@1@AEAV?$tuple@$$V@1@U?$integer_sequence@_K$0A@@1@U?$integer_sequence@_K$S@1@@Z
	??$?0V?$tuple@AEBD@std@@V?$tuple@$$V@1@$0A@$$Z$S@?$pair@$$CBDV?$unique_ptr@Vcustom_flag_formatter@spdlog@@U?$default_delete@Vcustom_flag_formatter@spdlog@@@std@@@std@@@std@@AEAA@AEAV?$tuple@AEBD@1@AEAV?$tuple@$$V@1@U?$integer_sequence@_K$0A@@1@U?$integer_sequence@_K$S@1@@Z
	??$?0V?$tuple@AEBV?$basic_string@DU?$char_traits@D@std@@V?$allocator@D@2@@std@@@std@@V?$tuple@$$V@1@$0A@$$Z$S@?$pair@$$CBV?$basic_string@DU?$char_traits@D@std@@V?$allocator@D@2@@std@@V?$shared_ptr@Vlogger@spdlog@@@2@@std@@AEAA@AEAV?$tuple@AEBV?$basic_string@DU?$char_traits@D@std@@V?$allocator@D@2@@std@@@1@AEAV?$tuple@$$V@1@U?$integer_sequence@_K$0A@@1@U?$integer_sequence@_K$S@1@@Z
	??$?0V?$v_formatter@Unull_scoped_padder@details@spdlog@@@details@spdlog@@$0A@@?$default_delete@Vflag_formatter@details@spdlog@@@std@@QEAA@AEBU?$default_delete@V?$v_formatter@Unull_scoped_padder@details@spdlog@@@details@spdlog@@@1@@Z
	??$?0V?$v_formatter@Unull_scoped_padder@details@spdlog@@@details@spdlog@@U?$default_delete@V?$v_formatter@Unull_scoped_padder@details@spdlog@@@details@spdlog@@@std@@$0A@@?$unique_ptr@Vflag_formatter@details@spdlog@@U?$default_delete@Vflag_formatter@details@spdlog@@@std@@@std@@QEAA@$$QEAV?$unique_ptr@V?$v_formatter@Unull_scoped_padder@details@spdlog@@@details@spdlog@@U?$default_delete@V?$v_formatter@Unull_scoped_padder@details@spdlog@@@details@spdlog@@@std@@@1@@Z
	??$?0V?$v_formatter@Vscoped_padder@details@spdlog@@@details@spdlog@@$0A@@?$default_delete@Vflag_formatter@details@spdlog@@@std@@QEAA@AEBU?$default_delete@V?$v_formatter@Vscoped_padder@details@spdlog@@@details@spdlog@@@1@@Z
	??$?0V?$v_formatter@Vscoped_padder@details@spdlog@@@details@spdlog@@U?$default_delete@V?$v_formatter@Vscoped_padder@details@spdlog@@@details@spdlog@@@std@@$0A@@?$unique_ptr@Vflag_formatter@details@spdlog@@U?$default_delete@Vflag_formatter@details@spdlog@@@std@@@std@@QEAA@$$QEAV?$unique_ptr@V?$v_formatter@Vscoped_padder@details@spdlog@@@details@spdlog@@U?$default_delete@V?$v_formatter@Vscoped_padder@details@spdlog@@@details@spdlog@@@std@@@1@@Z
	??$?0V?$wincolor_stdout_sink@Uconsole_mutex@details@spdlog@@@sinks@spdlog@@$0A@@?$shared_ptr@Vsink@sinks@spdlog@@@std@@QEAA@$$QEAV?$shared_ptr@V?$wincolor_stdout_sink@Uconsole_mutex@details@spdlog@@@sinks@spdlog@@@1@@Z
	??$?0V?$z_formatter@Unull_scoped_padder@details@spdlog@@@details@spdlog@@$0A@@?$default_delete@Vflag_formatter@details@spdlog@@@std@@QEAA@AEBU?$default_delete@V?$z_formatter@Unull_scoped_padder@details@spdlog@@@details@spdlog@@@1@@Z
	??$?0V?$z_formatter@Unull_scoped_padder@details@spdlog@@@details@spdlog@@U?$default_delete@V?$z_formatter@Unull_scoped_padder@details@spdlog@@@details@spdlog@@@std@@$0A@@?$unique_ptr@Vflag_formatter@details@spdlog@@U?$default_delete@Vflag_formatter@details@spdlog@@@std@@@std@@QEAA@$$QEAV?$unique_ptr@V?$z_formatter@Unull_scoped_padder@details@spdlog@@@details@spdlog@@U?$default_delete@V?$z_formatter@Unull_scoped_padder@details@spdlog@@@details@spdlog@@@std@@@1@@Z
	??$?0V?$z_formatter@Vscoped_padder@details@spdlog@@@details@spdlog@@$0A@@?$default_delete@Vflag_formatter@details@spdlog@@@std@@QEAA@AEBU?$default_delete@V?$z_formatter@Vscoped_padder@details@spdlog@@@details@spdlog@@@1@@Z
	??$?0V?$z_formatter@Vscoped_padder@details@spdlog@@@details@spdlog@@U?$default_delete@V?$z_formatter@Vscoped_padder@details@spdlog@@@details@spdlog@@@std@@$0A@@?$unique_ptr@Vflag_formatter@details@spdlog@@U?$default_delete@Vflag_formatter@details@spdlog@@@std@@@std@@QEAA@$$QEAV?$unique_ptr@V?$z_formatter@Vscoped_padder@details@spdlog@@@details@spdlog@@U?$default_delete@V?$z_formatter@Vscoped_padder@details@spdlog@@@details@spdlog@@@std@@@1@@Z
	??$?0Vaggregate_formatter@details@spdlog@@$0A@@?$default_delete@Vflag_formatter@details@spdlog@@@std@@QEAA@AEBU?$default_delete@Vaggregate_formatter@details@spdlog@@@1@@Z
	??$?0Vaggregate_formatter@details@spdlog@@U?$default_delete@Vaggregate_formatter@details@spdlog@@@std@@$0A@@?$unique_ptr@Vflag_formatter@details@spdlog@@U?$default_delete@Vflag_formatter@details@spdlog@@@std@@@std@@QEAA@$$QEAV?$unique_ptr@Vaggregate_formatter@details@spdlog@@U?$default_delete@Vaggregate_formatter@details@spdlog@@@std@@@1@@Z
	??$?0Vch_formatter@details@spdlog@@$0A@@?$default_delete@Vflag_formatter@details@spdlog@@@std@@QEAA@AEBU?$default_delete@Vch_formatter@details@spdlog@@@1@@Z
	??$?0Vch_formatter@details@spdlog@@U?$default_delete@Vch_formatter@details@spdlog@@@std@@$0A@@?$unique_ptr@Vflag_formatter@details@spdlog@@U?$default_delete@Vflag_formatter@details@spdlog@@@std@@@std@@QEAA@$$QEAV?$unique_ptr@Vch_formatter@details@spdlog@@U?$default_delete@Vch_formatter@details@spdlog@@@std@@@1@@Z
	??$?0Vcolor_start_formatter@details@spdlog@@$0A@@?$default_delete@Vflag_formatter@details@spdlog@@@std@@QEAA@AEBU?$default_delete@Vcolor_start_formatter@details@spdlog@@@1@@Z
	??$?0Vcolor_start_formatter@details@spdlog@@U?$default_delete@Vcolor_start_formatter@details@spdlog@@@std@@$0A@@?$unique_ptr@Vflag_formatter@details@spdlog@@U?$default_delete@Vflag_formatter@details@spdlog@@@std@@@std@@QEAA@$$QEAV?$unique_ptr@Vcolor_start_formatter@details@spdlog@@U?$default_delete@Vcolor_start_formatter@details@spdlog@@@std@@@1@@Z
	??$?0Vcolor_stop_formatter@details@spdlog@@$0A@@?$default_delete@Vflag_formatter@details@spdlog@@@std@@QEAA@AEBU?$default_delete@Vcolor_stop_formatter@details@spdlog@@@1@@Z
	??$?0Vcolor_stop_formatter@details@spdlog@@U?$default_delete@Vcolor_stop_formatter@details@spdlog@@@std@@$0A@@?$unique_ptr@Vflag_formatter@details@spdlog@@U?$default_delete@Vflag_formatter@details@spdlog@@@std@@@std@@QEAA@$$QEAV?$unique_ptr@Vcolor_stop_formatter@details@spdlog@@U?$default_delete@Vcolor_stop_formatter@details@spdlog@@@std@@@1@@Z
	??$?0Vcustom_flag_formatter@spdlog@@$0A@@?$default_delete@Vflag_formatter@details@spdlog@@@std@@QEAA@AEBU?$default_delete@Vcustom_flag_formatter@spdlog@@@1@@Z
	??$?0Vcustom_flag_formatter@spdlog@@U?$default_delete@Vcustom_flag_formatter@spdlog@@@std@@$0A@@?$unique_ptr@Vflag_formatter@details@spdlog@@U?$default_delete@Vflag_formatter@details@spdlog@@@std@@@std@@QEAA@$$QEAV?$unique_ptr@Vcustom_flag_formatter@spdlog@@U?$default_delete@Vcustom_flag_formatter@spdlog@@@std@@@1@@Z
	??$?0Vfull_formatter@details@spdlog@@$0A@@?$default_delete@Vflag_formatter@details@spdlog@@@std@@QEAA@AEBU?$default_delete@Vfull_formatter@details@spdlog@@@1@@Z
	??$?0Vfull_formatter@details@spdlog@@U?$default_delete@Vfull_formatter@details@spdlog@@@std@@$0A@@?$unique_ptr@Vflag_formatter@details@spdlog@@U?$default_delete@Vflag_formatter@details@spdlog@@@std@@@std@@QEAA@$$QEAV?$unique_ptr@Vfull_formatter@details@spdlog@@U?$default_delete@Vfull_formatter@details@spdlog@@@std@@@1@@Z
	??$?0Vpattern_formatter@spdlog@@$0A@@?$default_delete@Vformatter@spdlog@@@std@@QEAA@AEBU?$default_delete@Vpattern_formatter@spdlog@@@1@@Z
	??$?0Vpattern_formatter@spdlog@@U?$default_delete@Vpattern_formatter@spdlog@@@std@@$0A@@?$unique_ptr@Vformatter@spdlog@@U?$default_delete@Vformatter@spdlog@@@std@@@std@@QEAA@$$QEAV?$unique_ptr@Vpattern_formatter@spdlog@@U?$default_delete@Vpattern_formatter@spdlog@@@std@@@1@@Z
	??$?0_J$0A@@?$duration@_JU?$ratio@$00$00@std@@@chrono@std@@QEAA@AEB_J@Z
	??$?0_J$0A@@?$duration@_JU?$ratio@$00$0DLJKMKAA@@std@@@chrono@std@@QEAA@AEB_J@Z
	??$?0_J$0A@@?$duration@_JU?$ratio@$00$0DOI@@std@@@chrono@std@@QEAA@AEB_J@Z
	??$?0_J$0A@@?$duration@_JU?$ratio@$00$0JIJGIA@@std@@@chrono@std@@QEAA@AEB_J@Z
	??$?0_J$0A@@?$duration@_JU?$ratio@$00$0PECEA@@std@@@chrono@std@@QEAA@AEB_J@Z
	??$?0_J$0A@@loc_value@v11@fmt@@QEAA@_J@Z
	??$?0_JU?$ratio@$00$00@std@@$0A@@?$duration@_JU?$ratio@$00$0JIJGIA@@std@@@chrono@std@@QEAA@AEBV?$duration@_JU?$ratio@$00$00@std@@@12@@Z
	??$?0_K$0A@@loc_value@v11@fmt@@QEAA@_K@Z
	??$?4H@bigint@detail@v11@fmt@@QEAAXH@Z
	??$?4U?$default_delete@Vaggregate_formatter@details@spdlog@@@std@@$0A@@?$unique_ptr@Vaggregate_formatter@details@spdlog@@U?$default_delete@Vaggregate_formatter@details@spdlog@@@std@@@std@@QEAAAEAV01@$$QEAV01@@Z
	??$?4U?$default_delete@Vcustom_flag_formatter@spdlog@@@std@@$0A@@?$unique_ptr@Vcustom_flag_formatter@spdlog@@U?$default_delete@Vcustom_flag_formatter@spdlog@@@std@@@std@@QEAAAEAV01@$$QEAV01@@Z
	??$?4U?$default_delete@Vformatter@spdlog@@@std@@$0A@@?$unique_ptr@Vformatter@spdlog@@U?$default_delete@Vformatter@spdlog@@@std@@@std@@QEAAAEAV01@$$QEAV01@@Z
	??$?4Vuint128_fallback@detail@v11@fmt@@@bigint@detail@v11@fmt@@QEAAXVuint128_fallback@123@@Z
	??$?4_K@bigint@detail@v11@fmt@@QEAAX_K@Z
	??$?8DU?$char_traits@D@std@@V?$allocator@D@1@@std@@YA_NAEBV?$basic_string@DU?$char_traits@D@std@@V?$allocator@D@2@@0@0@Z
	??$?8_JU?$ratio@$00$00@std@@_JU01@@chrono@std@@YA_NAEBV?$duration@_JU?$ratio@$00$00@std@@@01@0@Z
	??$?9PEBDPEBD@std@@YA_NAEBV?$reverse_iterator@PEBD@0@0@Z
	??$?AH@?$buffer@D@detail@v11@fmt@@QEAAAEADH@Z
	??$?AH@?$buffer@H@detail@v11@fmt@@QEAAAEAHH@Z
	??$?AH@?$buffer@I@detail@v11@fmt@@QEAAAEAIH@Z
	??$?AH@?$buffer@I@detail@v11@fmt@@QEBAAEBIH@Z
	??$?A_K@?$buffer@D@detail@v11@fmt@@QEAAAEAD_K@Z
	??$?A_K@?$buffer@I@detail@v11@fmt@@QEAAAEAI_K@Z
	??$?A_K@?$buffer@I@detail@v11@fmt@@QEBAAEBI_K@Z
	??$?BI$0A@@uint128_fallback@detail@v11@fmt@@QEBAIXZ
	??$?B_K$0A@@uint128_fallback@detail@v11@fmt@@QEBA_KXZ
	??$?CVlogger@spdlog@@$0A@@?$shared_ptr@Vlogger@spdlog@@@std@@QEBAPEAVlogger@spdlog@@XZ
	??$?CVsink@sinks@spdlog@@$0A@@?$shared_ptr@Vsink@sinks@spdlog@@@std@@QEBAPEAVsink@sinks@spdlog@@XZ
	??$?GUsystem_clock@chrono@std@@V?$duration@_JU?$ratio@$00$0JIJGIA@@std@@@12@V312@@chrono@std@@YA?AV?$duration@_JU?$ratio@$00$0JIJGIA@@std@@@01@AEBV?$time_point@Usystem_clock@chrono@std@@V?$duration@_JU?$ratio@$00$0JIJGIA@@std@@@23@@01@0@Z
	??$?G_JU?$ratio@$00$0DLJKMKAA@@std@@_JU01@@chrono@std@@YA?AV?$duration@_JU?$ratio@$00$0DLJKMKAA@@std@@@01@AEBV201@0@Z
	??$?G_JU?$ratio@$00$0DOI@@std@@_JU01@@chrono@std@@YA?AV?$duration@_JU?$ratio@$00$0DOI@@std@@@01@AEBV201@0@Z
	??$?G_JU?$ratio@$00$0JIJGIA@@std@@_JU01@@chrono@std@@YA?AV?$duration@_JU?$ratio@$00$0JIJGIA@@std@@@01@AEBV201@0@Z
	??$?G_JU?$ratio@$00$0PECEA@@std@@_JU01@@chrono@std@@YA?AV?$duration@_JU?$ratio@$00$0PECEA@@std@@@01@AEBV201@0@Z
	??$?HDU?$char_traits@D@std@@V?$allocator@D@1@@std@@YA?AV?$basic_string@DU?$char_traits@D@std@@V?$allocator@D@2@@0@$$QEAV10@QEBD@Z
	??$?HDU?$char_traits@D@std@@V?$allocator@D@1@@std@@YA?AV?$basic_string@DU?$char_traits@D@std@@V?$allocator@D@2@@0@QEBDAEBV10@@Z
	??$?RAEBDAEBD@?$equal_to@X@std@@QEBA_NAEBD0@Z
	??$?RD$0A@@?$arg_formatter@D@detail@v11@fmt@@QEAAXD@Z
	??$?RD$0A@@?$default_arg_formatter@D@detail@v11@fmt@@QEAAXD@Z
	??$?RD$0A@@?$loc_writer@D@detail@v11@fmt@@QEAA_ND@Z
	??$?RD$0A@@dynamic_spec_getter@detail@v11@fmt@@QEAA_KD@Z
	??$?RD@?$_Uhash_compare@DU?$hash@D@std@@U?$equal_to@D@2@@std@@QEBA_KAEBD@Z
	??$?RDD@?$_Uhash_compare@DU?$hash@D@std@@U?$equal_to@D@2@@std@@QEBA_NAEBD0@Z
	??$?RH$0A@@?$arg_formatter@D@detail@v11@fmt@@QEAAXH@Z
	??$?RH$0A@@?$default_arg_formatter@D@detail@v11@fmt@@QEAAXH@Z
	??$?RH$0A@@?$loc_writer@D@detail@v11@fmt@@QEAA_NH@Z
	??$?RH$0A@@dynamic_spec_getter@detail@v11@fmt@@QEAA_KH@Z
	??$?RI$0A@@?$arg_formatter@D@detail@v11@fmt@@QEAAXI@Z
	??$?RI$0A@@?$default_arg_formatter@D@detail@v11@fmt@@QEAAXI@Z
	??$?RI$0A@@?$loc_writer@D@detail@v11@fmt@@QEAA_NI@Z
	??$?RI$0A@@dynamic_spec_getter@detail@v11@fmt@@QEAA_KI@Z
	??$?RM$0A@@?$arg_formatter@D@detail@v11@fmt@@QEAAXM@Z
	??$?RM$0A@@?$default_arg_formatter@D@detail@v11@fmt@@QEAAXM@Z
	??$?RM$0A@@?$loc_writer@D@detail@v11@fmt@@QEAA_NM@Z
	??$?RM$0A@@dynamic_spec_getter@detail@v11@fmt@@QEAA_KM@Z
	??$?RN$0A@@?$arg_formatter@D@detail@v11@fmt@@QEAAXN@Z
	??$?RN$0A@@?$default_arg_formatter@D@detail@v11@fmt@@QEAAXN@Z
	??$?RN$0A@@?$loc_writer@D@detail@v11@fmt@@QEAA_NN@Z
	??$?RN$0A@@dynamic_spec_getter@detail@v11@fmt@@QEAA_KN@Z
	??$?RO$0A@@?$arg_formatter@D@detail@v11@fmt@@QEAAXO@Z
	??$?RO$0A@@?$default_arg_formatter@D@detail@v11@fmt@@QEAAXO@Z
	??$?RO$0A@@?$loc_writer@D@detail@v11@fmt@@QEAA_NO@Z
	??$?RO$0A@@dynamic_spec_getter@detail@v11@fmt@@QEAA_KO@Z
	??$?RPEBD$0A@@?$arg_formatter@D@detail@v11@fmt@@QEAAXPEBD@Z
	??$?RPEBD$0A@@?$default_arg_formatter@D@detail@v11@fmt@@QEAAXPEBD@Z
	??$?RPEBD$0A@@?$loc_writer@D@detail@v11@fmt@@QEAA_NPEBD@Z
	??$?RPEBD$0A@@dynamic_spec_getter@detail@v11@fmt@@QEAA_KPEBD@Z
	??$?RPEBX$0A@@?$arg_formatter@D@detail@v11@fmt@@QEAAXPEBX@Z
	??$?RPEBX$0A@@?$default_arg_formatter@D@detail@v11@fmt@@QEAAXPEBX@Z
	??$?RPEBX$0A@@?$loc_writer@D@detail@v11@fmt@@QEAA_NPEBX@Z
	??$?RPEBX$0A@@dynamic_spec_getter@detail@v11@fmt@@QEAA_KPEBX@Z
	??$?RUmonostate@v11@fmt@@$0A@@?$arg_formatter@D@detail@v11@fmt@@QEAAXUmonostate@23@@Z
	??$?RUmonostate@v11@fmt@@$0A@@?$loc_writer@D@detail@v11@fmt@@QEAA_NUmonostate@23@@Z
	??$?RUmonostate@v11@fmt@@$0A@@dynamic_spec_getter@detail@v11@fmt@@QEAA_KUmonostate@23@@Z
	??$?RV?$basic_string@DU?$char_traits@D@std@@V?$allocator@D@2@@std@@@?$_Uhash_compare@V?$basic_string@DU?$char_traits@D@std@@V?$allocator@D@2@@std@@U?$hash@V?$basic_string@DU?$char_traits@D@std@@V?$allocator@D@2@@std@@@2@U?$equal_to@V?$basic_string@DU?$char_traits@D@std@@V?$allocator@D@2@@std@@@2@@std@@QEBA_KAEBV?$basic_string@DU?$char_traits@D@std@@V?$allocator@D@2@@1@@Z
	??$?RV?$basic_string@DU?$char_traits@D@std@@V?$allocator@D@2@@std@@V01@@?$_Uhash_compare@V?$basic_string@DU?$char_traits@D@std@@V?$allocator@D@2@@std@@U?$hash@V?$basic_string@DU?$char_traits@D@std@@V?$allocator@D@2@@std@@@2@U?$equal_to@V?$basic_string@DU?$char_traits@D@std@@V?$allocator@D@2@@std@@@2@@std@@QEBA_NAEBV?$basic_string@DU?$char_traits@D@std@@V?$allocator@D@2@@1@0@Z
	??$?RV?$basic_string_view@D@v11@fmt@@$0A@@?$arg_formatter@D@detail@v11@fmt@@QEAAXV?$basic_string_view@D@23@@Z
	??$?RV?$basic_string_view@D@v11@fmt@@$0A@@?$default_arg_formatter@D@detail@v11@fmt@@QEAAXV?$basic_string_view@D@23@@Z
	??$?RV?$basic_string_view@D@v11@fmt@@$0A@@?$loc_writer@D@detail@v11@fmt@@QEAA_NV?$basic_string_view@D@23@@Z
	??$?RV?$basic_string_view@D@v11@fmt@@$0A@@dynamic_spec_getter@detail@v11@fmt@@QEAA_KV?$basic_string_view@D@23@@Z
	??$?RVhandle@?$basic_format_arg@Vcontext@v11@fmt@@@v11@fmt@@$0A@@?$loc_writer@D@detail@v11@fmt@@QEAA_NVhandle@?$basic_format_arg@Vcontext@v11@fmt@@@23@@Z
	??$?RVhandle@?$basic_format_arg@Vcontext@v11@fmt@@@v11@fmt@@$0A@@dynamic_spec_getter@detail@v11@fmt@@QEAA_KVhandle@?$basic_format_arg@Vcontext@v11@fmt@@@23@@Z
	??$?R_J$0A@@?$arg_formatter@D@detail@v11@fmt@@QEAAX_J@Z
	??$?R_J$0A@@?$default_arg_formatter@D@detail@v11@fmt@@QEAAX_J@Z
	??$?R_J$0A@@?$loc_writer@D@detail@v11@fmt@@QEAA_N_J@Z
	??$?R_J$0A@@dynamic_spec_getter@detail@v11@fmt@@QEAA_K_J@Z
	??$?R_K$0A@@?$arg_formatter@D@detail@v11@fmt@@QEAAX_K@Z
	??$?R_K$0A@@?$default_arg_formatter@D@detail@v11@fmt@@QEAAX_K@Z
	??$?R_K$0A@@?$loc_writer@D@detail@v11@fmt@@QEAA_N_K@Z
	??$?R_K$0A@@dynamic_spec_getter@detail@v11@fmt@@QEAA_K_K@Z
	??$?R_N$0A@@?$arg_formatter@D@detail@v11@fmt@@QEAAX_N@Z
	??$?R_N$0A@@?$default_arg_formatter@D@detail@v11@fmt@@QEAAX_N@Z
	??$?R_N$0A@@?$loc_writer@D@detail@v11@fmt@@QEAA_N_N@Z
	??$?R_N$0A@@dynamic_spec_getter@detail@v11@fmt@@QEAA_K_N@Z
	??$?XH@bigint@detail@v11@fmt@@QEAAAEAV0123@H@Z
	??$?XVuint128_fallback@detail@v11@fmt@@@bigint@detail@v11@fmt@@QEAAAEAV0123@Vuint128_fallback@123@@Z
	??$?__M_JU?$ratio@$00$0JIJGIA@@std@@_JU01@@chrono@std@@YA?A_PAEBV?$duration@_JU?$ratio@$00$0JIJGIA@@std@@@01@0@Z
	??$?__M_JU?$ratio@$00$0JIJGIA@@std@@_JU?$ratio@$00$00@1@@chrono@std@@YA?A_PAEBV?$duration@_JU?$ratio@$00$0JIJGIA@@std@@@01@AEBV?$duration@_JU?$ratio@$00$00@std@@@01@@Z
	??$_Adl_verify_range@PEAV?$_List_unchecked_iterator@V?$_List_val@U?$_List_simple_types@U?$pair@$$CBDV?$unique_ptr@Vcustom_flag_formatter@spdlog@@U?$default_delete@Vcustom_flag_formatter@spdlog@@@std@@@std@@@std@@@std@@@std@@@std@@PEAV12@@std@@YAXAEBQEAV?$_List_unchecked_iterator@V?$_List_val@U?$_List_simple_types@U?$pair@$$CBDV?$unique_ptr@Vcustom_flag_formatter@spdlog@@U?$default_delete@Vcustom_flag_formatter@spdlog@@@std@@@std@@@std@@@std@@@std@@@0@0@Z
	??$_Adl_verify_range@PEAV?$_List_unchecked_iterator@V?$_List_val@U?$_List_simple_types@U?$pair@$$CBV?$basic_string@DU?$char_traits@D@std@@V?$allocator@D@2@@std@@V?$shared_ptr@Vlogger@spdlog@@@2@@std@@@std@@@std@@@std@@PEAV12@@std@@YAXAEBQEAV?$_List_unchecked_iterator@V?$_List_val@U?$_List_simple_types@U?$pair@$$CBV?$basic_string@DU?$char_traits@D@std@@V?$allocator@D@2@@std@@V?$shared_ptr@Vlogger@spdlog@@@2@@std@@@std@@@std@@@0@0@Z
	??$_Adl_verify_range@PEAV?$_List_unchecked_iterator@V?$_List_val@U?$_List_simple_types@U?$pair@$$CBV?$basic_string@DU?$char_traits@D@std@@V?$allocator@D@2@@std@@W4level_enum@level@spdlog@@@std@@@std@@@std@@@std@@PEAV12@@std@@YAXAEBQEAV?$_List_unchecked_iterator@V?$_List_val@U?$_List_simple_types@U?$pair@$$CBV?$basic_string@DU?$char_traits@D@std@@V?$allocator@D@2@@std@@W4level_enum@level@spdlog@@@std@@@std@@@std@@@0@0@Z
	??$_Adl_verify_range@PEBDPEBD@std@@YAXAEBQEBD0@Z
	??$_Adl_verify_range@PEBV?$shared_ptr@Vsink@sinks@spdlog@@@std@@PEBV12@@std@@YAXAEBQEBV?$shared_ptr@Vsink@sinks@spdlog@@@0@0@Z
	??$_Adl_verify_range@V?$reverse_iterator@PEBD@std@@V12@@std@@YAXAEBV?$reverse_iterator@PEBD@0@0@Z
	??$_Allocate@$0BA@U_Default_allocate_traits@std@@@std@@YAPEAX_K@Z
	??$_Allocate_at_least_helper@V?$allocator@D@std@@@std@@YAPEADAEAV?$allocator@D@0@AEA_K@Z
	??$_Allocate_at_least_helper@V?$allocator@V?$shared_ptr@Vsink@sinks@spdlog@@@std@@@std@@@std@@YAPEAV?$shared_ptr@Vsink@sinks@spdlog@@@0@AEAV?$allocator@V?$shared_ptr@Vsink@sinks@spdlog@@@std@@@0@AEA_K@Z
	??$_Allocate_at_least_helper@V?$allocator@V?$unique_ptr@Vflag_formatter@details@spdlog@@U?$default_delete@Vflag_formatter@details@spdlog@@@std@@@std@@@std@@@std@@YAPEAV?$unique_ptr@Vflag_formatter@details@spdlog@@U?$default_delete@Vflag_formatter@details@spdlog@@@std@@@0@AEAV?$allocator@V?$unique_ptr@Vflag_formatter@details@spdlog@@U?$default_delete@Vflag_formatter@details@spdlog@@@std@@@std@@@0@AEA_K@Z
	??$_Allocate_at_least_helper@V?$allocator@Vlog_msg_buffer@details@spdlog@@@std@@@std@@YAPEAVlog_msg_buffer@details@spdlog@@AEAV?$allocator@Vlog_msg_buffer@details@spdlog@@@0@AEA_K@Z
	??$_Allocate_for_capacity@$0A@@?$basic_string@DU?$char_traits@D@std@@V?$allocator@D@2@@std@@CAPEADAEAV?$allocator@D@1@AEA_K@Z
	??$_Allocate_manually_vector_aligned@U_Default_allocate_traits@std@@@std@@YAPEAX_K@Z
	??$_Assign_counted_range@PEAVlog_msg_buffer@details@spdlog@@@?$vector@Vlog_msg_buffer@details@spdlog@@V?$allocator@Vlog_msg_buffer@details@spdlog@@@std@@@std@@AEAAXPEAVlog_msg_buffer@details@spdlog@@_K@Z
	??$_Atomic_address_as@DU?$_Atomic_padded@_N@std@@@std@@YAPECDAEAU?$_Atomic_padded@_N@0@@Z
	??$_Atomic_address_as@DU?$_Atomic_padded@_N@std@@@std@@YAPEDDAEBU?$_Atomic_padded@_N@0@@Z
	??$_Atomic_address_as@HU?$_Atomic_padded@H@std@@@std@@YAPECHAEAU?$_Atomic_padded@H@0@@Z
	??$_Atomic_address_as@HU?$_Atomic_padded@H@std@@@std@@YAPEDHAEBU?$_Atomic_padded@H@0@@Z
	??$_Atomic_reinterpret_as@D_N@std@@YADAEB_N@Z
	??$_Atomic_reinterpret_as@HH@std@@YAHAEBH@Z
	??$_Bit_cast@_KT_Addr_storage@error_category@std@@$0A@@std@@YA_KAEBT_Addr_storage@error_category@0@@Z
	??$_Buyheadnode@V?$allocator@U?$_Tree_node@U?$pair@$$CBV?$basic_string@DU?$char_traits@D@std@@V?$allocator@D@2@@std@@V12@@std@@PEAX@std@@@std@@@?$_Tree_node@U?$pair@$$CBV?$basic_string@DU?$char_traits@D@std@@V?$allocator@D@2@@std@@V12@@std@@PEAX@std@@SAPEAU01@AEAV?$allocator@U?$_Tree_node@U?$pair@$$CBV?$basic_string@DU?$char_traits@D@std@@V?$allocator@D@2@@std@@V12@@std@@PEAX@std@@@1@@Z
	??$_Construct@$00PEBD@?$basic_string@DU?$char_traits@D@std@@V?$allocator@D@2@@std@@AEAAXQEBD_K@Z
	??$_Construct@$01PEBD@?$basic_string@DU?$char_traits@D@std@@V?$allocator@D@2@@std@@AEAAXQEBD_K@Z
	??$_Construct@$0A@D@?$basic_string@DU?$char_traits@D@std@@V?$allocator@D@2@@std@@AEAAXD_K@Z
	??$_Construct_in_place@PEADAEAPEAD@std@@YAXAEAPEAD0@Z
	??$_Construct_in_place@PEADAEBQEAD@std@@YAXAEAPEADAEBQEAD@Z
	??$_Construct_in_place@PEAU?$_List_node@U?$pair@$$CBDV?$unique_ptr@Vcustom_flag_formatter@spdlog@@U?$default_delete@Vcustom_flag_formatter@spdlog@@@std@@@std@@@std@@PEAX@std@@AEAPEAU12@@std@@YAXAEAPEAU?$_List_node@U?$pair@$$CBDV?$unique_ptr@Vcustom_flag_formatter@spdlog@@U?$default_delete@Vcustom_flag_formatter@spdlog@@@std@@@std@@@std@@PEAX@0@0@Z
	??$_Construct_in_place@PEAU?$_List_node@U?$pair@$$CBDV?$unique_ptr@Vcustom_flag_formatter@spdlog@@U?$default_delete@Vcustom_flag_formatter@spdlog@@@std@@@std@@@std@@PEAX@std@@AEBQEAU12@@std@@YAXAEAPEAU?$_List_node@U?$pair@$$CBDV?$unique_ptr@Vcustom_flag_formatter@spdlog@@U?$default_delete@Vcustom_flag_formatter@spdlog@@@std@@@std@@@std@@PEAX@0@AEBQEAU10@@Z
	??$_Construct_in_place@PEAU?$_List_node@U?$pair@$$CBV?$basic_string@DU?$char_traits@D@std@@V?$allocator@D@2@@std@@V?$shared_ptr@Vlogger@spdlog@@@2@@std@@PEAX@std@@AEAPEAU12@@std@@YAXAEAPEAU?$_List_node@U?$pair@$$CBV?$basic_string@DU?$char_traits@D@std@@V?$allocator@D@2@@std@@V?$shared_ptr@Vlogger@spdlog@@@2@@std@@PEAX@0@0@Z
	??$_Construct_in_place@PEAU?$_List_node@U?$pair@$$CBV?$basic_string@DU?$char_traits@D@std@@V?$allocator@D@2@@std@@V?$shared_ptr@Vlogger@spdlog@@@2@@std@@PEAX@std@@AEBQEAU12@@std@@YAXAEAPEAU?$_List_node@U?$pair@$$CBV?$basic_string@DU?$char_traits@D@std@@V?$allocator@D@2@@std@@V?$shared_ptr@Vlogger@spdlog@@@2@@std@@PEAX@0@AEBQEAU10@@Z
	??$_Construct_in_place@PEAU?$_List_node@U?$pair@$$CBV?$basic_string@DU?$char_traits@D@std@@V?$allocator@D@2@@std@@W4level_enum@level@spdlog@@@std@@PEAX@std@@AEAPEAU12@@std@@YAXAEAPEAU?$_List_node@U?$pair@$$CBV?$basic_string@DU?$char_traits@D@std@@V?$allocator@D@2@@std@@W4level_enum@level@spdlog@@@std@@PEAX@0@0@Z
	??$_Construct_in_place@PEAU?$_Tree_node@U?$pair@$$CBV?$basic_string@DU?$char_traits@D@std@@V?$allocator@D@2@@std@@V12@@std@@PEAX@std@@AEBQEAU12@@std@@YAXAEAPEAU?$_Tree_node@U?$pair@$$CBV?$basic_string@DU?$char_traits@D@std@@V?$allocator@D@2@@std@@V12@@std@@PEAX@0@AEBQEAU10@@Z
	??$_Construct_in_place@V?$_List_unchecked_iterator@V?$_List_val@U?$_List_simple_types@U?$pair@$$CBDV?$unique_ptr@Vcustom_flag_formatter@spdlog@@U?$default_delete@Vcustom_flag_formatter@spdlog@@@std@@@std@@@std@@@std@@@std@@@std@@AEBV12@@std@@YAXAEAV?$_List_unchecked_iterator@V?$_List_val@U?$_List_simple_types@U?$pair@$$CBDV?$unique_ptr@Vcustom_flag_formatter@spdlog@@U?$default_delete@Vcustom_flag_formatter@spdlog@@@std@@@std@@@std@@@std@@@std@@@0@AEBV10@@Z
	??$_Construct_in_place@V?$_List_unchecked_iterator@V?$_List_val@U?$_List_simple_types@U?$pair@$$CBV?$basic_string@DU?$char_traits@D@std@@V?$allocator@D@2@@std@@V?$shared_ptr@Vlogger@spdlog@@@2@@std@@@std@@@std@@@std@@AEBV12@@std@@YAXAEAV?$_List_unchecked_iterator@V?$_List_val@U?$_List_simple_types@U?$pair@$$CBV?$basic_string@DU?$char_traits@D@std@@V?$allocator@D@2@@std@@V?$shared_ptr@Vlogger@spdlog@@@2@@std@@@std@@@std@@@0@AEBV10@@Z
	??$_Construct_in_place@V?$_List_unchecked_iterator@V?$_List_val@U?$_List_simple_types@U?$pair@$$CBV?$basic_string@DU?$char_traits@D@std@@V?$allocator@D@2@@std@@W4level_enum@level@spdlog@@@std@@@std@@@std@@@std@@AEBV12@@std@@YAXAEAV?$_List_unchecked_iterator@V?$_List_val@U?$_List_simple_types@U?$pair@$$CBV?$basic_string@DU?$char_traits@D@std@@V?$allocator@D@2@@std@@W4level_enum@level@spdlog@@@std@@@std@@@std@@@0@AEBV10@@Z
	??$_Construct_in_place@V?$unique_ptr@Vflag_formatter@details@spdlog@@U?$default_delete@Vflag_formatter@details@spdlog@@@std@@@std@@V12@@std@@YAXAEAV?$unique_ptr@Vflag_formatter@details@spdlog@@U?$default_delete@Vflag_formatter@details@spdlog@@@std@@@0@$$QEAV10@@Z
	??$_Construct_in_place@V?$wincolor_stdout_sink@Uconsole_mutex@details@spdlog@@@sinks@spdlog@@$$V@std@@YAXAEAV?$wincolor_stdout_sink@Uconsole_mutex@details@spdlog@@@sinks@spdlog@@@Z
	??$_Construct_in_place@V?$wincolor_stdout_sink@Uconsole_mutex@details@spdlog@@@sinks@spdlog@@AEAW4color_mode@3@@std@@YAXAEAV?$wincolor_stdout_sink@Uconsole_mutex@details@spdlog@@@sinks@spdlog@@AEAW4color_mode@3@@Z
	??$_Construct_in_place@Vlogger@spdlog@@AEAPEBDV?$shared_ptr@V?$wincolor_stdout_sink@Uconsole_mutex@details@spdlog@@@sinks@spdlog@@@std@@@std@@YAXAEAVlogger@spdlog@@AEAPEBD$$QEAV?$shared_ptr@V?$wincolor_stdout_sink@Uconsole_mutex@details@spdlog@@@sinks@spdlog@@@0@@Z
	??$_Construct_in_place@Vlogger@spdlog@@AEAV12@@std@@YAXAEAVlogger@spdlog@@0@Z
	??$_Construct_in_place@Vlogger@spdlog@@V?$basic_string@DU?$char_traits@D@std@@V?$allocator@D@2@@std@@V?$shared_ptr@V?$wincolor_stdout_sink@Uconsole_mutex@details@spdlog@@@sinks@spdlog@@@4@@std@@YAXAEAVlogger@spdlog@@$$QEAV?$basic_string@DU?$char_traits@D@std@@V?$allocator@D@2@@0@$$QEAV?$shared_ptr@V?$wincolor_stdout_sink@Uconsole_mutex@details@spdlog@@@sinks@spdlog@@@0@@Z
	??$_Construct_n@$$V@?$vector@Vlog_msg_buffer@details@spdlog@@V?$allocator@Vlog_msg_buffer@details@spdlog@@@std@@@std@@AEAAX_K@Z
	??$_Construct_n@AEBQEAV?$shared_ptr@Vsink@sinks@spdlog@@@std@@AEBQEAV12@@?$vector@V?$shared_ptr@Vsink@sinks@spdlog@@@std@@V?$allocator@V?$shared_ptr@Vsink@sinks@spdlog@@@std@@@2@@std@@AEAAX_KAEBQEAV?$shared_ptr@Vsink@sinks@spdlog@@@1@1@Z
	??$_Construct_n@PEBV?$shared_ptr@Vsink@sinks@spdlog@@@std@@PEBV12@@?$vector@V?$shared_ptr@Vsink@sinks@spdlog@@@std@@V?$allocator@V?$shared_ptr@Vsink@sinks@spdlog@@@std@@@2@@std@@AEAAX_K$$QEAPEBV?$shared_ptr@Vsink@sinks@spdlog@@@1@1@Z
	??$_Convert_size@_K_K@std@@YA_K_K@Z
	??$_Copy_construct_from@Vlogger@spdlog@@@?$_Ptr_base@Vlogger@spdlog@@@std@@IEAAXAEBV?$shared_ptr@Vlogger@spdlog@@@1@@Z
	??$_Copy_construct_from@Vsink@sinks@spdlog@@@?$_Ptr_base@Vsink@sinks@spdlog@@@std@@IEAAXAEBV?$shared_ptr@Vsink@sinks@spdlog@@@1@@Z
	??$_Copy_n_unchecked4@PEAVlog_msg_buffer@details@spdlog@@_KPEAV123@@std@@YAPEAVlog_msg_buffer@details@spdlog@@PEAV123@_K0@Z
	??$_Deallocate@$0BA@@std@@YAXPEAX_K@Z
	??$_Destroy_in_place@PEAD@std@@YAXAEAPEAD@Z
	??$_Destroy_in_place@PEAU?$_List_node@U?$pair@$$CBDV?$unique_ptr@Vcustom_flag_formatter@spdlog@@U?$default_delete@Vcustom_flag_formatter@spdlog@@@std@@@std@@@std@@PEAX@std@@@std@@YAXAEAPEAU?$_List_node@U?$pair@$$CBDV?$unique_ptr@Vcustom_flag_formatter@spdlog@@U?$default_delete@Vcustom_flag_formatter@spdlog@@@std@@@std@@@std@@PEAX@0@@Z
	??$_Destroy_in_place@PEAU?$_List_node@U?$pair@$$CBV?$basic_string@DU?$char_traits@D@std@@V?$allocator@D@2@@std@@V?$shared_ptr@Vlogger@spdlog@@@2@@std@@PEAX@std@@@std@@YAXAEAPEAU?$_List_node@U?$pair@$$CBV?$basic_string@DU?$char_traits@D@std@@V?$allocator@D@2@@std@@V?$shared_ptr@Vlogger@spdlog@@@2@@std@@PEAX@0@@Z
	??$_Destroy_in_place@PEAU?$_List_node@U?$pair@$$CBV?$basic_string@DU?$char_traits@D@std@@V?$allocator@D@2@@std@@W4level_enum@level@spdlog@@@std@@PEAX@std@@@std@@YAXAEAPEAU?$_List_node@U?$pair@$$CBV?$basic_string@DU?$char_traits@D@std@@V?$allocator@D@2@@std@@W4level_enum@level@spdlog@@@std@@PEAX@0@@Z
	??$_Destroy_in_place@PEAU?$_Tree_node@U?$pair@$$CBV?$basic_string@DU?$char_traits@D@std@@V?$allocator@D@2@@std@@V12@@std@@PEAX@std@@@std@@YAXAEAPEAU?$_Tree_node@U?$pair@$$CBV?$basic_string@DU?$char_traits@D@std@@V?$allocator@D@2@@std@@V12@@std@@PEAX@0@@Z
	??$_Destroy_in_place@V?$wincolor_stdout_sink@Uconsole_mutex@details@spdlog@@@sinks@spdlog@@@std@@YAXAEAV?$wincolor_stdout_sink@Uconsole_mutex@details@spdlog@@@sinks@spdlog@@@Z
	??$_Destroy_in_place@Vlogger@spdlog@@@std@@YAXAEAVlogger@spdlog@@@Z
	??$_Destroy_range@PEAV?$_List_unchecked_iterator@V?$_List_val@U?$_List_simple_types@U?$pair@$$CBDV?$unique_ptr@Vcustom_flag_formatter@spdlog@@U?$default_delete@Vcustom_flag_formatter@spdlog@@@std@@@std@@@std@@@std@@@std@@@std@@PEAV12@@std@@YAXPEAV?$_List_unchecked_iterator@V?$_List_val@U?$_List_simple_types@U?$pair@$$CBDV?$unique_ptr@Vcustom_flag_formatter@spdlog@@U?$default_delete@Vcustom_flag_formatter@spdlog@@@std@@@std@@@std@@@std@@@std@@@0@QEAV10@@Z
	??$_Destroy_range@PEAV?$_List_unchecked_iterator@V?$_List_val@U?$_List_simple_types@U?$pair@$$CBV?$basic_string@DU?$char_traits@D@std@@V?$allocator@D@2@@std@@V?$shared_ptr@Vlogger@spdlog@@@2@@std@@@std@@@std@@@std@@PEAV12@@std@@YAXPEAV?$_List_unchecked_iterator@V?$_List_val@U?$_List_simple_types@U?$pair@$$CBV?$basic_string@DU?$char_traits@D@std@@V?$allocator@D@2@@std@@V?$shared_ptr@Vlogger@spdlog@@@2@@std@@@std@@@std@@@0@QEAV10@@Z
	??$_Destroy_range@PEAV?$_List_unchecked_iterator@V?$_List_val@U?$_List_simple_types@U?$pair@$$CBV?$basic_string@DU?$char_traits@D@std@@V?$allocator@D@2@@std@@W4level_enum@level@spdlog@@@std@@@std@@@std@@@std@@PEAV12@@std@@YAXPEAV?$_List_unchecked_iterator@V?$_List_val@U?$_List_simple_types@U?$pair@$$CBV?$basic_string@DU?$char_traits@D@std@@V?$allocator@D@2@@std@@W4level_enum@level@spdlog@@@std@@@std@@@std@@@0@QEAV10@@Z
	??$_Destroy_range@V?$allocator@V?$shared_ptr@Vsink@sinks@spdlog@@@std@@@std@@@std@@YAXPEAV?$shared_ptr@Vsink@sinks@spdlog@@@0@QEAV10@AEAV?$allocator@V?$shared_ptr@Vsink@sinks@spdlog@@@std@@@0@@Z
	??$_Destroy_range@V?$allocator@V?$unique_ptr@Vflag_formatter@details@spdlog@@U?$default_delete@Vflag_formatter@details@spdlog@@@std@@@std@@@std@@@std@@YAXPEAV?$unique_ptr@Vflag_formatter@details@spdlog@@U?$default_delete@Vflag_formatter@details@spdlog@@@std@@@0@QEAV10@AEAV?$allocator@V?$unique_ptr@Vflag_formatter@details@spdlog@@U?$default_delete@Vflag_formatter@details@spdlog@@@std@@@std@@@0@@Z
	??$_Destroy_range@V?$allocator@Vlog_msg_buffer@details@spdlog@@@std@@@std@@YAXPEAVlog_msg_buffer@details@spdlog@@QEAV123@AEAV?$allocator@Vlog_msg_buffer@details@spdlog@@@0@@Z
	??$_Emplace_back@$$V@?$_Uninitialized_backout_al@V?$allocator@Vlog_msg_buffer@details@spdlog@@@std@@@std@@QEAAXXZ
	??$_Emplace_back@AEAV?$shared_ptr@Vsink@sinks@spdlog@@@std@@@?$_Uninitialized_backout_al@V?$allocator@V?$shared_ptr@Vsink@sinks@spdlog@@@std@@@std@@@std@@QEAAXAEAV?$shared_ptr@Vsink@sinks@spdlog@@@1@@Z
	??$_Emplace_back@AEAVlog_msg_buffer@details@spdlog@@@?$_Uninitialized_backout_al@V?$allocator@Vlog_msg_buffer@details@spdlog@@@std@@@std@@QEAAXAEAVlog_msg_buffer@details@spdlog@@@Z
	??$_Emplace_back@AEBV?$_List_unchecked_iterator@V?$_List_val@U?$_List_simple_types@U?$pair@$$CBDV?$unique_ptr@Vcustom_flag_formatter@spdlog@@U?$default_delete@Vcustom_flag_formatter@spdlog@@@std@@@std@@@std@@@std@@@std@@@std@@@?$_Uninitialized_backout@PEAV?$_List_unchecked_iterator@V?$_List_val@U?$_List_simple_types@U?$pair@$$CBDV?$unique_ptr@Vcustom_flag_formatter@spdlog@@U?$default_delete@Vcustom_flag_formatter@spdlog@@@std@@@std@@@std@@@std@@@std@@@std@@@std@@QEAAXAEBV?$_List_unchecked_iterator@V?$_List_val@U?$_List_simple_types@U?$pair@$$CBDV?$unique_ptr@Vcustom_flag_formatter@spdlog@@U?$default_delete@Vcustom_flag_formatter@spdlog@@@std@@@std@@@std@@@std@@@std@@@1@@Z
	??$_Emplace_back@AEBV?$_List_unchecked_iterator@V?$_List_val@U?$_List_simple_types@U?$pair@$$CBV?$basic_string@DU?$char_traits@D@std@@V?$allocator@D@2@@std@@V?$shared_ptr@Vlogger@spdlog@@@2@@std@@@std@@@std@@@std@@@?$_Uninitialized_backout@PEAV?$_List_unchecked_iterator@V?$_List_val@U?$_List_simple_types@U?$pair@$$CBV?$basic_string@DU?$char_traits@D@std@@V?$allocator@D@2@@std@@V?$shared_ptr@Vlogger@spdlog@@@2@@std@@@std@@@std@@@std@@@std@@QEAAXAEBV?$_List_unchecked_iterator@V?$_List_val@U?$_List_simple_types@U?$pair@$$CBV?$basic_string@DU?$char_traits@D@std@@V?$allocator@D@2@@std@@V?$shared_ptr@Vlogger@spdlog@@@2@@std@@@std@@@std@@@1@@Z
	??$_Emplace_back@AEBV?$_List_unchecked_iterator@V?$_List_val@U?$_List_simple_types@U?$pair@$$CBV?$basic_string@DU?$char_traits@D@std@@V?$allocator@D@2@@std@@W4level_enum@level@spdlog@@@std@@@std@@@std@@@std@@@?$_Uninitialized_backout@PEAV?$_List_unchecked_iterator@V?$_List_val@U?$_List_simple_types@U?$pair@$$CBV?$basic_string@DU?$char_traits@D@std@@V?$allocator@D@2@@std@@W4level_enum@level@spdlog@@@std@@@std@@@std@@@std@@@std@@QEAAXAEBV?$_List_unchecked_iterator@V?$_List_val@U?$_List_simple_types@U?$pair@$$CBV?$basic_string@DU?$char_traits@D@std@@V?$allocator@D@2@@std@@W4level_enum@level@spdlog@@@std@@@std@@@std@@@1@@Z
	??$_Emplace_back@AEBV?$shared_ptr@Vsink@sinks@spdlog@@@std@@@?$_Uninitialized_backout_al@V?$allocator@V?$shared_ptr@Vsink@sinks@spdlog@@@std@@@std@@@std@@QEAAXAEBV?$shared_ptr@Vsink@sinks@spdlog@@@1@@Z
	??$_Emplace_back@V?$unique_ptr@Vflag_formatter@details@spdlog@@U?$default_delete@Vflag_formatter@details@spdlog@@@std@@@std@@@?$_Uninitialized_backout_al@V?$allocator@V?$unique_ptr@Vflag_formatter@details@spdlog@@U?$default_delete@Vflag_formatter@details@spdlog@@@std@@@std@@@std@@@std@@QEAAX$$QEAV?$unique_ptr@Vflag_formatter@details@spdlog@@U?$default_delete@Vflag_formatter@details@spdlog@@@std@@@1@@Z
	??$_Emplace_back_with_unused_capacity@V?$unique_ptr@Vflag_formatter@details@spdlog@@U?$default_delete@Vflag_formatter@details@spdlog@@@std@@@std@@@?$vector@V?$unique_ptr@Vflag_formatter@details@spdlog@@U?$default_delete@Vflag_formatter@details@spdlog@@@std@@@std@@V?$allocator@V?$unique_ptr@Vflag_formatter@details@spdlog@@U?$default_delete@Vflag_formatter@details@spdlog@@@std@@@std@@@2@@std@@AEAAAEAV?$unique_ptr@Vflag_formatter@details@spdlog@@U?$default_delete@Vflag_formatter@details@spdlog@@@std@@@1@$$QEAV21@@Z
	??$_Emplace_one_at_back@V?$unique_ptr@Vflag_formatter@details@spdlog@@U?$default_delete@Vflag_formatter@details@spdlog@@@std@@@std@@@?$vector@V?$unique_ptr@Vflag_formatter@details@spdlog@@U?$default_delete@Vflag_formatter@details@spdlog@@@std@@@std@@V?$allocator@V?$unique_ptr@Vflag_formatter@details@spdlog@@U?$default_delete@Vflag_formatter@details@spdlog@@@std@@@std@@@2@@std@@AEAAAEAV?$unique_ptr@Vflag_formatter@details@spdlog@@U?$default_delete@Vflag_formatter@details@spdlog@@@std@@@1@$$QEAV21@@Z
	??$_Emplace_reallocate@V?$unique_ptr@Vflag_formatter@details@spdlog@@U?$default_delete@Vflag_formatter@details@spdlog@@@std@@@std@@@?$vector@V?$unique_ptr@Vflag_formatter@details@spdlog@@U?$default_delete@Vflag_formatter@details@spdlog@@@std@@@std@@V?$allocator@V?$unique_ptr@Vflag_formatter@details@spdlog@@U?$default_delete@Vflag_formatter@details@spdlog@@@std@@@std@@@2@@std@@AEAAPEAV?$unique_ptr@Vflag_formatter@details@spdlog@@U?$default_delete@Vflag_formatter@details@spdlog@@@std@@@1@QEAV21@$$QEAV21@@Z
	??$_Erase_head@V?$allocator@U?$_Tree_node@U?$pair@$$CBV?$basic_string@DU?$char_traits@D@std@@V?$allocator@D@2@@std@@V12@@std@@PEAX@std@@@std@@@?$_Tree_val@U?$_Tree_simple_types@U?$pair@$$CBV?$basic_string@DU?$char_traits@D@std@@V?$allocator@D@2@@std@@V12@@std@@@std@@@std@@QEAAXAEAV?$allocator@U?$_Tree_node@U?$pair@$$CBV?$basic_string@DU?$char_traits@D@std@@V?$allocator@D@2@@std@@V12@@std@@PEAX@std@@@1@@Z
	??$_Erase_tree@V?$allocator@U?$_Tree_node@U?$pair@$$CBV?$basic_string@DU?$char_traits@D@std@@V?$allocator@D@2@@std@@V12@@std@@PEAX@std@@@std@@@?$_Tree_val@U?$_Tree_simple_types@U?$pair@$$CBV?$basic_string@DU?$char_traits@D@std@@V?$allocator@D@2@@std@@V12@@std@@@std@@@std@@QEAAXAEAV?$allocator@U?$_Tree_node@U?$pair@$$CBV?$basic_string@DU?$char_traits@D@std@@V?$allocator@D@2@@std@@V12@@std@@PEAX@std@@@1@PEAU?$_Tree_node@U?$pair@$$CBV?$basic_string@DU?$char_traits@D@std@@V?$allocator@D@2@@std@@V12@@std@@PEAX@1@@Z
	??$_Find@D@?$_Hash@V?$_Umap_traits@DV?$unique_ptr@Vcustom_flag_formatter@spdlog@@U?$default_delete@Vcustom_flag_formatter@spdlog@@@std@@@std@@V?$_Uhash_compare@DU?$hash@D@std@@U?$equal_to@D@2@@2@V?$allocator@U?$pair@$$CBDV?$unique_ptr@Vcustom_flag_formatter@spdlog@@U?$default_delete@Vcustom_flag_formatter@spdlog@@@std@@@std@@@std@@@2@$0A@@std@@@std@@AEBAPEAU?$_List_node@U?$pair@$$CBDV?$unique_ptr@Vcustom_flag_formatter@spdlog@@U?$default_delete@Vcustom_flag_formatter@spdlog@@@std@@@std@@@std@@PEAX@1@AEBD_K@Z
	??$_Find@V?$basic_string@DU?$char_traits@D@std@@V?$allocator@D@2@@std@@@?$_Hash@V?$_Umap_traits@V?$basic_string@DU?$char_traits@D@std@@V?$allocator@D@2@@std@@V?$shared_ptr@Vlogger@spdlog@@@2@V?$_Uhash_compare@V?$basic_string@DU?$char_traits@D@std@@V?$allocator@D@2@@std@@U?$hash@V?$basic_string@DU?$char_traits@D@std@@V?$allocator@D@2@@std@@@2@U?$equal_to@V?$basic_string@DU?$char_traits@D@std@@V?$allocator@D@2@@std@@@2@@2@V?$allocator@U?$pair@$$CBV?$basic_string@DU?$char_traits@D@std@@V?$allocator@D@2@@std@@V?$shared_ptr@Vlogger@spdlog@@@2@@std@@@2@$0A@@std@@@std@@AEBAPEAU?$_List_node@U?$pair@$$CBV?$basic_string@DU?$char_traits@D@std@@V?$allocator@D@2@@std@@V?$shared_ptr@Vlogger@spdlog@@@2@@std@@PEAX@1@AEBV?$basic_string@DU?$char_traits@D@std@@V?$allocator@D@2@@1@_K@Z
	??$_Find@V?$basic_string@DU?$char_traits@D@std@@V?$allocator@D@2@@std@@@?$_Hash@V?$_Umap_traits@V?$basic_string@DU?$char_traits@D@std@@V?$allocator@D@2@@std@@W4level_enum@level@spdlog@@V?$_Uhash_compare@V?$basic_string@DU?$char_traits@D@std@@V?$allocator@D@2@@std@@U?$hash@V?$basic_string@DU?$char_traits@D@std@@V?$allocator@D@2@@std@@@2@U?$equal_to@V?$basic_string@DU?$char_traits@D@std@@V?$allocator@D@2@@std@@@2@@2@V?$allocator@U?$pair@$$CBV?$basic_string@DU?$char_traits@D@std@@V?$allocator@D@2@@std@@W4level_enum@level@spdlog@@@std@@@2@$0A@@std@@@std@@AEBAPEAU?$_List_node@U?$pair@$$CBV?$basic_string@DU?$char_traits@D@std@@V?$allocator@D@2@@std@@W4level_enum@level@spdlog@@@std@@PEAX@1@AEBV?$basic_string@DU?$char_traits@D@std@@V?$allocator@D@2@@1@_K@Z
	??$_Find_last@D@?$_Hash@V?$_Umap_traits@DV?$unique_ptr@Vcustom_flag_formatter@spdlog@@U?$default_delete@Vcustom_flag_formatter@spdlog@@@std@@@std@@V?$_Uhash_compare@DU?$hash@D@std@@U?$equal_to@D@2@@2@V?$allocator@U?$pair@$$CBDV?$unique_ptr@Vcustom_flag_formatter@spdlog@@U?$default_delete@Vcustom_flag_formatter@spdlog@@@std@@@std@@@std@@@2@$0A@@std@@@std@@IEBA?AU?$_Hash_find_last_result@PEAU?$_List_node@U?$pair@$$CBDV?$unique_ptr@Vcustom_flag_formatter@spdlog@@U?$default_delete@Vcustom_flag_formatter@spdlog@@@std@@@std@@@std@@PEAX@std@@@1@AEBD_K@Z
	??$_Find_last@V?$basic_string@DU?$char_traits@D@std@@V?$allocator@D@2@@std@@@?$_Hash@V?$_Umap_traits@V?$basic_string@DU?$char_traits@D@std@@V?$allocator@D@2@@std@@V?$shared_ptr@Vlogger@spdlog@@@2@V?$_Uhash_compare@V?$basic_string@DU?$char_traits@D@std@@V?$allocator@D@2@@std@@U?$hash@V?$basic_string@DU?$char_traits@D@std@@V?$allocator@D@2@@std@@@2@U?$equal_to@V?$basic_string@DU?$char_traits@D@std@@V?$allocator@D@2@@std@@@2@@2@V?$allocator@U?$pair@$$CBV?$basic_string@DU?$char_traits@D@std@@V?$allocator@D@2@@std@@V?$shared_ptr@Vlogger@spdlog@@@2@@std@@@2@$0A@@std@@@std@@IEBA?AU?$_Hash_find_last_result@PEAU?$_List_node@U?$pair@$$CBV?$basic_string@DU?$char_traits@D@std@@V?$allocator@D@2@@std@@V?$shared_ptr@Vlogger@spdlog@@@2@@std@@PEAX@std@@@1@AEBV?$basic_string@DU?$char_traits@D@std@@V?$allocator@D@2@@1@_K@Z
	??$_Find_last@V?$basic_string@DU?$char_traits@D@std@@V?$allocator@D@2@@std@@@?$_Hash@V?$_Umap_traits@V?$basic_string@DU?$char_traits@D@std@@V?$allocator@D@2@@std@@W4level_enum@level@spdlog@@V?$_Uhash_compare@V?$basic_string@DU?$char_traits@D@std@@V?$allocator@D@2@@std@@U?$hash@V?$basic_string@DU?$char_traits@D@std@@V?$allocator@D@2@@std@@@2@U?$equal_to@V?$basic_string@DU?$char_traits@D@std@@V?$allocator@D@2@@std@@@2@@2@V?$allocator@U?$pair@$$CBV?$basic_string@DU?$char_traits@D@std@@V?$allocator@D@2@@std@@W4level_enum@level@spdlog@@@std@@@2@$0A@@std@@@std@@IEBA?AU?$_Hash_find_last_result@PEAU?$_List_node@U?$pair@$$CBV?$basic_string@DU?$char_traits@D@std@@V?$allocator@D@2@@std@@W4level_enum@level@spdlog@@@std@@PEAX@std@@@1@AEBV?$basic_string@DU?$char_traits@D@std@@V?$allocator@D@2@@1@_K@Z
	??$_Find_unchecked@V?$reverse_iterator@PEBD@std@@D@std@@YA?AV?$reverse_iterator@PEBD@0@V10@V10@AEBD@Z
	??$_Fnv1a_append_value@D@std@@YA_K_KAEBD@Z
	??$_Free_non_head@V?$allocator@U?$_List_node@U?$pair@$$CBDV?$unique_ptr@Vcustom_flag_formatter@spdlog@@U?$default_delete@Vcustom_flag_formatter@spdlog@@@std@@@std@@@std@@PEAX@std@@@std@@@?$_List_node@U?$pair@$$CBDV?$unique_ptr@Vcustom_flag_formatter@spdlog@@U?$default_delete@Vcustom_flag_formatter@spdlog@@@std@@@std@@@std@@PEAX@std@@SAXAEAV?$allocator@U?$_List_node@U?$pair@$$CBDV?$unique_ptr@Vcustom_flag_formatter@spdlog@@U?$default_delete@Vcustom_flag_formatter@spdlog@@@std@@@std@@@std@@PEAX@std@@@1@PEAU01@@Z
	??$_Free_non_head@V?$allocator@U?$_List_node@U?$pair@$$CBV?$basic_string@DU?$char_traits@D@std@@V?$allocator@D@2@@std@@V?$shared_ptr@Vlogger@spdlog@@@2@@std@@PEAX@std@@@std@@@?$_List_node@U?$pair@$$CBV?$basic_string@DU?$char_traits@D@std@@V?$allocator@D@2@@std@@V?$shared_ptr@Vlogger@spdlog@@@2@@std@@PEAX@std@@SAXAEAV?$allocator@U?$_List_node@U?$pair@$$CBV?$basic_string@DU?$char_traits@D@std@@V?$allocator@D@2@@std@@V?$shared_ptr@Vlogger@spdlog@@@2@@std@@PEAX@std@@@1@PEAU01@@Z
	??$_Free_non_head@V?$allocator@U?$_List_node@U?$pair@$$CBV?$basic_string@DU?$char_traits@D@std@@V?$allocator@D@2@@std@@W4level_enum@level@spdlog@@@std@@PEAX@std@@@std@@@?$_List_node@U?$pair@$$CBV?$basic_string@DU?$char_traits@D@std@@V?$allocator@D@2@@std@@W4level_enum@level@spdlog@@@std@@PEAX@std@@SAXAEAV?$allocator@U?$_List_node@U?$pair@$$CBV?$basic_string@DU?$char_traits@D@std@@V?$allocator@D@2@@std@@W4level_enum@level@spdlog@@@std@@PEAX@std@@@1@PEAU01@@Z
	??$_Freenode0@V?$allocator@U?$_List_node@U?$pair@$$CBDV?$unique_ptr@Vcustom_flag_formatter@spdlog@@U?$default_delete@Vcustom_flag_formatter@spdlog@@@std@@@std@@@std@@PEAX@std@@@std@@@?$_List_node@U?$pair@$$CBDV?$unique_ptr@Vcustom_flag_formatter@spdlog@@U?$default_delete@Vcustom_flag_formatter@spdlog@@@std@@@std@@@std@@PEAX@std@@SAXAEAV?$allocator@U?$_List_node@U?$pair@$$CBDV?$unique_ptr@Vcustom_flag_formatter@spdlog@@U?$default_delete@Vcustom_flag_formatter@spdlog@@@std@@@std@@@std@@PEAX@std@@@1@PEAU01@@Z
	??$_Freenode0@V?$allocator@U?$_List_node@U?$pair@$$CBV?$basic_string@DU?$char_traits@D@std@@V?$allocator@D@2@@std@@V?$shared_ptr@Vlogger@spdlog@@@2@@std@@PEAX@std@@@std@@@?$_List_node@U?$pair@$$CBV?$basic_string@DU?$char_traits@D@std@@V?$allocator@D@2@@std@@V?$shared_ptr@Vlogger@spdlog@@@2@@std@@PEAX@std@@SAXAEAV?$allocator@U?$_List_node@U?$pair@$$CBV?$basic_string@DU?$char_traits@D@std@@V?$allocator@D@2@@std@@V?$shared_ptr@Vlogger@spdlog@@@2@@std@@PEAX@std@@@1@PEAU01@@Z
	??$_Freenode0@V?$allocator@U?$_List_node@U?$pair@$$CBV?$basic_string@DU?$char_traits@D@std@@V?$allocator@D@2@@std@@W4level_enum@level@spdlog@@@std@@PEAX@std@@@std@@@?$_List_node@U?$pair@$$CBV?$basic_string@DU?$char_traits@D@std@@V?$allocator@D@2@@std@@W4level_enum@level@spdlog@@@std@@PEAX@std@@SAXAEAV?$allocator@U?$_List_node@U?$pair@$$CBV?$basic_string@DU?$char_traits@D@std@@V?$allocator@D@2@@std@@W4level_enum@level@spdlog@@@std@@PEAX@std@@@1@PEAU01@@Z
	??$_Freenode0@V?$allocator@U?$_Tree_node@U?$pair@$$CBV?$basic_string@DU?$char_traits@D@std@@V?$allocator@D@2@@std@@V12@@std@@PEAX@std@@@std@@@?$_Tree_node@U?$pair@$$CBV?$basic_string@DU?$char_traits@D@std@@V?$allocator@D@2@@std@@V12@@std@@PEAX@std@@SAXAEAV?$allocator@U?$_Tree_node@U?$pair@$$CBV?$basic_string@DU?$char_traits@D@std@@V?$allocator@D@2@@std@@V12@@std@@PEAX@std@@@1@PEAU01@@Z
	??$_Freenode@V?$allocator@U?$_List_node@U?$pair@$$CBDV?$unique_ptr@Vcustom_flag_formatter@spdlog@@U?$default_delete@Vcustom_flag_formatter@spdlog@@@std@@@std@@@std@@PEAX@std@@@std@@@?$_List_node@U?$pair@$$CBDV?$unique_ptr@Vcustom_flag_formatter@spdlog@@U?$default_delete@Vcustom_flag_formatter@spdlog@@@std@@@std@@@std@@PEAX@std@@SAXAEAV?$allocator@U?$_List_node@U?$pair@$$CBDV?$unique_ptr@Vcustom_flag_formatter@spdlog@@U?$default_delete@Vcustom_flag_formatter@spdlog@@@std@@@std@@@std@@PEAX@std@@@1@PEAU01@@Z
	??$_Freenode@V?$allocator@U?$_List_node@U?$pair@$$CBV?$basic_string@DU?$char_traits@D@std@@V?$allocator@D@2@@std@@V?$shared_ptr@Vlogger@spdlog@@@2@@std@@PEAX@std@@@std@@@?$_List_node@U?$pair@$$CBV?$basic_string@DU?$char_traits@D@std@@V?$allocator@D@2@@std@@V?$shared_ptr@Vlogger@spdlog@@@2@@std@@PEAX@std@@SAXAEAV?$allocator@U?$_List_node@U?$pair@$$CBV?$basic_string@DU?$char_traits@D@std@@V?$allocator@D@2@@std@@V?$shared_ptr@Vlogger@spdlog@@@2@@std@@PEAX@std@@@1@PEAU01@@Z
	??$_Freenode@V?$allocator@U?$_List_node@U?$pair@$$CBV?$basic_string@DU?$char_traits@D@std@@V?$allocator@D@2@@std@@W4level_enum@level@spdlog@@@std@@PEAX@std@@@std@@@?$_List_node@U?$pair@$$CBV?$basic_string@DU?$char_traits@D@std@@V?$allocator@D@2@@std@@W4level_enum@level@spdlog@@@std@@PEAX@std@@SAXAEAV?$allocator@U?$_List_node@U?$pair@$$CBV?$basic_string@DU?$char_traits@D@std@@V?$allocator@D@2@@std@@W4level_enum@level@spdlog@@@std@@PEAX@std@@@1@PEAU01@@Z
	??$_Freenode@V?$allocator@U?$_Tree_node@U?$pair@$$CBV?$basic_string@DU?$char_traits@D@std@@V?$allocator@D@2@@std@@V12@@std@@PEAX@std@@@std@@@?$_Tree_node@U?$pair@$$CBV?$basic_string@DU?$char_traits@D@std@@V?$allocator@D@2@@std@@V12@@std@@PEAX@std@@SAXAEAV?$allocator@U?$_Tree_node@U?$pair@$$CBV?$basic_string@DU?$char_traits@D@std@@V?$allocator@D@2@@std@@V12@@std@@PEAX@std@@@1@PEAU01@@Z
	??$_Get_index@$0A@@id@locale@std@@QEAA_KXZ
	??$_Get_size_of_n@$00@std@@YA_K_K@Z
	??$_Get_size_of_n@$07@std@@YA_K_K@Z
	??$_Get_size_of_n@$0BA@@std@@YA_K_K@Z
	??$_Get_size_of_n@$0BIA@@std@@YA_K_K@Z
	??$_Get_size_of_n@$0CA@@std@@YA_K_K@Z
	??$_Get_size_of_n@$0DI@@std@@YA_K_K@Z
	??$_Get_size_of_n@$0EA@@std@@YA_K_K@Z
	??$_Get_size_of_n@$0GA@@std@@YA_K_K@Z
	??$_Get_unwrapped@AEAPEBV?$shared_ptr@Vsink@sinks@spdlog@@@std@@@std@@YA?A_TAEAPEBV?$shared_ptr@Vsink@sinks@spdlog@@@0@@Z
	??$_Get_unwrapped@AEAV?$reverse_iterator@PEBD@std@@@std@@YA?A_TAEAV?$reverse_iterator@PEBD@0@@Z
	??$_Get_unwrapped@AEBQEAV?$_List_unchecked_iterator@V?$_List_val@U?$_List_simple_types@U?$pair@$$CBDV?$unique_ptr@Vcustom_flag_formatter@spdlog@@U?$default_delete@Vcustom_flag_formatter@spdlog@@@std@@@std@@@std@@@std@@@std@@@std@@@std@@YA?A_TAEBQEAV?$_List_unchecked_iterator@V?$_List_val@U?$_List_simple_types@U?$pair@$$CBDV?$unique_ptr@Vcustom_flag_formatter@spdlog@@U?$default_delete@Vcustom_flag_formatter@spdlog@@@std@@@std@@@std@@@std@@@std@@@0@@Z
	??$_Get_unwrapped@AEBQEAV?$_List_unchecked_iterator@V?$_List_val@U?$_List_simple_types@U?$pair@$$CBV?$basic_string@DU?$char_traits@D@std@@V?$allocator@D@2@@std@@V?$shared_ptr@Vlogger@spdlog@@@2@@std@@@std@@@std@@@std@@@std@@YA?A_TAEBQEAV?$_List_unchecked_iterator@V?$_List_val@U?$_List_simple_types@U?$pair@$$CBV?$basic_string@DU?$char_traits@D@std@@V?$allocator@D@2@@std@@V?$shared_ptr@Vlogger@spdlog@@@2@@std@@@std@@@std@@@0@@Z
	??$_Get_unwrapped@AEBQEAV?$_List_unchecked_iterator@V?$_List_val@U?$_List_simple_types@U?$pair@$$CBV?$basic_string@DU?$char_traits@D@std@@V?$allocator@D@2@@std@@W4level_enum@level@spdlog@@@std@@@std@@@std@@@std@@@std@@YA?A_TAEBQEAV?$_List_unchecked_iterator@V?$_List_val@U?$_List_simple_types@U?$pair@$$CBV?$basic_string@DU?$char_traits@D@std@@V?$allocator@D@2@@std@@W4level_enum@level@spdlog@@@std@@@std@@@std@@@0@@Z
	??$_Get_unwrapped@AEBQEAV?$unique_ptr@Vflag_formatter@details@spdlog@@U?$default_delete@Vflag_formatter@details@spdlog@@@std@@@std@@@std@@YA?A_TAEBQEAV?$unique_ptr@Vflag_formatter@details@spdlog@@U?$default_delete@Vflag_formatter@details@spdlog@@@std@@@0@@Z
	??$_Get_unwrapped@AEBQEBD@std@@YA?A_TAEBQEBD@Z
	??$_Get_unwrapped@AEBV?$reverse_iterator@PEBD@std@@@std@@YA?A_TAEBV?$reverse_iterator@PEBD@0@@Z
	??$_Get_unwrapped@PEAVlog_msg_buffer@details@spdlog@@@std@@YA?A_T$$QEAPEAVlog_msg_buffer@details@spdlog@@@Z
	??$_Hash_array_representation@D@std@@YA_KQEBD_K@Z
	??$_Hash_representation@D@std@@YA_KAEBD@Z
	??$_Immortalize_memcpy_image@V_Generic_error_category@std@@@std@@YAAEBV_Generic_error_category@0@XZ
	??$_Kfn@$$CBDV?$unique_ptr@Vcustom_flag_formatter@spdlog@@U?$default_delete@Vcustom_flag_formatter@spdlog@@@std@@@std@@@?$_Umap_traits@DV?$unique_ptr@Vcustom_flag_formatter@spdlog@@U?$default_delete@Vcustom_flag_formatter@spdlog@@@std@@@std@@V?$_Uhash_compare@DU?$hash@D@std@@U?$equal_to@D@2@@2@V?$allocator@U?$pair@$$CBDV?$unique_ptr@Vcustom_flag_formatter@spdlog@@U?$default_delete@Vcustom_flag_formatter@spdlog@@@std@@@std@@@std@@@2@$0A@@std@@SAAEBDAEBU?$pair@$$CBDV?$unique_ptr@Vcustom_flag_formatter@spdlog@@U?$default_delete@Vcustom_flag_formatter@spdlog@@@std@@@std@@@1@@Z
	??$_Kfn@$$CBV?$basic_string@DU?$char_traits@D@std@@V?$allocator@D@2@@std@@V?$shared_ptr@Vlogger@spdlog@@@2@@?$_Umap_traits@V?$basic_string@DU?$char_traits@D@std@@V?$allocator@D@2@@std@@V?$shared_ptr@Vlogger@spdlog@@@2@V?$_Uhash_compare@V?$basic_string@DU?$char_traits@D@std@@V?$allocator@D@2@@std@@U?$hash@V?$basic_string@DU?$char_traits@D@std@@V?$allocator@D@2@@std@@@2@U?$equal_to@V?$basic_string@DU?$char_traits@D@std@@V?$allocator@D@2@@std@@@2@@2@V?$allocator@U?$pair@$$CBV?$basic_string@DU?$char_traits@D@std@@V?$allocator@D@2@@std@@V?$shared_ptr@Vlogger@spdlog@@@2@@std@@@2@$0A@@std@@SAAEBV?$basic_string@DU?$char_traits@D@std@@V?$allocator@D@2@@1@AEBU?$pair@$$CBV?$basic_string@DU?$char_traits@D@std@@V?$allocator@D@2@@std@@V?$shared_ptr@Vlogger@spdlog@@@2@@1@@Z
	??$_Kfn@$$CBV?$basic_string@DU?$char_traits@D@std@@V?$allocator@D@2@@std@@W4level_enum@level@spdlog@@@?$_Umap_traits@V?$basic_string@DU?$char_traits@D@std@@V?$allocator@D@2@@std@@W4level_enum@level@spdlog@@V?$_Uhash_compare@V?$basic_string@DU?$char_traits@D@std@@V?$allocator@D@2@@std@@U?$hash@V?$basic_string@DU?$char_traits@D@std@@V?$allocator@D@2@@std@@@2@U?$equal_to@V?$basic_string@DU?$char_traits@D@std@@V?$allocator@D@2@@std@@@2@@2@V?$allocator@U?$pair@$$CBV?$basic_string@DU?$char_traits@D@std@@V?$allocator@D@2@@std@@W4level_enum@level@spdlog@@@std@@@2@$0A@@std@@SAAEBV?$basic_string@DU?$char_traits@D@std@@V?$allocator@D@2@@1@AEBU?$pair@$$CBV?$basic_string@DU?$char_traits@D@std@@V?$allocator@D@2@@std@@W4level_enum@level@spdlog@@@1@@Z
	??$_Maklocchr@D@std@@YADDPEADAEBU_Cvtvec@@@Z
	??$_Maklocstr@D@std@@YAPEADPEBDPEADAEBU_Cvtvec@@@Z
	??$_Max_limit@_J@std@@YA_JXZ
	??$_Max_limit@_K@std@@YA_KXZ
	??$_Move_construct_from@V?$wincolor_stdout_sink@Uconsole_mutex@details@spdlog@@@sinks@spdlog@@@?$_Ptr_base@Vsink@sinks@spdlog@@@std@@IEAAX$$QEAV?$_Ptr_base@V?$wincolor_stdout_sink@Uconsole_mutex@details@spdlog@@@sinks@spdlog@@@1@@Z
	??$_Move_construct_from@Vlogger@spdlog@@@?$_Ptr_base@Vlogger@spdlog@@@std@@IEAAX$$QEAV01@@Z
	??$_Move_construct_from@Vsink@sinks@spdlog@@@?$_Ptr_base@Vsink@sinks@spdlog@@@std@@IEAAX$$QEAV01@@Z
	??$_Pocca@V?$allocator@D@std@@@std@@YAXAEAV?$allocator@D@0@AEBV10@@Z
	??$_Pocca@V?$allocator@Vlog_msg_buffer@details@spdlog@@@std@@@std@@YAXAEAV?$allocator@Vlog_msg_buffer@details@spdlog@@@0@AEBV10@@Z
	??$_Pocma@V?$allocator@D@std@@@std@@YAXAEAV?$allocator@D@0@0@Z
	??$_Pocma@V?$allocator@Vlog_msg_buffer@details@spdlog@@@std@@@std@@YAXAEAV?$allocator@Vlog_msg_buffer@details@spdlog@@@0@0@Z
	??$_Reallocate_for@V<lambda_1>@?1??assign@?$basic_string@DU?$char_traits@D@std@@V?$allocator@D@2@@std@@QEAAAEAV34@QEBD_K@Z@PEBD@?$basic_string@DU?$char_traits@D@std@@V?$allocator@D@2@@std@@AEAAAEAV01@_KV<lambda_1>@?1??assign@01@QEAAAEAV01@QEBD0@Z@PEBD@Z
	??$_Reallocate_for@V<lambda_1>@?1??assign@?$basic_string@DU?$char_traits@D@std@@V?$allocator@D@2@@std@@QEAAAEAV34@_KD@Z@D@?$basic_string@DU?$char_traits@D@std@@V?$allocator@D@2@@std@@AEAAAEAV01@_KV<lambda_1>@?1??assign@01@QEAAAEAV01@0D@Z@D@Z
	??$_Reallocate_grow_by@V<lambda_1>@?1??append@?$basic_string@DU?$char_traits@D@std@@V?$allocator@D@2@@std@@QEAAAEAV34@QEBD_K@Z@PEBD_K@?$basic_string@DU?$char_traits@D@std@@V?$allocator@D@2@@std@@AEAAAEAV01@_KV<lambda_1>@?1??append@01@QEAAAEAV01@QEBD0@Z@PEBD_K@Z
	??$_Reallocate_grow_by@V<lambda_1>@?1??push_back@?$basic_string@DU?$char_traits@D@std@@V?$allocator@D@2@@std@@QEAAXD@Z@D@?$basic_string@DU?$char_traits@D@std@@V?$allocator@D@2@@std@@AEAAAEAV01@_KV<lambda_1>@?1??push_back@01@QEAAXD@Z@D@Z
	??$_Refancy@PEBD$0A@@std@@YAPEBDPEBD@Z
	??$_Seek_wrapped@V?$reverse_iterator@PEBD@std@@AEAV12@@std@@YAXAEAV?$reverse_iterator@PEBD@0@0@Z
	??$_Set_ptr_rep_and_enable_shared@V?$wincolor_stdout_sink@Uconsole_mutex@details@spdlog@@@sinks@spdlog@@@?$shared_ptr@V?$wincolor_stdout_sink@Uconsole_mutex@details@spdlog@@@sinks@spdlog@@@std@@AEAAXQEAV?$wincolor_stdout_sink@Uconsole_mutex@details@spdlog@@@sinks@spdlog@@QEAV_Ref_count_base@1@@Z
	??$_Set_ptr_rep_and_enable_shared@Vlogger@spdlog@@@?$shared_ptr@Vlogger@spdlog@@@std@@AEAAXQEAVlogger@spdlog@@QEAV_Ref_count_base@1@@Z
	??$_Traits_equal@U?$char_traits@D@std@@@std@@YA_NQEBD_K01@Z
	??$_Try_emplace@AEBD$$V@?$_Hash@V?$_Umap_traits@DV?$unique_ptr@Vcustom_flag_formatter@spdlog@@U?$default_delete@Vcustom_flag_formatter@spdlog@@@std@@@std@@V?$_Uhash_compare@DU?$hash@D@std@@U?$equal_to@D@2@@2@V?$allocator@U?$pair@$$CBDV?$unique_ptr@Vcustom_flag_formatter@spdlog@@U?$default_delete@Vcustom_flag_formatter@spdlog@@@std@@@std@@@std@@@2@$0A@@std@@@std@@IEAA?AU?$pair@PEAU?$_List_node@U?$pair@$$CBDV?$unique_ptr@Vcustom_flag_formatter@spdlog@@U?$default_delete@Vcustom_flag_formatter@spdlog@@@std@@@std@@@std@@PEAX@std@@_N@1@AEBD@Z
	??$_Try_emplace@AEBV?$basic_string@DU?$char_traits@D@std@@V?$allocator@D@2@@std@@$$V@?$_Hash@V?$_Umap_traits@V?$basic_string@DU?$char_traits@D@std@@V?$allocator@D@2@@std@@V?$shared_ptr@Vlogger@spdlog@@@2@V?$_Uhash_compare@V?$basic_string@DU?$char_traits@D@std@@V?$allocator@D@2@@std@@U?$hash@V?$basic_string@DU?$char_traits@D@std@@V?$allocator@D@2@@std@@@2@U?$equal_to@V?$basic_string@DU?$char_traits@D@std@@V?$allocator@D@2@@std@@@2@@2@V?$allocator@U?$pair@$$CBV?$basic_string@DU?$char_traits@D@std@@V?$allocator@D@2@@std@@V?$shared_ptr@Vlogger@spdlog@@@2@@std@@@2@$0A@@std@@@std@@IEAA?AU?$pair@PEAU?$_List_node@U?$pair@$$CBV?$basic_string@DU?$char_traits@D@std@@V?$allocator@D@2@@std@@V?$shared_ptr@Vlogger@spdlog@@@2@@std@@PEAX@std@@_N@1@AEBV?$basic_string@DU?$char_traits@D@std@@V?$allocator@D@2@@1@@Z
	??$_Try_emplace@V?$basic_string@DU?$char_traits@D@std@@V?$allocator@D@2@@std@@$$V@?$_Hash@V?$_Umap_traits@V?$basic_string@DU?$char_traits@D@std@@V?$allocator@D@2@@std@@V?$shared_ptr@Vlogger@spdlog@@@2@V?$_Uhash_compare@V?$basic_string@DU?$char_traits@D@std@@V?$allocator@D@2@@std@@U?$hash@V?$basic_string@DU?$char_traits@D@std@@V?$allocator@D@2@@std@@@2@U?$equal_to@V?$basic_string@DU?$char_traits@D@std@@V?$allocator@D@2@@std@@@2@@2@V?$allocator@U?$pair@$$CBV?$basic_string@DU?$char_traits@D@std@@V?$allocator@D@2@@std@@V?$shared_ptr@Vlogger@spdlog@@@2@@std@@@2@$0A@@std@@@std@@IEAA?AU?$pair@PEAU?$_List_node@U?$pair@$$CBV?$basic_string@DU?$char_traits@D@std@@V?$allocator@D@2@@std@@V?$shared_ptr@Vlogger@spdlog@@@2@@std@@PEAX@std@@_N@1@$$QEAV?$basic_string@DU?$char_traits@D@std@@V?$allocator@D@2@@1@@Z
	??$_Tuple_get@$0A@$$QEAV?$basic_string@DU?$char_traits@D@std@@V?$allocator@D@2@@std@@@std@@YA$$QEA_P$$QEAV?$tuple@$$QEAV?$basic_string@DU?$char_traits@D@std@@V?$allocator@D@2@@std@@@0@@Z
	??$_Tuple_get@$0A@AEBD@std@@YA$$QEA_P$$QEAV?$tuple@AEBD@0@@Z
	??$_Tuple_get@$0A@AEBV?$basic_string@DU?$char_traits@D@std@@V?$allocator@D@2@@std@@@std@@YA$$QEA_P$$QEAV?$tuple@AEBV?$basic_string@DU?$char_traits@D@std@@V?$allocator@D@2@@std@@@0@@Z
	??$_Unfancy@D@std@@YAPEADPEAD@Z
	??$_Unfancy@V?$shared_ptr@Vsink@sinks@spdlog@@@std@@@std@@YAPEAV?$shared_ptr@Vsink@sinks@spdlog@@@0@PEAV10@@Z
	??$_Unfancy@V?$unique_ptr@Vflag_formatter@details@spdlog@@U?$default_delete@Vflag_formatter@details@spdlog@@@std@@@std@@@std@@YAPEAV?$unique_ptr@Vflag_formatter@details@spdlog@@U?$default_delete@Vflag_formatter@details@spdlog@@@std@@@0@PEAV10@@Z
	??$_Unfancy@Vlog_msg_buffer@details@spdlog@@@std@@YAPEAVlog_msg_buffer@details@spdlog@@PEAV123@@Z
	??$_Unfancy_maybe_null@V?$shared_ptr@Vsink@sinks@spdlog@@@std@@@std@@YAPEAV?$shared_ptr@Vsink@sinks@spdlog@@@0@PEAV10@@Z
	??$_Unfancy_maybe_null@V?$unique_ptr@Vflag_formatter@details@spdlog@@U?$default_delete@Vflag_formatter@details@spdlog@@@std@@@std@@@std@@YAPEAV?$unique_ptr@Vflag_formatter@details@spdlog@@U?$default_delete@Vflag_formatter@details@spdlog@@@std@@@0@PEAV10@@Z
	??$_Uninitialized_copy@PEAV?$shared_ptr@Vsink@sinks@spdlog@@@std@@PEAV12@V?$allocator@V?$shared_ptr@Vsink@sinks@spdlog@@@std@@@2@@std@@YAPEAV?$shared_ptr@Vsink@sinks@spdlog@@@0@PEAV10@00AEAV?$allocator@V?$shared_ptr@Vsink@sinks@spdlog@@@std@@@0@@Z
	??$_Uninitialized_copy@PEBV?$shared_ptr@Vsink@sinks@spdlog@@@std@@PEBV12@V?$allocator@V?$shared_ptr@Vsink@sinks@spdlog@@@std@@@2@@std@@YAPEAV?$shared_ptr@Vsink@sinks@spdlog@@@0@PEBV10@0PEAV10@AEAV?$allocator@V?$shared_ptr@Vsink@sinks@spdlog@@@std@@@0@@Z
	??$_Uninitialized_copy_n@PEAVlog_msg_buffer@details@spdlog@@V?$allocator@Vlog_msg_buffer@details@spdlog@@@std@@@std@@YAPEAVlog_msg_buffer@details@spdlog@@PEAV123@_K0AEAV?$allocator@Vlog_msg_buffer@details@spdlog@@@0@@Z
	??$_Uninitialized_move@PEAV?$unique_ptr@Vflag_formatter@details@spdlog@@U?$default_delete@Vflag_formatter@details@spdlog@@@std@@@std@@V?$allocator@V?$unique_ptr@Vflag_formatter@details@spdlog@@U?$default_delete@Vflag_formatter@details@spdlog@@@std@@@std@@@2@@std@@YAPEAV?$unique_ptr@Vflag_formatter@details@spdlog@@U?$default_delete@Vflag_formatter@details@spdlog@@@std@@@0@QEAV10@0PEAV10@AEAV?$allocator@V?$unique_ptr@Vflag_formatter@details@spdlog@@U?$default_delete@Vflag_formatter@details@spdlog@@@std@@@std@@@0@@Z
	??$_Uninitialized_value_construct_n@V?$allocator@Vlog_msg_buffer@details@spdlog@@@std@@@std@@YAPEAVlog_msg_buffer@details@spdlog@@PEAV123@_KAEAV?$allocator@Vlog_msg_buffer@details@spdlog@@@0@@Z
	??$_Unwrap_iter@PEAV?$shared_ptr@Vsink@sinks@spdlog@@@std@@PEAV12@@ranges@std@@YA?A_T$$QEAPEAV?$shared_ptr@Vsink@sinks@spdlog@@@1@@Z
	??$_Unwrap_iter@PEBV?$shared_ptr@Vsink@sinks@spdlog@@@std@@PEBV12@@ranges@std@@YA?A_T$$QEAPEBV?$shared_ptr@Vsink@sinks@spdlog@@@1@@Z
	??$_Unwrap_sent@PEAV?$shared_ptr@Vsink@sinks@spdlog@@@std@@PEAV12@@ranges@std@@YA?A_T$$QEAPEAV?$shared_ptr@Vsink@sinks@spdlog@@@1@@Z
	??$_Unwrap_sent@PEBV?$shared_ptr@Vsink@sinks@spdlog@@@std@@PEBV12@@ranges@std@@YA?A_T$$QEAPEBV?$shared_ptr@Vsink@sinks@spdlog@@@1@@Z
	??$addressof@$$CBV?$_List_val@U?$_List_simple_types@U?$pair@$$CBDV?$unique_ptr@Vcustom_flag_formatter@spdlog@@U?$default_delete@Vcustom_flag_formatter@spdlog@@@std@@@std@@@std@@@std@@@std@@@std@@YAPEBV?$_List_val@U?$_List_simple_types@U?$pair@$$CBDV?$unique_ptr@Vcustom_flag_formatter@spdlog@@U?$default_delete@Vcustom_flag_formatter@spdlog@@@std@@@std@@@std@@@std@@@0@AEBV10@@Z
	??$addressof@$$CBV?$_List_val@U?$_List_simple_types@U?$pair@$$CBV?$basic_string@DU?$char_traits@D@std@@V?$allocator@D@2@@std@@V?$shared_ptr@Vlogger@spdlog@@@2@@std@@@std@@@std@@@std@@YAPEBV?$_List_val@U?$_List_simple_types@U?$pair@$$CBV?$basic_string@DU?$char_traits@D@std@@V?$allocator@D@2@@std@@V?$shared_ptr@Vlogger@spdlog@@@2@@std@@@std@@@0@AEBV10@@Z
	??$addressof@$$CBV?$_List_val@U?$_List_simple_types@U?$pair@$$CBV?$basic_string@DU?$char_traits@D@std@@V?$allocator@D@2@@std@@W4level_enum@level@spdlog@@@std@@@std@@@std@@@std@@YAPEBV?$_List_val@U?$_List_simple_types@U?$pair@$$CBV?$basic_string@DU?$char_traits@D@std@@V?$allocator@D@2@@std@@W4level_enum@level@spdlog@@@std@@@std@@@0@AEBV10@@Z
	??$addressof@$$CBV?$_String_val@U?$_Simple_types@D@std@@@std@@@std@@YAPEBV?$_String_val@U?$_Simple_types@D@std@@@0@AEBV10@@Z
	??$addressof@$$CBV?$_Tree_val@U?$_Tree_simple_types@U?$pair@$$CBV?$basic_string@DU?$char_traits@D@std@@V?$allocator@D@2@@std@@V12@@std@@@std@@@std@@@std@@YAPEBV?$_Tree_val@U?$_Tree_simple_types@U?$pair@$$CBV?$basic_string@DU?$char_traits@D@std@@V?$allocator@D@2@@std@@V12@@std@@@std@@@0@AEBV10@@Z
	??$addressof@$$CBV?$basic_string@DU?$char_traits@D@std@@V?$allocator@D@2@@std@@@std@@YAPEBV?$basic_string@DU?$char_traits@D@std@@V?$allocator@D@2@@0@AEBV10@@Z
	??$addressof@$$CBV?$vector@Vlog_msg_buffer@details@spdlog@@V?$allocator@Vlog_msg_buffer@details@spdlog@@@std@@@std@@@std@@YAPEBV?$vector@Vlog_msg_buffer@details@spdlog@@V?$allocator@Vlog_msg_buffer@details@spdlog@@@std@@@0@AEBV10@@Z
	??$addressof@PEAD@std@@YAPEAPEADAEAPEAD@Z
	??$addressof@PEAU?$_List_node@U?$pair@$$CBDV?$unique_ptr@Vcustom_flag_formatter@spdlog@@U?$default_delete@Vcustom_flag_formatter@spdlog@@@std@@@std@@@std@@PEAX@std@@@std@@YAPEAPEAU?$_List_node@U?$pair@$$CBDV?$unique_ptr@Vcustom_flag_formatter@spdlog@@U?$default_delete@Vcustom_flag_formatter@spdlog@@@std@@@std@@@std@@PEAX@0@AEAPEAU10@@Z
	??$addressof@PEAU?$_List_node@U?$pair@$$CBV?$basic_string@DU?$char_traits@D@std@@V?$allocator@D@2@@std@@V?$shared_ptr@Vlogger@spdlog@@@2@@std@@PEAX@std@@@std@@YAPEAPEAU?$_List_node@U?$pair@$$CBV?$basic_string@DU?$char_traits@D@std@@V?$allocator@D@2@@std@@V?$shared_ptr@Vlogger@spdlog@@@2@@std@@PEAX@0@AEAPEAU10@@Z
	??$addressof@PEAU?$_List_node@U?$pair@$$CBV?$basic_string@DU?$char_traits@D@std@@V?$allocator@D@2@@std@@W4level_enum@level@spdlog@@@std@@PEAX@std@@@std@@YAPEAPEAU?$_List_node@U?$pair@$$CBV?$basic_string@DU?$char_traits@D@std@@V?$allocator@D@2@@std@@W4level_enum@level@spdlog@@@std@@PEAX@0@AEAPEAU10@@Z
	??$addressof@PEAU?$_Tree_node@U?$pair@$$CBV?$basic_string@DU?$char_traits@D@std@@V?$allocator@D@2@@std@@V12@@std@@PEAX@std@@@std@@YAPEAPEAU?$_Tree_node@U?$pair@$$CBV?$basic_string@DU?$char_traits@D@std@@V?$allocator@D@2@@std@@V12@@std@@PEAX@0@AEAPEAU10@@Z
	??$addressof@U?$pair@$$CBDV?$unique_ptr@Vcustom_flag_formatter@spdlog@@U?$default_delete@Vcustom_flag_formatter@spdlog@@@std@@@std@@@std@@@std@@YAPEAU?$pair@$$CBDV?$unique_ptr@Vcustom_flag_formatter@spdlog@@U?$default_delete@Vcustom_flag_formatter@spdlog@@@std@@@std@@@0@AEAU10@@Z
	??$addressof@U?$pair@$$CBV?$basic_string@DU?$char_traits@D@std@@V?$allocator@D@2@@std@@V12@@std@@@std@@YAPEAU?$pair@$$CBV?$basic_string@DU?$char_traits@D@std@@V?$allocator@D@2@@std@@V12@@0@AEAU10@@Z
	??$addressof@U?$pair@$$CBV?$basic_string@DU?$char_traits@D@std@@V?$allocator@D@2@@std@@V?$shared_ptr@Vlogger@spdlog@@@2@@std@@@std@@YAPEAU?$pair@$$CBV?$basic_string@DU?$char_traits@D@std@@V?$allocator@D@2@@std@@V?$shared_ptr@Vlogger@spdlog@@@2@@0@AEAU10@@Z
	??$addressof@U?$pair@$$CBV?$basic_string@DU?$char_traits@D@std@@V?$allocator@D@2@@std@@W4level_enum@level@spdlog@@@std@@@std@@YAPEAU?$pair@$$CBV?$basic_string@DU?$char_traits@D@std@@V?$allocator@D@2@@std@@W4level_enum@level@spdlog@@@0@AEAU10@@Z
	??$addressof@V?$_List_unchecked_iterator@V?$_List_val@U?$_List_simple_types@U?$pair@$$CBDV?$unique_ptr@Vcustom_flag_formatter@spdlog@@U?$default_delete@Vcustom_flag_formatter@spdlog@@@std@@@std@@@std@@@std@@@std@@@std@@@std@@YAPEAV?$_List_unchecked_iterator@V?$_List_val@U?$_List_simple_types@U?$pair@$$CBDV?$unique_ptr@Vcustom_flag_formatter@spdlog@@U?$default_delete@Vcustom_flag_formatter@spdlog@@@std@@@std@@@std@@@std@@@std@@@0@AEAV10@@Z
	??$addressof@V?$_List_unchecked_iterator@V?$_List_val@U?$_List_simple_types@U?$pair@$$CBV?$basic_string@DU?$char_traits@D@std@@V?$allocator@D@2@@std@@V?$shared_ptr@Vlogger@spdlog@@@2@@std@@@std@@@std@@@std@@@std@@YAPEAV?$_List_unchecked_iterator@V?$_List_val@U?$_List_simple_types@U?$pair@$$CBV?$basic_string@DU?$char_traits@D@std@@V?$allocator@D@2@@std@@V?$shared_ptr@Vlogger@spdlog@@@2@@std@@@std@@@std@@@0@AEAV10@@Z
	??$addressof@V?$_List_unchecked_iterator@V?$_List_val@U?$_List_simple_types@U?$pair@$$CBV?$basic_string@DU?$char_traits@D@std@@V?$allocator@D@2@@std@@W4level_enum@level@spdlog@@@std@@@std@@@std@@@std@@@std@@YAPEAV?$_List_unchecked_iterator@V?$_List_val@U?$_List_simple_types@U?$pair@$$CBV?$basic_string@DU?$char_traits@D@std@@V?$allocator@D@2@@std@@W4level_enum@level@spdlog@@@std@@@std@@@std@@@0@AEAV10@@Z
	??$addressof@V?$_List_val@U?$_List_simple_types@U?$pair@$$CBDV?$unique_ptr@Vcustom_flag_formatter@spdlog@@U?$default_delete@Vcustom_flag_formatter@spdlog@@@std@@@std@@@std@@@std@@@std@@@std@@YAPEAV?$_List_val@U?$_List_simple_types@U?$pair@$$CBDV?$unique_ptr@Vcustom_flag_formatter@spdlog@@U?$default_delete@Vcustom_flag_formatter@spdlog@@@std@@@std@@@std@@@std@@@0@AEAV10@@Z
	??$addressof@V?$_List_val@U?$_List_simple_types@U?$pair@$$CBV?$basic_string@DU?$char_traits@D@std@@V?$allocator@D@2@@std@@V?$shared_ptr@Vlogger@spdlog@@@2@@std@@@std@@@std@@@std@@YAPEAV?$_List_val@U?$_List_simple_types@U?$pair@$$CBV?$basic_string@DU?$char_traits@D@std@@V?$allocator@D@2@@std@@V?$shared_ptr@Vlogger@spdlog@@@2@@std@@@std@@@0@AEAV10@@Z
	??$addressof@V?$_List_val@U?$_List_simple_types@U?$pair@$$CBV?$basic_string@DU?$char_traits@D@std@@V?$allocator@D@2@@std@@W4level_enum@level@spdlog@@@std@@@std@@@std@@@std@@YAPEAV?$_List_val@U?$_List_simple_types@U?$pair@$$CBV?$basic_string@DU?$char_traits@D@std@@V?$allocator@D@2@@std@@W4level_enum@level@spdlog@@@std@@@std@@@0@AEAV10@@Z
	??$addressof@V?$_String_val@U?$_Simple_types@D@std@@@std@@@std@@YAPEAV?$_String_val@U?$_Simple_types@D@std@@@0@AEAV10@@Z
	??$addressof@V?$_Tree_val@U?$_Tree_simple_types@U?$pair@$$CBV?$basic_string@DU?$char_traits@D@std@@V?$allocator@D@2@@std@@V12@@std@@@std@@@std@@@std@@YAPEAV?$_Tree_val@U?$_Tree_simple_types@U?$pair@$$CBV?$basic_string@DU?$char_traits@D@std@@V?$allocator@D@2@@std@@V12@@std@@@std@@@0@AEAV10@@Z
	??$addressof@V?$_Vector_val@U?$_Simple_types@V?$shared_ptr@Vsink@sinks@spdlog@@@std@@@std@@@std@@@std@@YAPEAV?$_Vector_val@U?$_Simple_types@V?$shared_ptr@Vsink@sinks@spdlog@@@std@@@std@@@0@AEAV10@@Z
	??$addressof@V?$basic_memory_buffer@D$0PK@U?$allocator@D@detail@v11@fmt@@@v11@fmt@@@std@@YAPEAV?$basic_memory_buffer@D$0PK@U?$allocator@D@detail@v11@fmt@@@v11@fmt@@AEAV123@@Z
	??$addressof@V?$basic_string@DU?$char_traits@D@std@@V?$allocator@D@2@@std@@@std@@YAPEAV?$basic_string@DU?$char_traits@D@std@@V?$allocator@D@2@@0@AEAV10@@Z
	??$addressof@V?$function@$$A6AXAEBV?$basic_string@DU?$char_traits@D@std@@V?$allocator@D@2@@std@@@Z@std@@@std@@YAPEAV?$function@$$A6AXAEBV?$basic_string@DU?$char_traits@D@std@@V?$allocator@D@2@@std@@@Z@0@AEAV10@@Z
	??$addressof@V?$unique_ptr@Vflag_formatter@details@spdlog@@U?$default_delete@Vflag_formatter@details@spdlog@@@std@@@std@@@std@@YAPEAV?$unique_ptr@Vflag_formatter@details@spdlog@@U?$default_delete@Vflag_formatter@details@spdlog@@@std@@@0@AEAV10@@Z
	??$addressof@V?$vector@Vlog_msg_buffer@details@spdlog@@V?$allocator@Vlog_msg_buffer@details@spdlog@@@std@@@std@@@std@@YAPEAV?$vector@Vlog_msg_buffer@details@spdlog@@V?$allocator@Vlog_msg_buffer@details@spdlog@@@std@@@0@AEAV10@@Z
	??$addressof@V?$wincolor_stdout_sink@Uconsole_mutex@details@spdlog@@@sinks@spdlog@@@std@@YAPEAV?$wincolor_stdout_sink@Uconsole_mutex@details@spdlog@@@sinks@spdlog@@AEAV123@@Z
	??$addressof@Vlogger@spdlog@@@std@@YAPEAVlogger@spdlog@@AEAV12@@Z
	??$advance@V?$_Vector_iterator@V?$_Vector_val@U?$_Simple_types@V?$shared_ptr@Vsink@sinks@spdlog@@@std@@@std@@@std@@@std@@_J@std@@YAXAEAV?$_Vector_iterator@V?$_Vector_val@U?$_Simple_types@V?$shared_ptr@Vsink@sinks@spdlog@@@std@@@std@@@std@@@0@_J@Z
	??$append@D@?$buffer@D@detail@v11@fmt@@QEAAXPEBD0@Z
	??$append_int@H@fmt_helper@details@spdlog@@YAXHAEAV?$basic_memory_buffer@D$0PK@U?$allocator@D@detail@v11@fmt@@@v11@fmt@@@Z
	??$append_int@I@fmt_helper@details@spdlog@@YAXIAEAV?$basic_memory_buffer@D$0PK@U?$allocator@D@detail@v11@fmt@@@v11@fmt@@@Z
	??$append_int@_J@fmt_helper@details@spdlog@@YAX_JAEAV?$basic_memory_buffer@D$0PK@U?$allocator@D@detail@v11@fmt@@@v11@fmt@@@Z
	??$append_int@_K@fmt_helper@details@spdlog@@YAX_KAEAV?$basic_memory_buffer@D$0PK@U?$allocator@D@detail@v11@fmt@@@v11@fmt@@@Z
	??$apply@V?$basic_appender@D@v11@fmt@@D@?$digit_grouping@D@detail@v11@fmt@@QEBA?AV?$basic_appender@D@23@V423@V?$basic_string_view@D@23@@Z
	??$apply@V?$basic_appender@D@v11@fmt@@D@?$fallback_digit_grouping@D@detail@v11@fmt@@QEBA?AV?$basic_appender@D@23@V423@V?$basic_string_view@D@23@@Z
	??$assign@M$0A@@?$basic_fp@Vuint128_fallback@detail@v11@fmt@@@detail@v11@fmt@@QEAA_NM@Z
	??$assign@N$0A@@?$basic_fp@Vuint128_fallback@detail@v11@fmt@@@detail@v11@fmt@@QEAA_NN@Z
	??$assign@N$0A@@?$basic_fp@_K@detail@v11@fmt@@QEAA_NN@Z
	??$assign@Vuint128_fallback@detail@v11@fmt@@$0A@@bigint@detail@v11@fmt@@AEAAXVuint128_fallback@123@@Z
	??$assign@_K$0A@@bigint@detail@v11@fmt@@AEAAX_K@Z
	??$back_inserter@V?$basic_memory_buffer@D$0PK@U?$allocator@D@detail@v11@fmt@@@v11@fmt@@@std@@YA?AV?$back_insert_iterator@V?$basic_memory_buffer@D$0PK@U?$allocator@D@detail@v11@fmt@@@v11@fmt@@@0@AEAV?$basic_memory_buffer@D$0PK@U?$allocator@D@detail@v11@fmt@@@v11@fmt@@@Z
	??$base_iterator@V?$basic_appender@D@v11@fmt@@@detail@v11@fmt@@YA?AV?$basic_appender@D@12@V312@0@Z
	??$begin@$$CBD$02@std@@YAPEBDAEAY02$$CBD@Z
	??$bit_cast@IM$0A@@detail@v11@fmt@@YAIAEBM@Z
	??$bit_cast@IM@std@@YAIAEBM@Z
	??$bit_cast@_KN$0A@@detail@v11@fmt@@YA_KAEBN@Z
	??$bit_cast@_KN@std@@YA_KAEBN@Z
	??$bit_cast@_KO$0A@@detail@v11@fmt@@YA_KAEBO@Z
	??$bit_cast@_KO@std@@YA_KAEBO@Z
	??$bit_cast@_KPEBD$0A@@detail@v11@fmt@@YA_KAEBQEBD@Z
	??$bit_cast@_KPEBD@std@@YA_KAEBQEBD@Z
	??$bit_cast@_KPEBX$0A@@detail@v11@fmt@@YA_KAEBQEBX@Z
	??$bit_cast@_KPEBX@std@@YA_KAEBQEBX@Z
	??$check_divisibility_and_divide_by_pow10@$00@dragonbox@detail@v11@fmt@@YA_NAEAI@Z
	??$check_divisibility_and_divide_by_pow10@$01@dragonbox@detail@v11@fmt@@YA_NAEAI@Z
	??$code_point_length@D@detail@v11@fmt@@YAHPEBD@Z
	??$compare@D@detail@v11@fmt@@YAHPEBD0_K@Z
	??$compile_string_to_view@D$04@detail@v11@fmt@@YA?AV?$basic_string_view@D@12@AEAY04$$CBD@Z
	??$compile_string_to_view@D$05@detail@v11@fmt@@YA?AV?$basic_string_view@D@12@AEAY05$$CBD@Z
	??$compile_string_to_view@D$0M@@detail@v11@fmt@@YA?AV?$basic_string_view@D@12@AEAY0M@$$CBD@Z
	??$conditional_static_cast@HK$0A@@details@spdlog@@YAHK@Z
	??$const_check@_N@detail@v11@fmt@@YA_N_N@Z
	??$construct@U?$pair@$$CBDV?$unique_ptr@Vcustom_flag_formatter@spdlog@@U?$default_delete@Vcustom_flag_formatter@spdlog@@@std@@@std@@@std@@AEBUpiecewise_construct_t@2@V?$tuple@AEBD@2@V?$tuple@$$V@2@@?$_Default_allocator_traits@V?$allocator@U?$_List_node@U?$pair@$$CBDV?$unique_ptr@Vcustom_flag_formatter@spdlog@@U?$default_delete@Vcustom_flag_formatter@spdlog@@@std@@@std@@@std@@PEAX@std@@@std@@@std@@SAXAEAV?$allocator@U?$_List_node@U?$pair@$$CBDV?$unique_ptr@Vcustom_flag_formatter@spdlog@@U?$default_delete@Vcustom_flag_formatter@spdlog@@@std@@@std@@@std@@PEAX@std@@@1@QEAU?$pair@$$CBDV?$unique_ptr@Vcustom_flag_formatter@spdlog@@U?$default_delete@Vcustom_flag_formatter@spdlog@@@std@@@std@@@1@AEBUpiecewise_construct_t@1@$$QEAV?$tuple@AEBD@1@$$QEAV?$tuple@$$V@1@@Z
	??$construct@U?$pair@$$CBV?$basic_string@DU?$char_traits@D@std@@V?$allocator@D@2@@std@@V?$shared_ptr@Vlogger@spdlog@@@2@@std@@AEBUpiecewise_construct_t@2@V?$tuple@$$QEAV?$basic_string@DU?$char_traits@D@std@@V?$allocator@D@2@@std@@@2@V?$tuple@$$V@2@@?$_Default_allocator_traits@V?$allocator@U?$_List_node@U?$pair@$$CBV?$basic_string@DU?$char_traits@D@std@@V?$allocator@D@2@@std@@V?$shared_ptr@Vlogger@spdlog@@@2@@std@@PEAX@std@@@std@@@std@@SAXAEAV?$allocator@U?$_List_node@U?$pair@$$CBV?$basic_string@DU?$char_traits@D@std@@V?$allocator@D@2@@std@@V?$shared_ptr@Vlogger@spdlog@@@2@@std@@PEAX@std@@@1@QEAU?$pair@$$CBV?$basic_string@DU?$char_traits@D@std@@V?$allocator@D@2@@std@@V?$shared_ptr@Vlogger@spdlog@@@2@@1@AEBUpiecewise_construct_t@1@$$QEAV?$tuple@$$QEAV?$basic_string@DU?$char_traits@D@std@@V?$allocator@D@2@@std@@@1@$$QEAV?$tuple@$$V@1@@Z
	??$construct@U?$pair@$$CBV?$basic_string@DU?$char_traits@D@std@@V?$allocator@D@2@@std@@V?$shared_ptr@Vlogger@spdlog@@@2@@std@@AEBUpiecewise_construct_t@2@V?$tuple@AEBV?$basic_string@DU?$char_traits@D@std@@V?$allocator@D@2@@std@@@2@V?$tuple@$$V@2@@?$_Default_allocator_traits@V?$allocator@U?$_List_node@U?$pair@$$CBV?$basic_string@DU?$char_traits@D@std@@V?$allocator@D@2@@std@@V?$shared_ptr@Vlogger@spdlog@@@2@@std@@PEAX@std@@@std@@@std@@SAXAEAV?$allocator@U?$_List_node@U?$pair@$$CBV?$basic_string@DU?$char_traits@D@std@@V?$allocator@D@2@@std@@V?$shared_ptr@Vlogger@spdlog@@@2@@std@@PEAX@std@@@1@QEAU?$pair@$$CBV?$basic_string@DU?$char_traits@D@std@@V?$allocator@D@2@@std@@V?$shared_ptr@Vlogger@spdlog@@@2@@1@AEBUpiecewise_construct_t@1@$$QEAV?$tuple@AEBV?$basic_string@DU?$char_traits@D@std@@V?$allocator@D@2@@std@@@1@$$QEAV?$tuple@$$V@1@@Z
	??$construct@V?$shared_ptr@Vsink@sinks@spdlog@@@std@@AEAV12@@?$_Default_allocator_traits@V?$allocator@V?$shared_ptr@Vsink@sinks@spdlog@@@std@@@std@@@std@@SAXAEAV?$allocator@V?$shared_ptr@Vsink@sinks@spdlog@@@std@@@1@QEAV?$shared_ptr@Vsink@sinks@spdlog@@@1@AEAV31@@Z
	??$construct@V?$shared_ptr@Vsink@sinks@spdlog@@@std@@AEBV12@@?$_Default_allocator_traits@V?$allocator@V?$shared_ptr@Vsink@sinks@spdlog@@@std@@@std@@@std@@SAXAEAV?$allocator@V?$shared_ptr@Vsink@sinks@spdlog@@@std@@@1@QEAV?$shared_ptr@Vsink@sinks@spdlog@@@1@AEBV31@@Z
	??$construct@V?$unique_ptr@Vflag_formatter@details@spdlog@@U?$default_delete@Vflag_formatter@details@spdlog@@@std@@@std@@V12@@?$_Default_allocator_traits@V?$allocator@V?$unique_ptr@Vflag_formatter@details@spdlog@@U?$default_delete@Vflag_formatter@details@spdlog@@@std@@@std@@@std@@@std@@SAXAEAV?$allocator@V?$unique_ptr@Vflag_formatter@details@spdlog@@U?$default_delete@Vflag_formatter@details@spdlog@@@std@@@std@@@1@QEAV?$unique_ptr@Vflag_formatter@details@spdlog@@U?$default_delete@Vflag_formatter@details@spdlog@@@std@@@1@$$QEAV31@@Z
	??$construct@Vlog_msg_buffer@details@spdlog@@$$V@?$_Default_allocator_traits@V?$allocator@Vlog_msg_buffer@details@spdlog@@@std@@@std@@SAXAEAV?$allocator@Vlog_msg_buffer@details@spdlog@@@1@QEAVlog_msg_buffer@details@spdlog@@@Z
	??$construct@Vlog_msg_buffer@details@spdlog@@AEAV123@@?$_Default_allocator_traits@V?$allocator@Vlog_msg_buffer@details@spdlog@@@std@@@std@@SAXAEAV?$allocator@Vlog_msg_buffer@details@spdlog@@@1@QEAVlog_msg_buffer@details@spdlog@@AEAV345@@Z
	??$construct_at@D$$V@std@@YAPEADQEAD@Z
	??$construct_at@PEADAEAPEAD@std@@YAPEAPEADQEAPEADAEAPEAD@Z
	??$construct_at@PEADAEBQEAD@std@@YAPEAPEADQEAPEADAEBQEAD@Z
	??$construct_at@PEAU?$_List_node@U?$pair@$$CBDV?$unique_ptr@Vcustom_flag_formatter@spdlog@@U?$default_delete@Vcustom_flag_formatter@spdlog@@@std@@@std@@@std@@PEAX@std@@AEAPEAU12@@std@@YAPEAPEAU?$_List_node@U?$pair@$$CBDV?$unique_ptr@Vcustom_flag_formatter@spdlog@@U?$default_delete@Vcustom_flag_formatter@spdlog@@@std@@@std@@@std@@PEAX@0@QEAPEAU10@AEAPEAU10@@Z
	??$construct_at@PEAU?$_List_node@U?$pair@$$CBDV?$unique_ptr@Vcustom_flag_formatter@spdlog@@U?$default_delete@Vcustom_flag_formatter@spdlog@@@std@@@std@@@std@@PEAX@std@@AEBQEAU12@@std@@YAPEAPEAU?$_List_node@U?$pair@$$CBDV?$unique_ptr@Vcustom_flag_formatter@spdlog@@U?$default_delete@Vcustom_flag_formatter@spdlog@@@std@@@std@@@std@@PEAX@0@QEAPEAU10@AEBQEAU10@@Z
	??$construct_at@PEAU?$_List_node@U?$pair@$$CBV?$basic_string@DU?$char_traits@D@std@@V?$allocator@D@2@@std@@V?$shared_ptr@Vlogger@spdlog@@@2@@std@@PEAX@std@@AEAPEAU12@@std@@YAPEAPEAU?$_List_node@U?$pair@$$CBV?$basic_string@DU?$char_traits@D@std@@V?$allocator@D@2@@std@@V?$shared_ptr@Vlogger@spdlog@@@2@@std@@PEAX@0@QEAPEAU10@AEAPEAU10@@Z
	??$construct_at@PEAU?$_List_node@U?$pair@$$CBV?$basic_string@DU?$char_traits@D@std@@V?$allocator@D@2@@std@@V?$shared_ptr@Vlogger@spdlog@@@2@@std@@PEAX@std@@AEBQEAU12@@std@@YAPEAPEAU?$_List_node@U?$pair@$$CBV?$basic_string@DU?$char_traits@D@std@@V?$allocator@D@2@@std@@V?$shared_ptr@Vlogger@spdlog@@@2@@std@@PEAX@0@QEAPEAU10@AEBQEAU10@@Z
	??$construct_at@PEAU?$_List_node@U?$pair@$$CBV?$basic_string@DU?$char_traits@D@std@@V?$allocator@D@2@@std@@W4level_enum@level@spdlog@@@std@@PEAX@std@@AEAPEAU12@@std@@YAPEAPEAU?$_List_node@U?$pair@$$CBV?$basic_string@DU?$char_traits@D@std@@V?$allocator@D@2@@std@@W4level_enum@level@spdlog@@@std@@PEAX@0@QEAPEAU10@AEAPEAU10@@Z
	??$construct_at@PEAU?$_Tree_node@U?$pair@$$CBV?$basic_string@DU?$char_traits@D@std@@V?$allocator@D@2@@std@@V12@@std@@PEAX@std@@AEBQEAU12@@std@@YAPEAPEAU?$_Tree_node@U?$pair@$$CBV?$basic_string@DU?$char_traits@D@std@@V?$allocator@D@2@@std@@V12@@std@@PEAX@0@QEAPEAU10@AEBQEAU10@@Z
	??$construct_at@U?$pair@$$CBDV?$unique_ptr@Vcustom_flag_formatter@spdlog@@U?$default_delete@Vcustom_flag_formatter@spdlog@@@std@@@std@@@std@@AEBUpiecewise_construct_t@2@V?$tuple@AEBD@2@V?$tuple@$$V@2@@std@@YAPEAU?$pair@$$CBDV?$unique_ptr@Vcustom_flag_formatter@spdlog@@U?$default_delete@Vcustom_flag_formatter@spdlog@@@std@@@std@@@0@QEAU10@AEBUpiecewise_construct_t@0@$$QEAV?$tuple@AEBD@0@$$QEAV?$tuple@$$V@0@@Z
	??$construct_at@U?$pair@$$CBV?$basic_string@DU?$char_traits@D@std@@V?$allocator@D@2@@std@@V?$shared_ptr@Vlogger@spdlog@@@2@@std@@AEBUpiecewise_construct_t@2@V?$tuple@$$QEAV?$basic_string@DU?$char_traits@D@std@@V?$allocator@D@2@@std@@@2@V?$tuple@$$V@2@@std@@YAPEAU?$pair@$$CBV?$basic_string@DU?$char_traits@D@std@@V?$allocator@D@2@@std@@V?$shared_ptr@Vlogger@spdlog@@@2@@0@QEAU10@AEBUpiecewise_construct_t@0@$$QEAV?$tuple@$$QEAV?$basic_string@DU?$char_traits@D@std@@V?$allocator@D@2@@std@@@0@$$QEAV?$tuple@$$V@0@@Z
	??$construct_at@U?$pair@$$CBV?$basic_string@DU?$char_traits@D@std@@V?$allocator@D@2@@std@@V?$shared_ptr@Vlogger@spdlog@@@2@@std@@AEBUpiecewise_construct_t@2@V?$tuple@AEBV?$basic_string@DU?$char_traits@D@std@@V?$allocator@D@2@@std@@@2@V?$tuple@$$V@2@@std@@YAPEAU?$pair@$$CBV?$basic_string@DU?$char_traits@D@std@@V?$allocator@D@2@@std@@V?$shared_ptr@Vlogger@spdlog@@@2@@0@QEAU10@AEBUpiecewise_construct_t@0@$$QEAV?$tuple@AEBV?$basic_string@DU?$char_traits@D@std@@V?$allocator@D@2@@std@@@0@$$QEAV?$tuple@$$V@0@@Z
	??$construct_at@V?$_List_unchecked_iterator@V?$_List_val@U?$_List_simple_types@U?$pair@$$CBDV?$unique_ptr@Vcustom_flag_formatter@spdlog@@U?$default_delete@Vcustom_flag_formatter@spdlog@@@std@@@std@@@std@@@std@@@std@@@std@@AEBV12@@std@@YAPEAV?$_List_unchecked_iterator@V?$_List_val@U?$_List_simple_types@U?$pair@$$CBDV?$unique_ptr@Vcustom_flag_formatter@spdlog@@U?$default_delete@Vcustom_flag_formatter@spdlog@@@std@@@std@@@std@@@std@@@std@@@0@QEAV10@AEBV10@@Z
	??$construct_at@V?$_List_unchecked_iterator@V?$_List_val@U?$_List_simple_types@U?$pair@$$CBV?$basic_string@DU?$char_traits@D@std@@V?$allocator@D@2@@std@@V?$shared_ptr@Vlogger@spdlog@@@2@@std@@@std@@@std@@@std@@AEBV12@@std@@YAPEAV?$_List_unchecked_iterator@V?$_List_val@U?$_List_simple_types@U?$pair@$$CBV?$basic_string@DU?$char_traits@D@std@@V?$allocator@D@2@@std@@V?$shared_ptr@Vlogger@spdlog@@@2@@std@@@std@@@std@@@0@QEAV10@AEBV10@@Z
	??$construct_at@V?$_List_unchecked_iterator@V?$_List_val@U?$_List_simple_types@U?$pair@$$CBV?$basic_string@DU?$char_traits@D@std@@V?$allocator@D@2@@std@@W4level_enum@level@spdlog@@@std@@@std@@@std@@@std@@AEBV12@@std@@YAPEAV?$_List_unchecked_iterator@V?$_List_val@U?$_List_simple_types@U?$pair@$$CBV?$basic_string@DU?$char_traits@D@std@@V?$allocator@D@2@@std@@W4level_enum@level@spdlog@@@std@@@std@@@std@@@0@QEAV10@AEBV10@@Z
	??$construct_at@V?$shared_ptr@Vsink@sinks@spdlog@@@std@@AEAV12@@std@@YAPEAV?$shared_ptr@Vsink@sinks@spdlog@@@0@QEAV10@AEAV10@@Z
	??$construct_at@V?$shared_ptr@Vsink@sinks@spdlog@@@std@@AEBV12@@std@@YAPEAV?$shared_ptr@Vsink@sinks@spdlog@@@0@QEAV10@AEBV10@@Z
	??$construct_at@V?$unique_ptr@Vflag_formatter@details@spdlog@@U?$default_delete@Vflag_formatter@details@spdlog@@@std@@@std@@V12@@std@@YAPEAV?$unique_ptr@Vflag_formatter@details@spdlog@@U?$default_delete@Vflag_formatter@details@spdlog@@@std@@@0@QEAV10@$$QEAV10@@Z
	??$construct_at@V?$wincolor_stdout_sink@Uconsole_mutex@details@spdlog@@@sinks@spdlog@@$$V@std@@YAPEAV?$wincolor_stdout_sink@Uconsole_mutex@details@spdlog@@@sinks@spdlog@@QEAV123@@Z
	??$construct_at@V?$wincolor_stdout_sink@Uconsole_mutex@details@spdlog@@@sinks@spdlog@@AEAW4color_mode@3@@std@@YAPEAV?$wincolor_stdout_sink@Uconsole_mutex@details@spdlog@@@sinks@spdlog@@QEAV123@AEAW4color_mode@3@@Z
	??$construct_at@Vlog_msg_buffer@details@spdlog@@$$V@std@@YAPEAVlog_msg_buffer@details@spdlog@@QEAV123@@Z
	??$construct_at@Vlog_msg_buffer@details@spdlog@@AEAV123@@std@@YAPEAVlog_msg_buffer@details@spdlog@@QEAV123@AEAV123@@Z
	??$construct_at@Vlogger@spdlog@@AEAPEBDV?$shared_ptr@V?$wincolor_stdout_sink@Uconsole_mutex@details@spdlog@@@sinks@spdlog@@@std@@@std@@YAPEAVlogger@spdlog@@QEAV12@AEAPEBD$$QEAV?$shared_ptr@V?$wincolor_stdout_sink@Uconsole_mutex@details@spdlog@@@sinks@spdlog@@@0@@Z
	??$construct_at@Vlogger@spdlog@@AEAV12@@std@@YAPEAVlogger@spdlog@@QEAV12@AEAV12@@Z
	??$construct_at@Vlogger@spdlog@@V?$basic_string@DU?$char_traits@D@std@@V?$allocator@D@2@@std@@V?$shared_ptr@V?$wincolor_stdout_sink@Uconsole_mutex@details@spdlog@@@sinks@spdlog@@@4@@std@@YAPEAVlogger@spdlog@@QEAV12@$$QEAV?$basic_string@DU?$char_traits@D@std@@V?$allocator@D@2@@0@$$QEAV?$shared_ptr@V?$wincolor_stdout_sink@Uconsole_mutex@details@spdlog@@@sinks@spdlog@@@0@@Z
	??$convert_float@M@detail@v11@fmt@@YANM@Z
	??$convert_float@N@detail@v11@fmt@@YANN@Z
	??$convert_float@O@detail@v11@fmt@@YANO@Z
	??$copy@DPEADV?$basic_appender@D@v11@fmt@@$0A@@detail@v11@fmt@@YA?AV?$basic_appender@D@12@PEAD0V312@@Z
	??$copy@DPEBDPEAD$0A@@detail@v11@fmt@@YAPEADPEBD0PEAD@Z
	??$copy@DPEBDV?$basic_appender@D@v11@fmt@@$0A@@detail@v11@fmt@@YA?AV?$basic_appender@D@12@PEBD0V312@@Z
	??$copy@IPEAIPEAI$0A@@detail@v11@fmt@@YAPEAIPEAI00@Z
	??$copy@IPEBIPEAI$0A@@detail@v11@fmt@@YAPEAIPEBI0PEAI@Z
	??$copy_noinline@DPEADV?$basic_appender@D@v11@fmt@@@detail@v11@fmt@@YA?AV?$basic_appender@D@12@PEAD0V312@@Z
	??$copy_noinline@DPEBDV?$basic_appender@D@v11@fmt@@@detail@v11@fmt@@YA?AV?$basic_appender@D@12@PEBD0V312@@Z
	??$count_digits@$00_K@detail@v11@fmt@@YAH_K@Z
	??$count_digits@$02_K@detail@v11@fmt@@YAH_K@Z
	??$count_digits@$03_K@detail@v11@fmt@@YAH_K@Z
	??$count_digits@H@fmt_helper@details@spdlog@@YAIH@Z
	??$count_digits@H@null_scoped_padder@details@spdlog@@SAIH@Z
	??$count_digits@H@scoped_padder@details@spdlog@@SAIH@Z
	??$count_digits@I@fmt_helper@details@spdlog@@YAII@Z
	??$count_digits@I@null_scoped_padder@details@spdlog@@SAII@Z
	??$count_digits@I@scoped_padder@details@spdlog@@SAII@Z
	??$count_digits@_K@fmt_helper@details@spdlog@@YAI_K@Z
	??$count_digits@_K@null_scoped_padder@details@spdlog@@SAI_K@Z
	??$count_digits@_K@scoped_padder@details@spdlog@@SAI_K@Z
	??$count_digits_fallback@I@detail@v11@fmt@@YAHI@Z
	??$count_digits_fallback@_K@detail@v11@fmt@@YAH_K@Z
	??$countl_zero_fallback@I@detail@v11@fmt@@YAHI@Z
	??$countl_zero_fallback@_K@detail@v11@fmt@@YAH_K@Z
	??$create@V?$wincolor_stdout_sink@Uconsole_mutex@details@spdlog@@@sinks@spdlog@@AEAW4color_mode@3@@synchronous_factory@spdlog@@SA?AV?$shared_ptr@Vlogger@spdlog@@@std@@V?$basic_string@DU?$char_traits@D@std@@V?$allocator@D@2@@3@AEAW4color_mode@1@@Z
	??$decimal_point@D@detail@v11@fmt@@YADUlocale_ref@012@@Z
	??$decimal_point_impl@D@detail@v11@fmt@@YADUlocale_ref@012@@Z
	??$destroy@U?$pair@$$CBDV?$unique_ptr@Vcustom_flag_formatter@spdlog@@U?$default_delete@Vcustom_flag_formatter@spdlog@@@std@@@std@@@std@@@?$_Default_allocator_traits@V?$allocator@U?$_List_node@U?$pair@$$CBDV?$unique_ptr@Vcustom_flag_formatter@spdlog@@U?$default_delete@Vcustom_flag_formatter@spdlog@@@std@@@std@@@std@@PEAX@std@@@std@@@std@@SAXAEAV?$allocator@U?$_List_node@U?$pair@$$CBDV?$unique_ptr@Vcustom_flag_formatter@spdlog@@U?$default_delete@Vcustom_flag_formatter@spdlog@@@std@@@std@@@std@@PEAX@std@@@1@QEAU?$pair@$$CBDV?$unique_ptr@Vcustom_flag_formatter@spdlog@@U?$default_delete@Vcustom_flag_formatter@spdlog@@@std@@@std@@@1@@Z
	??$destroy@U?$pair@$$CBV?$basic_string@DU?$char_traits@D@std@@V?$allocator@D@2@@std@@V12@@std@@@?$_Default_allocator_traits@V?$allocator@U?$_Tree_node@U?$pair@$$CBV?$basic_string@DU?$char_traits@D@std@@V?$allocator@D@2@@std@@V12@@std@@PEAX@std@@@std@@@std@@SAXAEAV?$allocator@U?$_Tree_node@U?$pair@$$CBV?$basic_string@DU?$char_traits@D@std@@V?$allocator@D@2@@std@@V12@@std@@PEAX@std@@@1@QEAU?$pair@$$CBV?$basic_string@DU?$char_traits@D@std@@V?$allocator@D@2@@std@@V12@@1@@Z
	??$destroy@U?$pair@$$CBV?$basic_string@DU?$char_traits@D@std@@V?$allocator@D@2@@std@@V?$shared_ptr@Vlogger@spdlog@@@2@@std@@@?$_Default_allocator_traits@V?$allocator@U?$_List_node@U?$pair@$$CBV?$basic_string@DU?$char_traits@D@std@@V?$allocator@D@2@@std@@V?$shared_ptr@Vlogger@spdlog@@@2@@std@@PEAX@std@@@std@@@std@@SAXAEAV?$allocator@U?$_List_node@U?$pair@$$CBV?$basic_string@DU?$char_traits@D@std@@V?$allocator@D@2@@std@@V?$shared_ptr@Vlogger@spdlog@@@2@@std@@PEAX@std@@@1@QEAU?$pair@$$CBV?$basic_string@DU?$char_traits@D@std@@V?$allocator@D@2@@std@@V?$shared_ptr@Vlogger@spdlog@@@2@@1@@Z
	??$destroy@U?$pair@$$CBV?$basic_string@DU?$char_traits@D@std@@V?$allocator@D@2@@std@@W4level_enum@level@spdlog@@@std@@@?$_Default_allocator_traits@V?$allocator@U?$_List_node@U?$pair@$$CBV?$basic_string@DU?$char_traits@D@std@@V?$allocator@D@2@@std@@W4level_enum@level@spdlog@@@std@@PEAX@std@@@std@@@std@@SAXAEAV?$allocator@U?$_List_node@U?$pair@$$CBV?$basic_string@DU?$char_traits@D@std@@V?$allocator@D@2@@std@@W4level_enum@level@spdlog@@@std@@PEAX@std@@@1@QEAU?$pair@$$CBV?$basic_string@DU?$char_traits@D@std@@V?$allocator@D@2@@std@@W4level_enum@level@spdlog@@@1@@Z
	??$destroy@V?$shared_ptr@Vsink@sinks@spdlog@@@std@@@?$_Default_allocator_traits@V?$allocator@V?$shared_ptr@Vsink@sinks@spdlog@@@std@@@std@@@std@@SAXAEAV?$allocator@V?$shared_ptr@Vsink@sinks@spdlog@@@std@@@1@QEAV?$shared_ptr@Vsink@sinks@spdlog@@@1@@Z
	??$destroy@V?$unique_ptr@Vflag_formatter@details@spdlog@@U?$default_delete@Vflag_formatter@details@spdlog@@@std@@@std@@@?$_Default_allocator_traits@V?$allocator@V?$unique_ptr@Vflag_formatter@details@spdlog@@U?$default_delete@Vflag_formatter@details@spdlog@@@std@@@std@@@std@@@std@@SAXAEAV?$allocator@V?$unique_ptr@Vflag_formatter@details@spdlog@@U?$default_delete@Vflag_formatter@details@spdlog@@@std@@@std@@@1@QEAV?$unique_ptr@Vflag_formatter@details@spdlog@@U?$default_delete@Vflag_formatter@details@spdlog@@@std@@@1@@Z
	??$destroy@Vlog_msg_buffer@details@spdlog@@@?$_Default_allocator_traits@V?$allocator@Vlog_msg_buffer@details@spdlog@@@std@@@std@@SAXAEAV?$allocator@Vlog_msg_buffer@details@spdlog@@@1@QEAVlog_msg_buffer@details@spdlog@@@Z
	??$destroy_at@U?$pair@$$CBDV?$unique_ptr@Vcustom_flag_formatter@spdlog@@U?$default_delete@Vcustom_flag_formatter@spdlog@@@std@@@std@@@std@@@std@@YAXQEAU?$pair@$$CBDV?$unique_ptr@Vcustom_flag_formatter@spdlog@@U?$default_delete@Vcustom_flag_formatter@spdlog@@@std@@@std@@@0@@Z
	??$destroy_at@U?$pair@$$CBV?$basic_string@DU?$char_traits@D@std@@V?$allocator@D@2@@std@@V12@@std@@@std@@YAXQEAU?$pair@$$CBV?$basic_string@DU?$char_traits@D@std@@V?$allocator@D@2@@std@@V12@@0@@Z
	??$destroy_at@U?$pair@$$CBV?$basic_string@DU?$char_traits@D@std@@V?$allocator@D@2@@std@@V?$shared_ptr@Vlogger@spdlog@@@2@@std@@@std@@YAXQEAU?$pair@$$CBV?$basic_string@DU?$char_traits@D@std@@V?$allocator@D@2@@std@@V?$shared_ptr@Vlogger@spdlog@@@2@@0@@Z
	??$destroy_at@U?$pair@$$CBV?$basic_string@DU?$char_traits@D@std@@V?$allocator@D@2@@std@@W4level_enum@level@spdlog@@@std@@@std@@YAXQEAU?$pair@$$CBV?$basic_string@DU?$char_traits@D@std@@V?$allocator@D@2@@std@@W4level_enum@level@spdlog@@@0@@Z
	??$destroy_at@V?$shared_ptr@Vsink@sinks@spdlog@@@std@@@std@@YAXQEAV?$shared_ptr@Vsink@sinks@spdlog@@@0@@Z
	??$destroy_at@V?$unique_ptr@Vflag_formatter@details@spdlog@@U?$default_delete@Vflag_formatter@details@spdlog@@@std@@@std@@@std@@YAXQEAV?$unique_ptr@Vflag_formatter@details@spdlog@@U?$default_delete@Vflag_formatter@details@spdlog@@@std@@@0@@Z
	??$destroy_at@Vlog_msg_buffer@details@spdlog@@@std@@YAXQEAVlog_msg_buffer@details@spdlog@@@Z
	??$distance@PEBV?$shared_ptr@Vsink@sinks@spdlog@@@std@@@std@@YA_JPEBV?$shared_ptr@Vsink@sinks@spdlog@@@0@0@Z
	??$do_format_base2e@DI@detail@v11@fmt@@YAPEADHPEADIH_N@Z
	??$do_format_base2e@D_K@detail@v11@fmt@@YAPEADHPEAD_KH_N@Z
	??$do_format_decimal@DI@detail@v11@fmt@@YAPEADPEADIH@Z
	??$do_format_decimal@D_K@detail@v11@fmt@@YAPEADPEAD_KH@Z
	??$do_throw@Vbad_alloc@std@@@detail@v11@fmt@@YAXAEBVbad_alloc@std@@@Z
	??$do_throw@Vformat_error@v11@fmt@@@detail@v11@fmt@@YAXAEBVformat_error@12@@Z
	??$do_write_float@DV?$basic_appender@D@v11@fmt@@U?$decimal_fp@M@dragonbox@detail@23@V?$digit_grouping@D@623@@detail@v11@fmt@@YA?AV?$basic_appender@D@12@V312@AEBU?$decimal_fp@M@dragonbox@012@AEBUformat_specs@12@W4sign@12@Ulocale_ref@012@@Z
	??$do_write_float@DV?$basic_appender@D@v11@fmt@@U?$decimal_fp@M@dragonbox@detail@23@V?$fallback_digit_grouping@D@623@@detail@v11@fmt@@YA?AV?$basic_appender@D@12@V312@AEBU?$decimal_fp@M@dragonbox@012@AEBUformat_specs@12@W4sign@12@Ulocale_ref@012@@Z
	??$do_write_float@DV?$basic_appender@D@v11@fmt@@U?$decimal_fp@N@dragonbox@detail@23@V?$digit_grouping@D@623@@detail@v11@fmt@@YA?AV?$basic_appender@D@12@V312@AEBU?$decimal_fp@N@dragonbox@012@AEBUformat_specs@12@W4sign@12@Ulocale_ref@012@@Z
	??$do_write_float@DV?$basic_appender@D@v11@fmt@@U?$decimal_fp@N@dragonbox@detail@23@V?$fallback_digit_grouping@D@623@@detail@v11@fmt@@YA?AV?$basic_appender@D@12@V312@AEBU?$decimal_fp@N@dragonbox@012@AEBUformat_specs@12@W4sign@12@Ulocale_ref@012@@Z
	??$do_write_float@DV?$basic_appender@D@v11@fmt@@Ubig_decimal_fp@detail@23@V?$digit_grouping@D@523@@detail@v11@fmt@@YA?AV?$basic_appender@D@12@V312@AEBUbig_decimal_fp@012@AEBUformat_specs@12@W4sign@12@Ulocale_ref@012@@Z
	??$do_write_float@DV?$basic_appender@D@v11@fmt@@Ubig_decimal_fp@detail@23@V?$fallback_digit_grouping@D@523@@detail@v11@fmt@@YA?AV?$basic_appender@D@12@V312@AEBUbig_decimal_fp@012@AEBUformat_specs@12@W4sign@12@Ulocale_ref@012@@Z
	??$duration_cast@V?$duration@_JU?$ratio@$00$00@std@@@chrono@std@@_JU?$ratio@$00$0JIJGIA@@3@$0A@@chrono@std@@YA?AV?$duration@_JU?$ratio@$00$00@std@@@01@AEBV?$duration@_JU?$ratio@$00$0JIJGIA@@std@@@01@@Z
	??$duration_cast@V?$duration@_JU?$ratio@$00$0DLJKMKAA@@std@@@chrono@std@@_JU?$ratio@$00$00@3@$0A@@chrono@std@@YA?AV?$duration@_JU?$ratio@$00$0DLJKMKAA@@std@@@01@AEBV?$duration@_JU?$ratio@$00$00@std@@@01@@Z
	??$duration_cast@V?$duration@_JU?$ratio@$00$0DLJKMKAA@@std@@@chrono@std@@_JU?$ratio@$00$0JIJGIA@@3@$0A@@chrono@std@@YA?AV?$duration@_JU?$ratio@$00$0DLJKMKAA@@std@@@01@AEBV?$duration@_JU?$ratio@$00$0JIJGIA@@std@@@01@@Z
	??$duration_cast@V?$duration@_JU?$ratio@$00$0DOI@@std@@@chrono@std@@_JU?$ratio@$00$00@3@$0A@@chrono@std@@YA?AV?$duration@_JU?$ratio@$00$0DOI@@std@@@01@AEBV?$duration@_JU?$ratio@$00$00@std@@@01@@Z
	??$duration_cast@V?$duration@_JU?$ratio@$00$0DOI@@std@@@chrono@std@@_JU?$ratio@$00$0JIJGIA@@3@$0A@@chrono@std@@YA?AV?$duration@_JU?$ratio@$00$0DOI@@std@@@01@AEBV?$duration@_JU?$ratio@$00$0JIJGIA@@std@@@01@@Z
	??$duration_cast@V?$duration@_JU?$ratio@$00$0JIJGIA@@std@@@chrono@std@@_JU?$ratio@$00$00@3@$0A@@chrono@std@@YA?AV?$duration@_JU?$ratio@$00$0JIJGIA@@std@@@01@AEBV?$duration@_JU?$ratio@$00$00@std@@@01@@Z
	??$duration_cast@V?$duration@_JU?$ratio@$00$0PECEA@@std@@@chrono@std@@_JU?$ratio@$00$00@3@$0A@@chrono@std@@YA?AV?$duration@_JU?$ratio@$00$0PECEA@@std@@@01@AEBV?$duration@_JU?$ratio@$00$00@std@@@01@@Z
	??$duration_cast@V?$duration@_JU?$ratio@$00$0PECEA@@std@@@chrono@std@@_JU?$ratio@$00$0JIJGIA@@3@$0A@@chrono@std@@YA?AV?$duration@_JU?$ratio@$00$0PECEA@@std@@@01@AEBV?$duration@_JU?$ratio@$00$0JIJGIA@@std@@@01@@Z
	??$end@$$CBD$02@std@@YAPEBDAEAY02$$CBD@Z
	??$exchange@PEAU?$_List_node@U?$pair@$$CBDV?$unique_ptr@Vcustom_flag_formatter@spdlog@@U?$default_delete@Vcustom_flag_formatter@spdlog@@@std@@@std@@@std@@PEAX@std@@$$T@std@@YAPEAU?$_List_node@U?$pair@$$CBDV?$unique_ptr@Vcustom_flag_formatter@spdlog@@U?$default_delete@Vcustom_flag_formatter@spdlog@@@std@@@std@@@std@@PEAX@0@AEAPEAU10@$$QEA$$T@Z
	??$exchange@PEAU?$_List_node@U?$pair@$$CBV?$basic_string@DU?$char_traits@D@std@@V?$allocator@D@2@@std@@V?$shared_ptr@Vlogger@spdlog@@@2@@std@@PEAX@std@@$$T@std@@YAPEAU?$_List_node@U?$pair@$$CBV?$basic_string@DU?$char_traits@D@std@@V?$allocator@D@2@@std@@V?$shared_ptr@Vlogger@spdlog@@@2@@std@@PEAX@0@AEAPEAU10@$$QEA$$T@Z
	??$exchange@PEAU?$_Tree_node@U?$pair@$$CBV?$basic_string@DU?$char_traits@D@std@@V?$allocator@D@2@@std@@V12@@std@@PEAX@std@@AEAPEAU12@@std@@YAPEAU?$_Tree_node@U?$pair@$$CBV?$basic_string@DU?$char_traits@D@std@@V?$allocator@D@2@@std@@V12@@std@@PEAX@0@AEAPEAU10@0@Z
	??$exchange@PEAV?$A_formatter@Unull_scoped_padder@details@spdlog@@@details@spdlog@@$$T@std@@YAPEAV?$A_formatter@Unull_scoped_padder@details@spdlog@@@details@spdlog@@AEAPEAV123@$$QEA$$T@Z
	??$exchange@PEAV?$A_formatter@Vscoped_padder@details@spdlog@@@details@spdlog@@$$T@std@@YAPEAV?$A_formatter@Vscoped_padder@details@spdlog@@@details@spdlog@@AEAPEAV123@$$QEA$$T@Z
	??$exchange@PEAV?$B_formatter@Unull_scoped_padder@details@spdlog@@@details@spdlog@@$$T@std@@YAPEAV?$B_formatter@Unull_scoped_padder@details@spdlog@@@details@spdlog@@AEAPEAV123@$$QEA$$T@Z
	??$exchange@PEAV?$B_formatter@Vscoped_padder@details@spdlog@@@details@spdlog@@$$T@std@@YAPEAV?$B_formatter@Vscoped_padder@details@spdlog@@@details@spdlog@@AEAPEAV123@$$QEA$$T@Z
	??$exchange@PEAV?$C_formatter@Unull_scoped_padder@details@spdlog@@@details@spdlog@@$$T@std@@YAPEAV?$C_formatter@Unull_scoped_padder@details@spdlog@@@details@spdlog@@AEAPEAV123@$$QEA$$T@Z
	??$exchange@PEAV?$C_formatter@Vscoped_padder@details@spdlog@@@details@spdlog@@$$T@std@@YAPEAV?$C_formatter@Vscoped_padder@details@spdlog@@@details@spdlog@@AEAPEAV123@$$QEA$$T@Z
	??$exchange@PEAV?$D_formatter@Unull_scoped_padder@details@spdlog@@@details@spdlog@@$$T@std@@YAPEAV?$D_formatter@Unull_scoped_padder@details@spdlog@@@details@spdlog@@AEAPEAV123@$$QEA$$T@Z
	??$exchange@PEAV?$D_formatter@Vscoped_padder@details@spdlog@@@details@spdlog@@$$T@std@@YAPEAV?$D_formatter@Vscoped_padder@details@spdlog@@@details@spdlog@@AEAPEAV123@$$QEA$$T@Z
	??$exchange@PEAV?$E_formatter@Unull_scoped_padder@details@spdlog@@@details@spdlog@@$$T@std@@YAPEAV?$E_formatter@Unull_scoped_padder@details@spdlog@@@details@spdlog@@AEAPEAV123@$$QEA$$T@Z
	??$exchange@PEAV?$E_formatter@Vscoped_padder@details@spdlog@@@details@spdlog@@$$T@std@@YAPEAV?$E_formatter@Vscoped_padder@details@spdlog@@@details@spdlog@@AEAPEAV123@$$QEA$$T@Z
	??$exchange@PEAV?$F_formatter@Unull_scoped_padder@details@spdlog@@@details@spdlog@@$$T@std@@YAPEAV?$F_formatter@Unull_scoped_padder@details@spdlog@@@details@spdlog@@AEAPEAV123@$$QEA$$T@Z
	??$exchange@PEAV?$F_formatter@Vscoped_padder@details@spdlog@@@details@spdlog@@$$T@std@@YAPEAV?$F_formatter@Vscoped_padder@details@spdlog@@@details@spdlog@@AEAPEAV123@$$QEA$$T@Z
	??$exchange@PEAV?$H_formatter@Unull_scoped_padder@details@spdlog@@@details@spdlog@@$$T@std@@YAPEAV?$H_formatter@Unull_scoped_padder@details@spdlog@@@details@spdlog@@AEAPEAV123@$$QEA$$T@Z
	??$exchange@PEAV?$H_formatter@Vscoped_padder@details@spdlog@@@details@spdlog@@$$T@std@@YAPEAV?$H_formatter@Vscoped_padder@details@spdlog@@@details@spdlog@@AEAPEAV123@$$QEA$$T@Z
	??$exchange@PEAV?$I_formatter@Unull_scoped_padder@details@spdlog@@@details@spdlog@@$$T@std@@YAPEAV?$I_formatter@Unull_scoped_padder@details@spdlog@@@details@spdlog@@AEAPEAV123@$$QEA$$T@Z
	??$exchange@PEAV?$I_formatter@Vscoped_padder@details@spdlog@@@details@spdlog@@$$T@std@@YAPEAV?$I_formatter@Vscoped_padder@details@spdlog@@@details@spdlog@@AEAPEAV123@$$QEA$$T@Z
	??$exchange@PEAV?$M_formatter@Unull_scoped_padder@details@spdlog@@@details@spdlog@@$$T@std@@YAPEAV?$M_formatter@Unull_scoped_padder@details@spdlog@@@details@spdlog@@AEAPEAV123@$$QEA$$T@Z
	??$exchange@PEAV?$M_formatter@Vscoped_padder@details@spdlog@@@details@spdlog@@$$T@std@@YAPEAV?$M_formatter@Vscoped_padder@details@spdlog@@@details@spdlog@@AEAPEAV123@$$QEA$$T@Z
	??$exchange@PEAV?$R_formatter@Unull_scoped_padder@details@spdlog@@@details@spdlog@@$$T@std@@YAPEAV?$R_formatter@Unull_scoped_padder@details@spdlog@@@details@spdlog@@AEAPEAV123@$$QEA$$T@Z
	??$exchange@PEAV?$R_formatter@Vscoped_padder@details@spdlog@@@details@spdlog@@$$T@std@@YAPEAV?$R_formatter@Vscoped_padder@details@spdlog@@@details@spdlog@@AEAPEAV123@$$QEA$$T@Z
	??$exchange@PEAV?$S_formatter@Unull_scoped_padder@details@spdlog@@@details@spdlog@@$$T@std@@YAPEAV?$S_formatter@Unull_scoped_padder@details@spdlog@@@details@spdlog@@AEAPEAV123@$$QEA$$T@Z
	??$exchange@PEAV?$S_formatter@Vscoped_padder@details@spdlog@@@details@spdlog@@$$T@std@@YAPEAV?$S_formatter@Vscoped_padder@details@spdlog@@@details@spdlog@@AEAPEAV123@$$QEA$$T@Z
	??$exchange@PEAV?$T_formatter@Unull_scoped_padder@details@spdlog@@@details@spdlog@@$$T@std@@YAPEAV?$T_formatter@Unull_scoped_padder@details@spdlog@@@details@spdlog@@AEAPEAV123@$$QEA$$T@Z
	??$exchange@PEAV?$T_formatter@Vscoped_padder@details@spdlog@@@details@spdlog@@$$T@std@@YAPEAV?$T_formatter@Vscoped_padder@details@spdlog@@@details@spdlog@@AEAPEAV123@$$QEA$$T@Z
	??$exchange@PEAV?$Y_formatter@Unull_scoped_padder@details@spdlog@@@details@spdlog@@$$T@std@@YAPEAV?$Y_formatter@Unull_scoped_padder@details@spdlog@@@details@spdlog@@AEAPEAV123@$$QEA$$T@Z
	??$exchange@PEAV?$Y_formatter@Vscoped_padder@details@spdlog@@@details@spdlog@@$$T@std@@YAPEAV?$Y_formatter@Vscoped_padder@details@spdlog@@@details@spdlog@@AEAPEAV123@$$QEA$$T@Z
	??$exchange@PEAV?$a_formatter@Unull_scoped_padder@details@spdlog@@@details@spdlog@@$$T@std@@YAPEAV?$a_formatter@Unull_scoped_padder@details@spdlog@@@details@spdlog@@AEAPEAV123@$$QEA$$T@Z
	??$exchange@PEAV?$a_formatter@Vscoped_padder@details@spdlog@@@details@spdlog@@$$T@std@@YAPEAV?$a_formatter@Vscoped_padder@details@spdlog@@@details@spdlog@@AEAPEAV123@$$QEA$$T@Z
	??$exchange@PEAV?$b_formatter@Unull_scoped_padder@details@spdlog@@@details@spdlog@@$$T@std@@YAPEAV?$b_formatter@Unull_scoped_padder@details@spdlog@@@details@spdlog@@AEAPEAV123@$$QEA$$T@Z
	??$exchange@PEAV?$b_formatter@Vscoped_padder@details@spdlog@@@details@spdlog@@$$T@std@@YAPEAV?$b_formatter@Vscoped_padder@details@spdlog@@@details@spdlog@@AEAPEAV123@$$QEA$$T@Z
	??$exchange@PEAV?$c_formatter@Unull_scoped_padder@details@spdlog@@@details@spdlog@@$$T@std@@YAPEAV?$c_formatter@Unull_scoped_padder@details@spdlog@@@details@spdlog@@AEAPEAV123@$$QEA$$T@Z
	??$exchange@PEAV?$c_formatter@Vscoped_padder@details@spdlog@@@details@spdlog@@$$T@std@@YAPEAV?$c_formatter@Vscoped_padder@details@spdlog@@@details@spdlog@@AEAPEAV123@$$QEA$$T@Z
	??$exchange@PEAV?$d_formatter@Unull_scoped_padder@details@spdlog@@@details@spdlog@@$$T@std@@YAPEAV?$d_formatter@Unull_scoped_padder@details@spdlog@@@details@spdlog@@AEAPEAV123@$$QEA$$T@Z
	??$exchange@PEAV?$d_formatter@Vscoped_padder@details@spdlog@@@details@spdlog@@$$T@std@@YAPEAV?$d_formatter@Vscoped_padder@details@spdlog@@@details@spdlog@@AEAPEAV123@$$QEA$$T@Z
	??$exchange@PEAV?$e_formatter@Unull_scoped_padder@details@spdlog@@@details@spdlog@@$$T@std@@YAPEAV?$e_formatter@Unull_scoped_padder@details@spdlog@@@details@spdlog@@AEAPEAV123@$$QEA$$T@Z
	??$exchange@PEAV?$e_formatter@Vscoped_padder@details@spdlog@@@details@spdlog@@$$T@std@@YAPEAV?$e_formatter@Vscoped_padder@details@spdlog@@@details@spdlog@@AEAPEAV123@$$QEA$$T@Z
	??$exchange@PEAV?$elapsed_formatter@Unull_scoped_padder@details@spdlog@@V?$duration@_JU?$ratio@$00$00@std@@@chrono@std@@@details@spdlog@@$$T@std@@YAPEAV?$elapsed_formatter@Unull_scoped_padder@details@spdlog@@V?$duration@_JU?$ratio@$00$00@std@@@chrono@std@@@details@spdlog@@AEAPEAV123@$$QEA$$T@Z
	??$exchange@PEAV?$elapsed_formatter@Unull_scoped_padder@details@spdlog@@V?$duration@_JU?$ratio@$00$0DLJKMKAA@@std@@@chrono@std@@@details@spdlog@@$$T@std@@YAPEAV?$elapsed_formatter@Unull_scoped_padder@details@spdlog@@V?$duration@_JU?$ratio@$00$0DLJKMKAA@@std@@@chrono@std@@@details@spdlog@@AEAPEAV123@$$QEA$$T@Z
	??$exchange@PEAV?$elapsed_formatter@Unull_scoped_padder@details@spdlog@@V?$duration@_JU?$ratio@$00$0DOI@@std@@@chrono@std@@@details@spdlog@@$$T@std@@YAPEAV?$elapsed_formatter@Unull_scoped_padder@details@spdlog@@V?$duration@_JU?$ratio@$00$0DOI@@std@@@chrono@std@@@details@spdlog@@AEAPEAV123@$$QEA$$T@Z
	??$exchange@PEAV?$elapsed_formatter@Unull_scoped_padder@details@spdlog@@V?$duration@_JU?$ratio@$00$0PECEA@@std@@@chrono@std@@@details@spdlog@@$$T@std@@YAPEAV?$elapsed_formatter@Unull_scoped_padder@details@spdlog@@V?$duration@_JU?$ratio@$00$0PECEA@@std@@@chrono@std@@@details@spdlog@@AEAPEAV123@$$QEA$$T@Z
	??$exchange@PEAV?$elapsed_formatter@Vscoped_padder@details@spdlog@@V?$duration@_JU?$ratio@$00$00@std@@@chrono@std@@@details@spdlog@@$$T@std@@YAPEAV?$elapsed_formatter@Vscoped_padder@details@spdlog@@V?$duration@_JU?$ratio@$00$00@std@@@chrono@std@@@details@spdlog@@AEAPEAV123@$$QEA$$T@Z
	??$exchange@PEAV?$elapsed_formatter@Vscoped_padder@details@spdlog@@V?$duration@_JU?$ratio@$00$0DLJKMKAA@@std@@@chrono@std@@@details@spdlog@@$$T@std@@YAPEAV?$elapsed_formatter@Vscoped_padder@details@spdlog@@V?$duration@_JU?$ratio@$00$0DLJKMKAA@@std@@@chrono@std@@@details@spdlog@@AEAPEAV123@$$QEA$$T@Z
	??$exchange@PEAV?$elapsed_formatter@Vscoped_padder@details@spdlog@@V?$duration@_JU?$ratio@$00$0DOI@@std@@@chrono@std@@@details@spdlog@@$$T@std@@YAPEAV?$elapsed_formatter@Vscoped_padder@details@spdlog@@V?$duration@_JU?$ratio@$00$0DOI@@std@@@chrono@std@@@details@spdlog@@AEAPEAV123@$$QEA$$T@Z
	??$exchange@PEAV?$elapsed_formatter@Vscoped_padder@details@spdlog@@V?$duration@_JU?$ratio@$00$0PECEA@@std@@@chrono@std@@@details@spdlog@@$$T@std@@YAPEAV?$elapsed_formatter@Vscoped_padder@details@spdlog@@V?$duration@_JU?$ratio@$00$0PECEA@@std@@@chrono@std@@@details@spdlog@@AEAPEAV123@$$QEA$$T@Z
	??$exchange@PEAV?$f_formatter@Unull_scoped_padder@details@spdlog@@@details@spdlog@@$$T@std@@YAPEAV?$f_formatter@Unull_scoped_padder@details@spdlog@@@details@spdlog@@AEAPEAV123@$$QEA$$T@Z
	??$exchange@PEAV?$f_formatter@Vscoped_padder@details@spdlog@@@details@spdlog@@$$T@std@@YAPEAV?$f_formatter@Vscoped_padder@details@spdlog@@@details@spdlog@@AEAPEAV123@$$QEA$$T@Z
	??$exchange@PEAV?$level_formatter@Unull_scoped_padder@details@spdlog@@@details@spdlog@@$$T@std@@YAPEAV?$level_formatter@Unull_scoped_padder@details@spdlog@@@details@spdlog@@AEAPEAV123@$$QEA$$T@Z
	??$exchange@PEAV?$level_formatter@Vscoped_padder@details@spdlog@@@details@spdlog@@$$T@std@@YAPEAV?$level_formatter@Vscoped_padder@details@spdlog@@@details@spdlog@@AEAPEAV123@$$QEA$$T@Z
	??$exchange@PEAV?$m_formatter@Unull_scoped_padder@details@spdlog@@@details@spdlog@@$$T@std@@YAPEAV?$m_formatter@Unull_scoped_padder@details@spdlog@@@details@spdlog@@AEAPEAV123@$$QEA$$T@Z
	??$exchange@PEAV?$m_formatter@Vscoped_padder@details@spdlog@@@details@spdlog@@$$T@std@@YAPEAV?$m_formatter@Vscoped_padder@details@spdlog@@@details@spdlog@@AEAPEAV123@$$QEA$$T@Z
	??$exchange@PEAV?$mdc_formatter@Unull_scoped_padder@details@spdlog@@@details@spdlog@@$$T@std@@YAPEAV?$mdc_formatter@Unull_scoped_padder@details@spdlog@@@details@spdlog@@AEAPEAV123@$$QEA$$T@Z
	??$exchange@PEAV?$mdc_formatter@Vscoped_padder@details@spdlog@@@details@spdlog@@$$T@std@@YAPEAV?$mdc_formatter@Vscoped_padder@details@spdlog@@@details@spdlog@@AEAPEAV123@$$QEA$$T@Z
	??$exchange@PEAV?$name_formatter@Unull_scoped_padder@details@spdlog@@@details@spdlog@@$$T@std@@YAPEAV?$name_formatter@Unull_scoped_padder@details@spdlog@@@details@spdlog@@AEAPEAV123@$$QEA$$T@Z
	??$exchange@PEAV?$name_formatter@Vscoped_padder@details@spdlog@@@details@spdlog@@$$T@std@@YAPEAV?$name_formatter@Vscoped_padder@details@spdlog@@@details@spdlog@@AEAPEAV123@$$QEA$$T@Z
	??$exchange@PEAV?$p_formatter@Unull_scoped_padder@details@spdlog@@@details@spdlog@@$$T@std@@YAPEAV?$p_formatter@Unull_scoped_padder@details@spdlog@@@details@spdlog@@AEAPEAV123@$$QEA$$T@Z
	??$exchange@PEAV?$p_formatter@Vscoped_padder@details@spdlog@@@details@spdlog@@$$T@std@@YAPEAV?$p_formatter@Vscoped_padder@details@spdlog@@@details@spdlog@@AEAPEAV123@$$QEA$$T@Z
	??$exchange@PEAV?$pid_formatter@Unull_scoped_padder@details@spdlog@@@details@spdlog@@$$T@std@@YAPEAV?$pid_formatter@Unull_scoped_padder@details@spdlog@@@details@spdlog@@AEAPEAV123@$$QEA$$T@Z
	??$exchange@PEAV?$pid_formatter@Vscoped_padder@details@spdlog@@@details@spdlog@@$$T@std@@YAPEAV?$pid_formatter@Vscoped_padder@details@spdlog@@@details@spdlog@@AEAPEAV123@$$QEA$$T@Z
	??$exchange@PEAV?$r_formatter@Unull_scoped_padder@details@spdlog@@@details@spdlog@@$$T@std@@YAPEAV?$r_formatter@Unull_scoped_padder@details@spdlog@@@details@spdlog@@AEAPEAV123@$$QEA$$T@Z
	??$exchange@PEAV?$r_formatter@Vscoped_padder@details@spdlog@@@details@spdlog@@$$T@std@@YAPEAV?$r_formatter@Vscoped_padder@details@spdlog@@@details@spdlog@@AEAPEAV123@$$QEA$$T@Z
	??$exchange@PEAV?$short_filename_formatter@Unull_scoped_padder@details@spdlog@@@details@spdlog@@$$T@std@@YAPEAV?$short_filename_formatter@Unull_scoped_padder@details@spdlog@@@details@spdlog@@AEAPEAV123@$$QEA$$T@Z
	??$exchange@PEAV?$short_filename_formatter@Vscoped_padder@details@spdlog@@@details@spdlog@@$$T@std@@YAPEAV?$short_filename_formatter@Vscoped_padder@details@spdlog@@@details@spdlog@@AEAPEAV123@$$QEA$$T@Z
	??$exchange@PEAV?$short_level_formatter@Unull_scoped_padder@details@spdlog@@@details@spdlog@@$$T@std@@YAPEAV?$short_level_formatter@Unull_scoped_padder@details@spdlog@@@details@spdlog@@AEAPEAV123@$$QEA$$T@Z
	??$exchange@PEAV?$short_level_formatter@Vscoped_padder@details@spdlog@@@details@spdlog@@$$T@std@@YAPEAV?$short_level_formatter@Vscoped_padder@details@spdlog@@@details@spdlog@@AEAPEAV123@$$QEA$$T@Z
	??$exchange@PEAV?$source_filename_formatter@Unull_scoped_padder@details@spdlog@@@details@spdlog@@$$T@std@@YAPEAV?$source_filename_formatter@Unull_scoped_padder@details@spdlog@@@details@spdlog@@AEAPEAV123@$$QEA$$T@Z
	??$exchange@PEAV?$source_filename_formatter@Vscoped_padder@details@spdlog@@@details@spdlog@@$$T@std@@YAPEAV?$source_filename_formatter@Vscoped_padder@details@spdlog@@@details@spdlog@@AEAPEAV123@$$QEA$$T@Z
	??$exchange@PEAV?$source_funcname_formatter@Unull_scoped_padder@details@spdlog@@@details@spdlog@@$$T@std@@YAPEAV?$source_funcname_formatter@Unull_scoped_padder@details@spdlog@@@details@spdlog@@AEAPEAV123@$$QEA$$T@Z
	??$exchange@PEAV?$source_funcname_formatter@Vscoped_padder@details@spdlog@@@details@spdlog@@$$T@std@@YAPEAV?$source_funcname_formatter@Vscoped_padder@details@spdlog@@@details@spdlog@@AEAPEAV123@$$QEA$$T@Z
	??$exchange@PEAV?$source_linenum_formatter@Unull_scoped_padder@details@spdlog@@@details@spdlog@@$$T@std@@YAPEAV?$source_linenum_formatter@Unull_scoped_padder@details@spdlog@@@details@spdlog@@AEAPEAV123@$$QEA$$T@Z
	??$exchange@PEAV?$source_linenum_formatter@Vscoped_padder@details@spdlog@@@details@spdlog@@$$T@std@@YAPEAV?$source_linenum_formatter@Vscoped_padder@details@spdlog@@@details@spdlog@@AEAPEAV123@$$QEA$$T@Z
	??$exchange@PEAV?$source_location_formatter@Unull_scoped_padder@details@spdlog@@@details@spdlog@@$$T@std@@YAPEAV?$source_location_formatter@Unull_scoped_padder@details@spdlog@@@details@spdlog@@AEAPEAV123@$$QEA$$T@Z
	??$exchange@PEAV?$source_location_formatter@Vscoped_padder@details@spdlog@@@details@spdlog@@$$T@std@@YAPEAV?$source_location_formatter@Vscoped_padder@details@spdlog@@@details@spdlog@@AEAPEAV123@$$QEA$$T@Z
	??$exchange@PEAV?$t_formatter@Unull_scoped_padder@details@spdlog@@@details@spdlog@@$$T@std@@YAPEAV?$t_formatter@Unull_scoped_padder@details@spdlog@@@details@spdlog@@AEAPEAV123@$$QEA$$T@Z
	??$exchange@PEAV?$t_formatter@Vscoped_padder@details@spdlog@@@details@spdlog@@$$T@std@@YAPEAV?$t_formatter@Vscoped_padder@details@spdlog@@@details@spdlog@@AEAPEAV123@$$QEA$$T@Z
	??$exchange@PEAV?$v_formatter@Unull_scoped_padder@details@spdlog@@@details@spdlog@@$$T@std@@YAPEAV?$v_formatter@Unull_scoped_padder@details@spdlog@@@details@spdlog@@AEAPEAV123@$$QEA$$T@Z
	??$exchange@PEAV?$v_formatter@Vscoped_padder@details@spdlog@@@details@spdlog@@$$T@std@@YAPEAV?$v_formatter@Vscoped_padder@details@spdlog@@@details@spdlog@@AEAPEAV123@$$QEA$$T@Z
	??$exchange@PEAV?$z_formatter@Unull_scoped_padder@details@spdlog@@@details@spdlog@@$$T@std@@YAPEAV?$z_formatter@Unull_scoped_padder@details@spdlog@@@details@spdlog@@AEAPEAV123@$$QEA$$T@Z
	??$exchange@PEAV?$z_formatter@Vscoped_padder@details@spdlog@@@details@spdlog@@$$T@std@@YAPEAV?$z_formatter@Vscoped_padder@details@spdlog@@@details@spdlog@@AEAPEAV123@$$QEA$$T@Z
	??$exchange@PEAV_Facet_base@std@@$$T@std@@YAPEAV_Facet_base@0@AEAPEAV10@$$QEA$$T@Z
	??$exchange@PEAVaggregate_formatter@details@spdlog@@$$T@std@@YAPEAVaggregate_formatter@details@spdlog@@AEAPEAV123@$$QEA$$T@Z
	??$exchange@PEAVaggregate_formatter@details@spdlog@@AEAPEAV123@@std@@YAPEAVaggregate_formatter@details@spdlog@@AEAPEAV123@0@Z
	??$exchange@PEAVch_formatter@details@spdlog@@$$T@std@@YAPEAVch_formatter@details@spdlog@@AEAPEAV123@$$QEA$$T@Z
	??$exchange@PEAVcolor_start_formatter@details@spdlog@@$$T@std@@YAPEAVcolor_start_formatter@details@spdlog@@AEAPEAV123@$$QEA$$T@Z
	??$exchange@PEAVcolor_stop_formatter@details@spdlog@@$$T@std@@YAPEAVcolor_stop_formatter@details@spdlog@@AEAPEAV123@$$QEA$$T@Z
	??$exchange@PEAVcustom_flag_formatter@spdlog@@$$T@std@@YAPEAVcustom_flag_formatter@spdlog@@AEAPEAV12@$$QEA$$T@Z
	??$exchange@PEAVcustom_flag_formatter@spdlog@@AEAPEAV12@@std@@YAPEAVcustom_flag_formatter@spdlog@@AEAPEAV12@0@Z
	??$exchange@PEAVflag_formatter@details@spdlog@@$$T@std@@YAPEAVflag_formatter@details@spdlog@@AEAPEAV123@$$QEA$$T@Z
	??$exchange@PEAVformatter@spdlog@@$$T@std@@YAPEAVformatter@spdlog@@AEAPEAV12@$$QEA$$T@Z
	??$exchange@PEAVformatter@spdlog@@AEAPEAV12@@std@@YAPEAVformatter@spdlog@@AEAPEAV12@0@Z
	??$exchange@PEAVfull_formatter@details@spdlog@@$$T@std@@YAPEAVfull_formatter@details@spdlog@@AEAPEAV123@$$QEA$$T@Z
	??$exchange@PEAVpattern_formatter@spdlog@@$$T@std@@YAPEAVpattern_formatter@spdlog@@AEAPEAV12@$$QEA$$T@Z
	??$exchange@_KAEB_K@std@@YA_KAEA_KAEB_K@Z
	??$exchange@_K_K@std@@YA_KAEA_K$$QEA_K@Z
	??$exponent_bias@M@detail@v11@fmt@@YAHXZ
	??$exponent_bias@N@detail@v11@fmt@@YAHXZ
	??$exponent_mask@M@detail@v11@fmt@@YAIXZ
	??$exponent_mask@N@detail@v11@fmt@@YA_KXZ
	??$fill@D$0A@@basic_specs@v11@fmt@@QEBAPEBDXZ
	??$fill@DV?$basic_appender@D@v11@fmt@@@detail@v11@fmt@@YA?AV?$basic_appender@D@12@V312@_KAEBVbasic_specs@12@@Z
	??$fill@PEAV?$_List_unchecked_iterator@V?$_List_val@U?$_List_simple_types@U?$pair@$$CBDV?$unique_ptr@Vcustom_flag_formatter@spdlog@@U?$default_delete@Vcustom_flag_formatter@spdlog@@@std@@@std@@@std@@@std@@@std@@@std@@V12@@std@@YAXQEAV?$_List_unchecked_iterator@V?$_List_val@U?$_List_simple_types@U?$pair@$$CBDV?$unique_ptr@Vcustom_flag_formatter@spdlog@@U?$default_delete@Vcustom_flag_formatter@spdlog@@@std@@@std@@@std@@@std@@@std@@@0@0AEBV10@@Z
	??$fill@PEAV?$_List_unchecked_iterator@V?$_List_val@U?$_List_simple_types@U?$pair@$$CBV?$basic_string@DU?$char_traits@D@std@@V?$allocator@D@2@@std@@V?$shared_ptr@Vlogger@spdlog@@@2@@std@@@std@@@std@@@std@@V12@@std@@YAXQEAV?$_List_unchecked_iterator@V?$_List_val@U?$_List_simple_types@U?$pair@$$CBV?$basic_string@DU?$char_traits@D@std@@V?$allocator@D@2@@std@@V?$shared_ptr@Vlogger@spdlog@@@2@@std@@@std@@@std@@@0@0AEBV10@@Z
	??$fill@PEAV?$_List_unchecked_iterator@V?$_List_val@U?$_List_simple_types@U?$pair@$$CBV?$basic_string@DU?$char_traits@D@std@@V?$allocator@D@2@@std@@W4level_enum@level@spdlog@@@std@@@std@@@std@@@std@@V12@@std@@YAXQEAV?$_List_unchecked_iterator@V?$_List_val@U?$_List_simple_types@U?$pair@$$CBV?$basic_string@DU?$char_traits@D@std@@V?$allocator@D@2@@std@@W4level_enum@level@spdlog@@@std@@@std@@@std@@@0@0AEBV10@@Z
	??$fill_n@DH@detail@v11@fmt@@YAPEADPEADHD@Z
	??$fill_n@D_K@detail@v11@fmt@@YAPEADPEAD_KD@Z
	??$fill_n@PEADHD@detail@v11@fmt@@YAPEADPEADHAEBD@Z
	??$fill_n@PEAD_KD@detail@v11@fmt@@YAPEADPEAD_KAEBD@Z
	??$fill_n@PEAH_KH@detail@v11@fmt@@YAPEAHPEAH_KAEBH@Z
	??$fill_n@PEAI_KI@detail@v11@fmt@@YAPEAIPEAI_KAEBI@Z
	??$fill_n@V?$basic_appender@D@v11@fmt@@HD@detail@v11@fmt@@YA?AV?$basic_appender@D@12@V312@HAEBD@Z
	??$fill_n@V?$basic_appender@D@v11@fmt@@ID@detail@v11@fmt@@YA?AV?$basic_appender@D@12@V312@IAEBD@Z
	??$fill_n@V?$basic_appender@D@v11@fmt@@_KD@detail@v11@fmt@@YA?AV?$basic_appender@D@12@V312@_KAEBD@Z
	??$fill_unit@D@basic_specs@v11@fmt@@QEBADXZ
	??$find@X@?$_Hash@V?$_Umap_traits@DV?$unique_ptr@Vcustom_flag_formatter@spdlog@@U?$default_delete@Vcustom_flag_formatter@spdlog@@@std@@@std@@V?$_Uhash_compare@DU?$hash@D@std@@U?$equal_to@D@2@@2@V?$allocator@U?$pair@$$CBDV?$unique_ptr@Vcustom_flag_formatter@spdlog@@U?$default_delete@Vcustom_flag_formatter@spdlog@@@std@@@std@@@std@@@2@$0A@@std@@@std@@QEAA?AV?$_List_iterator@V?$_List_val@U?$_List_simple_types@U?$pair@$$CBDV?$unique_ptr@Vcustom_flag_formatter@spdlog@@U?$default_delete@Vcustom_flag_formatter@spdlog@@@std@@@std@@@std@@@std@@@std@@@1@AEBD@Z
	??$find@X@?$_Hash@V?$_Umap_traits@V?$basic_string@DU?$char_traits@D@std@@V?$allocator@D@2@@std@@V?$shared_ptr@Vlogger@spdlog@@@2@V?$_Uhash_compare@V?$basic_string@DU?$char_traits@D@std@@V?$allocator@D@2@@std@@U?$hash@V?$basic_string@DU?$char_traits@D@std@@V?$allocator@D@2@@std@@@2@U?$equal_to@V?$basic_string@DU?$char_traits@D@std@@V?$allocator@D@2@@std@@@2@@2@V?$allocator@U?$pair@$$CBV?$basic_string@DU?$char_traits@D@std@@V?$allocator@D@2@@std@@V?$shared_ptr@Vlogger@spdlog@@@2@@std@@@2@$0A@@std@@@std@@QEAA?AV?$_List_iterator@V?$_List_val@U?$_List_simple_types@U?$pair@$$CBV?$basic_string@DU?$char_traits@D@std@@V?$allocator@D@2@@std@@V?$shared_ptr@Vlogger@spdlog@@@2@@std@@@std@@@std@@@1@AEBV?$basic_string@DU?$char_traits@D@std@@V?$allocator@D@2@@1@@Z
	??$find@X@?$_Hash@V?$_Umap_traits@V?$basic_string@DU?$char_traits@D@std@@V?$allocator@D@2@@std@@W4level_enum@level@spdlog@@V?$_Uhash_compare@V?$basic_string@DU?$char_traits@D@std@@V?$allocator@D@2@@std@@U?$hash@V?$basic_string@DU?$char_traits@D@std@@V?$allocator@D@2@@std@@@2@U?$equal_to@V?$basic_string@DU?$char_traits@D@std@@V?$allocator@D@2@@std@@@2@@2@V?$allocator@U?$pair@$$CBV?$basic_string@DU?$char_traits@D@std@@V?$allocator@D@2@@std@@W4level_enum@level@spdlog@@@std@@@2@$0A@@std@@@std@@QEAA?AV?$_List_iterator@V?$_List_val@U?$_List_simple_types@U?$pair@$$CBV?$basic_string@DU?$char_traits@D@std@@V?$allocator@D@2@@std@@W4level_enum@level@spdlog@@@std@@@std@@@std@@@1@AEBV?$basic_string@DU?$char_traits@D@std@@V?$allocator@D@2@@1@@Z
	??$find_escape@D@detail@v11@fmt@@YA?AU?$find_escape_result@D@012@PEBD0@Z
	??$find_first_of@V?$reverse_iterator@PEBD@std@@PEBD@std@@YA?AV?$reverse_iterator@PEBD@0@V10@0QEBD1@Z
	??$find_first_of@V?$reverse_iterator@PEBD@std@@PEBDU?$equal_to@X@2@@std@@YA?AV?$reverse_iterator@PEBD@0@V10@V10@QEBD2U?$equal_to@X@0@@Z
	??$for_each_codepoint@Ucount_code_points@?1??compute_width@detail@v11@fmt@@YA_KV?$basic_string_view@D@45@@Z@@detail@v11@fmt@@YAXV?$basic_string_view@D@12@Ucount_code_points@?1??compute_width@012@YA_K0@Z@@Z
	??$for_each_codepoint@V<lambda_1>@?1??code_point_index@detail@v11@fmt@@YA_KV?$basic_string_view@D@45@_K@Z@@detail@v11@fmt@@YAXV?$basic_string_view@D@12@V<lambda_1>@?1??code_point_index@012@YA_K0_K@Z@@Z
	??$for_each_codepoint@V<lambda_1>@?1??find_escape@detail@v11@fmt@@YA?AU?$find_escape_result@D@345@PEBD0@Z@@detail@v11@fmt@@YAXV?$basic_string_view@D@12@V<lambda_1>@?1??find_escape@012@YA?AU?$find_escape_result@D@012@PEBD1@Z@@Z
	??$format@PEBDAEBQEBDAEBH@v11@fmt@@YA?AV?$basic_string@DU?$char_traits@D@std@@V?$allocator@D@2@@std@@U?$fstring@PEBDAEBQEBDAEBH@01@$$QEAPEBDAEBQEBDAEBH@Z
	??$format@PEBDPEBDH@v11@fmt@@YA?AV?$basic_string@DU?$char_traits@D@std@@V?$allocator@D@2@@std@@U?$fstring@PEBDPEBDH@01@$$QEAPEBD1$$QEAH@Z
	??$format_base2e@DI@detail@v11@fmt@@YAPEADHPEADIH_N@Z
	??$format_base2e@DV?$basic_appender@D@v11@fmt@@_K$0A@@detail@v11@fmt@@YA?AV?$basic_appender@D@12@HV312@_KH_N@Z
	??$format_base2e@D_K@detail@v11@fmt@@YAPEADHPEAD_KH_N@Z
	??$format_decimal@DI@detail@v11@fmt@@YAPEADPEADIH@Z
	??$format_decimal@DIV?$basic_appender@D@v11@fmt@@$0A@@detail@v11@fmt@@YA?AV?$basic_appender@D@12@V312@IH@Z
	??$format_decimal@D_K@detail@v11@fmt@@YAPEADPEAD_KH@Z
	??$format_decimal@D_KV?$basic_appender@D@v11@fmt@@$0A@@detail@v11@fmt@@YA?AV?$basic_appender@D@12@V312@_KH@Z
	??$format_float@N@detail@v11@fmt@@YAHNHAEBUformat_specs@12@_NAEAV?$buffer@D@012@@Z
	??$format_hexfloat@N$0A@@detail@v11@fmt@@YAXNUformat_specs@12@AEAV?$buffer@D@012@@Z
	??$format_signed@H@format_int@v11@fmt@@AEAAPEADH@Z
	??$format_signed@_J@format_int@v11@fmt@@AEAAPEAD_J@Z
	??$format_to@AEAV?$basic_appender@D@v11@fmt@@AEAV?$basic_string_view@D@23@AEAY02$$CBD$0A@@v11@fmt@@YA?AV?$basic_appender@D@01@AEAV201@U?$fstring@AEAV?$basic_string_view@D@v11@fmt@@AEAY02$$CBD@01@AEAV?$basic_string_view@D@01@AEAY02$$CBD@Z
	??$format_to@AEAV?$basic_appender@D@v11@fmt@@AEAY06$$CBDAEAH$0A@@v11@fmt@@YA?AV?$basic_appender@D@01@AEAV201@U?$fstring@AEAY06$$CBDAEAH@01@AEAY06$$CBDAEAH@Z
	??$format_to@V?$back_insert_iterator@V?$basic_memory_buffer@D$0PK@U?$allocator@D@detail@v11@fmt@@@v11@fmt@@@std@@AEAH$0A@@v11@fmt@@YA?AV?$back_insert_iterator@V?$basic_memory_buffer@D$0PK@U?$allocator@D@detail@v11@fmt@@@v11@fmt@@@std@@$$QEAV23@U?$fstring@AEAH@01@AEAH@Z
	??$format_unsigned@I@format_int@v11@fmt@@AEAAPEADI@Z
	??$format_unsigned@_K@format_int@v11@fmt@@AEAAPEAD_K@Z
	??$forward_as_tuple@$$V@std@@YA?AV?$tuple@$$V@0@XZ
	??$forward_as_tuple@AEBD@std@@YA?AV?$tuple@AEBD@0@AEBD@Z
	??$forward_as_tuple@AEBV?$basic_string@DU?$char_traits@D@std@@V?$allocator@D@2@@std@@@std@@YA?AV?$tuple@AEBV?$basic_string@DU?$char_traits@D@std@@V?$allocator@D@2@@std@@@0@AEBV?$basic_string@DU?$char_traits@D@std@@V?$allocator@D@2@@0@@Z
	??$forward_as_tuple@V?$basic_string@DU?$char_traits@D@std@@V?$allocator@D@2@@std@@@std@@YA?AV?$tuple@$$QEAV?$basic_string@DU?$char_traits@D@std@@V?$allocator@D@2@@std@@@0@$$QEAV?$basic_string@DU?$char_traits@D@std@@V?$allocator@D@2@@0@@Z
	??$get@D@?$basic_format_args@Vcontext@v11@fmt@@@v11@fmt@@QEBA?AV?$basic_format_arg@Vcontext@v11@fmt@@@12@V?$basic_string_view@D@12@@Z
	??$get@Vlocale@std@@@locale_ref@detail@v11@fmt@@QEBA?AVlocale@std@@XZ
	??$get_arg@Vcontext@v11@fmt@@H@detail@v11@fmt@@YA?AV?$basic_format_arg@Vcontext@v11@fmt@@@12@AEAVcontext@12@H@Z
	??$get_buffer@DV?$back_insert_iterator@V?$basic_memory_buffer@D$0PK@U?$allocator@D@detail@v11@fmt@@@v11@fmt@@@std@@$0A@@detail@v11@fmt@@YAAEAV?$buffer@D@012@V?$back_insert_iterator@V?$basic_memory_buffer@D$0PK@U?$allocator@D@detail@v11@fmt@@@v11@fmt@@@std@@@Z
	??$get_buffer@DV?$basic_appender@D@v11@fmt@@$0A@@detail@v11@fmt@@YAAEAV?$buffer@D@012@V?$basic_appender@D@12@@Z
	??$get_container@V?$back_insert_iterator@V?$basic_memory_buffer@D$0PK@U?$allocator@D@detail@v11@fmt@@@v11@fmt@@@std@@@detail@v11@fmt@@YAAEAV?$basic_memory_buffer@D$0PK@U?$allocator@D@detail@v11@fmt@@@12@V?$back_insert_iterator@V?$basic_memory_buffer@D$0PK@U?$allocator@D@detail@v11@fmt@@@v11@fmt@@@std@@@Z
	??$get_container@V?$basic_appender@D@v11@fmt@@@detail@v11@fmt@@YAAEAV?$buffer@D@012@V?$basic_appender@D@12@@Z
	??$get_dynamic_spec@Vcontext@v11@fmt@@@detail@v11@fmt@@YAHW4arg_id_kind@12@AEBT?$arg_ref@D@012@AEAVcontext@12@@Z
	??$get_id@D@?$basic_format_args@Vcontext@v11@fmt@@@v11@fmt@@QEBAHV?$basic_string_view@D@12@@Z
	??$get_iterator@DV?$back_insert_iterator@V?$basic_memory_buffer@D$0PK@U?$allocator@D@detail@v11@fmt@@@v11@fmt@@@std@@@detail@v11@fmt@@YA?AV?$back_insert_iterator@V?$basic_memory_buffer@D$0PK@U?$allocator@D@detail@v11@fmt@@@v11@fmt@@@std@@AEAV?$buffer@D@012@V34@@Z
	??$get_iterator@DV?$basic_appender@D@v11@fmt@@@detail@v11@fmt@@YA?AV?$basic_appender@D@12@AEAV?$buffer@D@012@V312@@Z
	??$get_significand_size@M@detail@v11@fmt@@YAHAEBU?$decimal_fp@M@dragonbox@012@@Z
	??$get_significand_size@N@detail@v11@fmt@@YAHAEBU?$decimal_fp@N@dragonbox@012@@Z
	??$getsign@D@detail@v11@fmt@@YADW4sign@12@@Z
	??$handle_dynamic_spec@Vcontext@v11@fmt@@@detail@v11@fmt@@YAXW4arg_id_kind@12@AEAHAEBT?$arg_ref@D@012@AEAVcontext@12@@Z
	??$handle_flag_@Unull_scoped_padder@details@spdlog@@@pattern_formatter@spdlog@@AEAAXDUpadding_info@details@1@@Z
	??$handle_flag_@Vscoped_padder@details@spdlog@@@pattern_formatter@spdlog@@AEAAXDUpadding_info@details@1@@Z
	??$has_facet@V?$format_facet@Vlocale@std@@@v11@fmt@@@std@@YA_NAEBVlocale@0@@Z
	??$has_implicit_bit@M@detail@v11@fmt@@YA_NXZ
	??$has_implicit_bit@N@detail@v11@fmt@@YA_NXZ
	??$ignore_unused@H@detail@v11@fmt@@YAXAEBH@Z
	??$ignore_unused@V?$basic_string_view@D@v11@fmt@@@detail@v11@fmt@@YAXAEBV?$basic_string_view@D@12@@Z
	??$ignore_unused@_N@detail@v11@fmt@@YAXAEB_N@Z
	??$is_left_endpoint_integer_shorter_interval@M@dragonbox@detail@v11@fmt@@YA_NH@Z
	??$is_left_endpoint_integer_shorter_interval@N@dragonbox@detail@v11@fmt@@YA_NH@Z
	??$is_name_start@D@detail@v11@fmt@@YA_ND@Z
	??$is_negative@E$0A@@detail@v11@fmt@@YA_NE@Z
	??$is_negative@H$0A@@detail@v11@fmt@@YA_NH@Z
	??$is_negative@I$0A@@detail@v11@fmt@@YA_NI@Z
	??$is_negative@_J$0A@@detail@v11@fmt@@YA_N_J@Z
	??$is_negative@_K$0A@@detail@v11@fmt@@YA_N_K@Z
	??$isfinite@M$0A@@detail@v11@fmt@@YA_NM@Z
	??$isfinite@M@@YA_NM@Z
	??$isfinite@N$0A@@detail@v11@fmt@@YA_NN@Z
	??$isfinite@N@@YA_NN@Z
	??$isfinite@O$0A@@detail@v11@fmt@@YA_NO@Z
	??$isfinite@O@@YA_NO@Z
	??$isnan@M@@YA_NM@Z
	??$isnan@M@detail@v11@fmt@@YA_NM@Z
	??$isnan@N@@YA_NN@Z
	??$isnan@N@detail@v11@fmt@@YA_NN@Z
	??$isnan@O@@YA_NO@Z
	??$isnan@O@detail@v11@fmt@@YA_NO@Z
	??$make_shared@V?$wincolor_stdout_sink@Uconsole_mutex@details@spdlog@@@sinks@spdlog@@$$V@std@@YA?AV?$shared_ptr@V?$wincolor_stdout_sink@Uconsole_mutex@details@spdlog@@@sinks@spdlog@@@0@XZ
	??$make_shared@V?$wincolor_stdout_sink@Uconsole_mutex@details@spdlog@@@sinks@spdlog@@AEAW4color_mode@3@@std@@YA?AV?$shared_ptr@V?$wincolor_stdout_sink@Uconsole_mutex@details@spdlog@@@sinks@spdlog@@@0@AEAW4color_mode@spdlog@@@Z
	??$make_shared@Vlogger@spdlog@@AEAPEBDV?$shared_ptr@V?$wincolor_stdout_sink@Uconsole_mutex@details@spdlog@@@sinks@spdlog@@@std@@@std@@YA?AV?$shared_ptr@Vlogger@spdlog@@@0@AEAPEBD$$QEAV?$shared_ptr@V?$wincolor_stdout_sink@Uconsole_mutex@details@spdlog@@@sinks@spdlog@@@0@@Z
	??$make_shared@Vlogger@spdlog@@AEAV12@@std@@YA?AV?$shared_ptr@Vlogger@spdlog@@@0@AEAVlogger@spdlog@@@Z
	??$make_shared@Vlogger@spdlog@@V?$basic_string@DU?$char_traits@D@std@@V?$allocator@D@2@@std@@V?$shared_ptr@V?$wincolor_stdout_sink@Uconsole_mutex@details@spdlog@@@sinks@spdlog@@@4@@std@@YA?AV?$shared_ptr@Vlogger@spdlog@@@0@$$QEAV?$basic_string@DU?$char_traits@D@std@@V?$allocator@D@2@@0@$$QEAV?$shared_ptr@V?$wincolor_stdout_sink@Uconsole_mutex@details@spdlog@@@sinks@spdlog@@@0@@Z
	??$make_unique@V?$A_formatter@Unull_scoped_padder@details@spdlog@@@details@spdlog@@AEAUpadding_info@23@@details@spdlog@@YA?AV?$unique_ptr@V?$A_formatter@Unull_scoped_padder@details@spdlog@@@details@spdlog@@U?$default_delete@V?$A_formatter@Unull_scoped_padder@details@spdlog@@@details@spdlog@@@std@@@std@@AEAUpadding_info@01@@Z
	??$make_unique@V?$A_formatter@Vscoped_padder@details@spdlog@@@details@spdlog@@AEAUpadding_info@23@@details@spdlog@@YA?AV?$unique_ptr@V?$A_formatter@Vscoped_padder@details@spdlog@@@details@spdlog@@U?$default_delete@V?$A_formatter@Vscoped_padder@details@spdlog@@@details@spdlog@@@std@@@std@@AEAUpadding_info@01@@Z
	??$make_unique@V?$B_formatter@Unull_scoped_padder@details@spdlog@@@details@spdlog@@AEAUpadding_info@23@@details@spdlog@@YA?AV?$unique_ptr@V?$B_formatter@Unull_scoped_padder@details@spdlog@@@details@spdlog@@U?$default_delete@V?$B_formatter@Unull_scoped_padder@details@spdlog@@@details@spdlog@@@std@@@std@@AEAUpadding_info@01@@Z
	??$make_unique@V?$B_formatter@Vscoped_padder@details@spdlog@@@details@spdlog@@AEAUpadding_info@23@@details@spdlog@@YA?AV?$unique_ptr@V?$B_formatter@Vscoped_padder@details@spdlog@@@details@spdlog@@U?$default_delete@V?$B_formatter@Vscoped_padder@details@spdlog@@@details@spdlog@@@std@@@std@@AEAUpadding_info@01@@Z
	??$make_unique@V?$C_formatter@Unull_scoped_padder@details@spdlog@@@details@spdlog@@AEAUpadding_info@23@@details@spdlog@@YA?AV?$unique_ptr@V?$C_formatter@Unull_scoped_padder@details@spdlog@@@details@spdlog@@U?$default_delete@V?$C_formatter@Unull_scoped_padder@details@spdlog@@@details@spdlog@@@std@@@std@@AEAUpadding_info@01@@Z
	??$make_unique@V?$C_formatter@Vscoped_padder@details@spdlog@@@details@spdlog@@AEAUpadding_info@23@@details@spdlog@@YA?AV?$unique_ptr@V?$C_formatter@Vscoped_padder@details@spdlog@@@details@spdlog@@U?$default_delete@V?$C_formatter@Vscoped_padder@details@spdlog@@@details@spdlog@@@std@@@std@@AEAUpadding_info@01@@Z
	??$make_unique@V?$D_formatter@Unull_scoped_padder@details@spdlog@@@details@spdlog@@AEAUpadding_info@23@@details@spdlog@@YA?AV?$unique_ptr@V?$D_formatter@Unull_scoped_padder@details@spdlog@@@details@spdlog@@U?$default_delete@V?$D_formatter@Unull_scoped_padder@details@spdlog@@@details@spdlog@@@std@@@std@@AEAUpadding_info@01@@Z
	??$make_unique@V?$D_formatter@Vscoped_padder@details@spdlog@@@details@spdlog@@AEAUpadding_info@23@@details@spdlog@@YA?AV?$unique_ptr@V?$D_formatter@Vscoped_padder@details@spdlog@@@details@spdlog@@U?$default_delete@V?$D_formatter@Vscoped_padder@details@spdlog@@@details@spdlog@@@std@@@std@@AEAUpadding_info@01@@Z
	??$make_unique@V?$E_formatter@Unull_scoped_padder@details@spdlog@@@details@spdlog@@AEAUpadding_info@23@@details@spdlog@@YA?AV?$unique_ptr@V?$E_formatter@Unull_scoped_padder@details@spdlog@@@details@spdlog@@U?$default_delete@V?$E_formatter@Unull_scoped_padder@details@spdlog@@@details@spdlog@@@std@@@std@@AEAUpadding_info@01@@Z
	??$make_unique@V?$E_formatter@Vscoped_padder@details@spdlog@@@details@spdlog@@AEAUpadding_info@23@@details@spdlog@@YA?AV?$unique_ptr@V?$E_formatter@Vscoped_padder@details@spdlog@@@details@spdlog@@U?$default_delete@V?$E_formatter@Vscoped_padder@details@spdlog@@@details@spdlog@@@std@@@std@@AEAUpadding_info@01@@Z
	??$make_unique@V?$F_formatter@Unull_scoped_padder@details@spdlog@@@details@spdlog@@AEAUpadding_info@23@@details@spdlog@@YA?AV?$unique_ptr@V?$F_formatter@Unull_scoped_padder@details@spdlog@@@details@spdlog@@U?$default_delete@V?$F_formatter@Unull_scoped_padder@details@spdlog@@@details@spdlog@@@std@@@std@@AEAUpadding_info@01@@Z
	??$make_unique@V?$F_formatter@Vscoped_padder@details@spdlog@@@details@spdlog@@AEAUpadding_info@23@@details@spdlog@@YA?AV?$unique_ptr@V?$F_formatter@Vscoped_padder@details@spdlog@@@details@spdlog@@U?$default_delete@V?$F_formatter@Vscoped_padder@details@spdlog@@@details@spdlog@@@std@@@std@@AEAUpadding_info@01@@Z
	??$make_unique@V?$H_formatter@Unull_scoped_padder@details@spdlog@@@details@spdlog@@AEAUpadding_info@23@@details@spdlog@@YA?AV?$unique_ptr@V?$H_formatter@Unull_scoped_padder@details@spdlog@@@details@spdlog@@U?$default_delete@V?$H_formatter@Unull_scoped_padder@details@spdlog@@@details@spdlog@@@std@@@std@@AEAUpadding_info@01@@Z
	??$make_unique@V?$H_formatter@Vscoped_padder@details@spdlog@@@details@spdlog@@AEAUpadding_info@23@@details@spdlog@@YA?AV?$unique_ptr@V?$H_formatter@Vscoped_padder@details@spdlog@@@details@spdlog@@U?$default_delete@V?$H_formatter@Vscoped_padder@details@spdlog@@@details@spdlog@@@std@@@std@@AEAUpadding_info@01@@Z
	??$make_unique@V?$I_formatter@Unull_scoped_padder@details@spdlog@@@details@spdlog@@AEAUpadding_info@23@@details@spdlog@@YA?AV?$unique_ptr@V?$I_formatter@Unull_scoped_padder@details@spdlog@@@details@spdlog@@U?$default_delete@V?$I_formatter@Unull_scoped_padder@details@spdlog@@@details@spdlog@@@std@@@std@@AEAUpadding_info@01@@Z
	??$make_unique@V?$I_formatter@Vscoped_padder@details@spdlog@@@details@spdlog@@AEAUpadding_info@23@@details@spdlog@@YA?AV?$unique_ptr@V?$I_formatter@Vscoped_padder@details@spdlog@@@details@spdlog@@U?$default_delete@V?$I_formatter@Vscoped_padder@details@spdlog@@@details@spdlog@@@std@@@std@@AEAUpadding_info@01@@Z
	??$make_unique@V?$M_formatter@Unull_scoped_padder@details@spdlog@@@details@spdlog@@AEAUpadding_info@23@@details@spdlog@@YA?AV?$unique_ptr@V?$M_formatter@Unull_scoped_padder@details@spdlog@@@details@spdlog@@U?$default_delete@V?$M_formatter@Unull_scoped_padder@details@spdlog@@@details@spdlog@@@std@@@std@@AEAUpadding_info@01@@Z
	??$make_unique@V?$M_formatter@Vscoped_padder@details@spdlog@@@details@spdlog@@AEAUpadding_info@23@@details@spdlog@@YA?AV?$unique_ptr@V?$M_formatter@Vscoped_padder@details@spdlog@@@details@spdlog@@U?$default_delete@V?$M_formatter@Vscoped_padder@details@spdlog@@@details@spdlog@@@std@@@std@@AEAUpadding_info@01@@Z
	??$make_unique@V?$R_formatter@Unull_scoped_padder@details@spdlog@@@details@spdlog@@AEAUpadding_info@23@@details@spdlog@@YA?AV?$unique_ptr@V?$R_formatter@Unull_scoped_padder@details@spdlog@@@details@spdlog@@U?$default_delete@V?$R_formatter@Unull_scoped_padder@details@spdlog@@@details@spdlog@@@std@@@std@@AEAUpadding_info@01@@Z
	??$make_unique@V?$R_formatter@Vscoped_padder@details@spdlog@@@details@spdlog@@AEAUpadding_info@23@@details@spdlog@@YA?AV?$unique_ptr@V?$R_formatter@Vscoped_padder@details@spdlog@@@details@spdlog@@U?$default_delete@V?$R_formatter@Vscoped_padder@details@spdlog@@@details@spdlog@@@std@@@std@@AEAUpadding_info@01@@Z
	??$make_unique@V?$S_formatter@Unull_scoped_padder@details@spdlog@@@details@spdlog@@AEAUpadding_info@23@@details@spdlog@@YA?AV?$unique_ptr@V?$S_formatter@Unull_scoped_padder@details@spdlog@@@details@spdlog@@U?$default_delete@V?$S_formatter@Unull_scoped_padder@details@spdlog@@@details@spdlog@@@std@@@std@@AEAUpadding_info@01@@Z
	??$make_unique@V?$S_formatter@Vscoped_padder@details@spdlog@@@details@spdlog@@AEAUpadding_info@23@@details@spdlog@@YA?AV?$unique_ptr@V?$S_formatter@Vscoped_padder@details@spdlog@@@details@spdlog@@U?$default_delete@V?$S_formatter@Vscoped_padder@details@spdlog@@@details@spdlog@@@std@@@std@@AEAUpadding_info@01@@Z
	??$make_unique@V?$T_formatter@Unull_scoped_padder@details@spdlog@@@details@spdlog@@AEAUpadding_info@23@@details@spdlog@@YA?AV?$unique_ptr@V?$T_formatter@Unull_scoped_padder@details@spdlog@@@details@spdlog@@U?$default_delete@V?$T_formatter@Unull_scoped_padder@details@spdlog@@@details@spdlog@@@std@@@std@@AEAUpadding_info@01@@Z
	??$make_unique@V?$T_formatter@Vscoped_padder@details@spdlog@@@details@spdlog@@AEAUpadding_info@23@@details@spdlog@@YA?AV?$unique_ptr@V?$T_formatter@Vscoped_padder@details@spdlog@@@details@spdlog@@U?$default_delete@V?$T_formatter@Vscoped_padder@details@spdlog@@@details@spdlog@@@std@@@std@@AEAUpadding_info@01@@Z
	??$make_unique@V?$Y_formatter@Unull_scoped_padder@details@spdlog@@@details@spdlog@@AEAUpadding_info@23@@details@spdlog@@YA?AV?$unique_ptr@V?$Y_formatter@Unull_scoped_padder@details@spdlog@@@details@spdlog@@U?$default_delete@V?$Y_formatter@Unull_scoped_padder@details@spdlog@@@details@spdlog@@@std@@@std@@AEAUpadding_info@01@@Z
	??$make_unique@V?$Y_formatter@Vscoped_padder@details@spdlog@@@details@spdlog@@AEAUpadding_info@23@@details@spdlog@@YA?AV?$unique_ptr@V?$Y_formatter@Vscoped_padder@details@spdlog@@@details@spdlog@@U?$default_delete@V?$Y_formatter@Vscoped_padder@details@spdlog@@@details@spdlog@@@std@@@std@@AEAUpadding_info@01@@Z
	??$make_unique@V?$a_formatter@Unull_scoped_padder@details@spdlog@@@details@spdlog@@AEAUpadding_info@23@@details@spdlog@@YA?AV?$unique_ptr@V?$a_formatter@Unull_scoped_padder@details@spdlog@@@details@spdlog@@U?$default_delete@V?$a_formatter@Unull_scoped_padder@details@spdlog@@@details@spdlog@@@std@@@std@@AEAUpadding_info@01@@Z
	??$make_unique@V?$a_formatter@Vscoped_padder@details@spdlog@@@details@spdlog@@AEAUpadding_info@23@@details@spdlog@@YA?AV?$unique_ptr@V?$a_formatter@Vscoped_padder@details@spdlog@@@details@spdlog@@U?$default_delete@V?$a_formatter@Vscoped_padder@details@spdlog@@@details@spdlog@@@std@@@std@@AEAUpadding_info@01@@Z
	??$make_unique@V?$b_formatter@Unull_scoped_padder@details@spdlog@@@details@spdlog@@AEAUpadding_info@23@@details@spdlog@@YA?AV?$unique_ptr@V?$b_formatter@Unull_scoped_padder@details@spdlog@@@details@spdlog@@U?$default_delete@V?$b_formatter@Unull_scoped_padder@details@spdlog@@@details@spdlog@@@std@@@std@@AEAUpadding_info@01@@Z
	??$make_unique@V?$b_formatter@Vscoped_padder@details@spdlog@@@details@spdlog@@AEAUpadding_info@23@@details@spdlog@@YA?AV?$unique_ptr@V?$b_formatter@Vscoped_padder@details@spdlog@@@details@spdlog@@U?$default_delete@V?$b_formatter@Vscoped_padder@details@spdlog@@@details@spdlog@@@std@@@std@@AEAUpadding_info@01@@Z
	??$make_unique@V?$c_formatter@Unull_scoped_padder@details@spdlog@@@details@spdlog@@AEAUpadding_info@23@@details@spdlog@@YA?AV?$unique_ptr@V?$c_formatter@Unull_scoped_padder@details@spdlog@@@details@spdlog@@U?$default_delete@V?$c_formatter@Unull_scoped_padder@details@spdlog@@@details@spdlog@@@std@@@std@@AEAUpadding_info@01@@Z
	??$make_unique@V?$c_formatter@Vscoped_padder@details@spdlog@@@details@spdlog@@AEAUpadding_info@23@@details@spdlog@@YA?AV?$unique_ptr@V?$c_formatter@Vscoped_padder@details@spdlog@@@details@spdlog@@U?$default_delete@V?$c_formatter@Vscoped_padder@details@spdlog@@@details@spdlog@@@std@@@std@@AEAUpadding_info@01@@Z
	??$make_unique@V?$d_formatter@Unull_scoped_padder@details@spdlog@@@details@spdlog@@AEAUpadding_info@23@@details@spdlog@@YA?AV?$unique_ptr@V?$d_formatter@Unull_scoped_padder@details@spdlog@@@details@spdlog@@U?$default_delete@V?$d_formatter@Unull_scoped_padder@details@spdlog@@@details@spdlog@@@std@@@std@@AEAUpadding_info@01@@Z
	??$make_unique@V?$d_formatter@Vscoped_padder@details@spdlog@@@details@spdlog@@AEAUpadding_info@23@@details@spdlog@@YA?AV?$unique_ptr@V?$d_formatter@Vscoped_padder@details@spdlog@@@details@spdlog@@U?$default_delete@V?$d_formatter@Vscoped_padder@details@spdlog@@@details@spdlog@@@std@@@std@@AEAUpadding_info@01@@Z
	??$make_unique@V?$e_formatter@Unull_scoped_padder@details@spdlog@@@details@spdlog@@AEAUpadding_info@23@@details@spdlog@@YA?AV?$unique_ptr@V?$e_formatter@Unull_scoped_padder@details@spdlog@@@details@spdlog@@U?$default_delete@V?$e_formatter@Unull_scoped_padder@details@spdlog@@@details@spdlog@@@std@@@std@@AEAUpadding_info@01@@Z
	??$make_unique@V?$e_formatter@Vscoped_padder@details@spdlog@@@details@spdlog@@AEAUpadding_info@23@@details@spdlog@@YA?AV?$unique_ptr@V?$e_formatter@Vscoped_padder@details@spdlog@@@details@spdlog@@U?$default_delete@V?$e_formatter@Vscoped_padder@details@spdlog@@@details@spdlog@@@std@@@std@@AEAUpadding_info@01@@Z
	??$make_unique@V?$elapsed_formatter@Unull_scoped_padder@details@spdlog@@V?$duration@_JU?$ratio@$00$00@std@@@chrono@std@@@details@spdlog@@AEAUpadding_info@23@@details@spdlog@@YA?AV?$unique_ptr@V?$elapsed_formatter@Unull_scoped_padder@details@spdlog@@V?$duration@_JU?$ratio@$00$00@std@@@chrono@std@@@details@spdlog@@U?$default_delete@V?$elapsed_formatter@Unull_scoped_padder@details@spdlog@@V?$duration@_JU?$ratio@$00$00@std@@@chrono@std@@@details@spdlog@@@std@@@std@@AEAUpadding_info@01@@Z
	??$make_unique@V?$elapsed_formatter@Unull_scoped_padder@details@spdlog@@V?$duration@_JU?$ratio@$00$0DLJKMKAA@@std@@@chrono@std@@@details@spdlog@@AEAUpadding_info@23@@details@spdlog@@YA?AV?$unique_ptr@V?$elapsed_formatter@Unull_scoped_padder@details@spdlog@@V?$duration@_JU?$ratio@$00$0DLJKMKAA@@std@@@chrono@std@@@details@spdlog@@U?$default_delete@V?$elapsed_formatter@Unull_scoped_padder@details@spdlog@@V?$duration@_JU?$ratio@$00$0DLJKMKAA@@std@@@chrono@std@@@details@spdlog@@@std@@@std@@AEAUpadding_info@01@@Z
	??$make_unique@V?$elapsed_formatter@Unull_scoped_padder@details@spdlog@@V?$duration@_JU?$ratio@$00$0DOI@@std@@@chrono@std@@@details@spdlog@@AEAUpadding_info@23@@details@spdlog@@YA?AV?$unique_ptr@V?$elapsed_formatter@Unull_scoped_padder@details@spdlog@@V?$duration@_JU?$ratio@$00$0DOI@@std@@@chrono@std@@@details@spdlog@@U?$default_delete@V?$elapsed_formatter@Unull_scoped_padder@details@spdlog@@V?$duration@_JU?$ratio@$00$0DOI@@std@@@chrono@std@@@details@spdlog@@@std@@@std@@AEAUpadding_info@01@@Z
	??$make_unique@V?$elapsed_formatter@Unull_scoped_padder@details@spdlog@@V?$duration@_JU?$ratio@$00$0PECEA@@std@@@chrono@std@@@details@spdlog@@AEAUpadding_info@23@@details@spdlog@@YA?AV?$unique_ptr@V?$elapsed_formatter@Unull_scoped_padder@details@spdlog@@V?$duration@_JU?$ratio@$00$0PECEA@@std@@@chrono@std@@@details@spdlog@@U?$default_delete@V?$elapsed_formatter@Unull_scoped_padder@details@spdlog@@V?$duration@_JU?$ratio@$00$0PECEA@@std@@@chrono@std@@@details@spdlog@@@std@@@std@@AEAUpadding_info@01@@Z
	??$make_unique@V?$elapsed_formatter@Vscoped_padder@details@spdlog@@V?$duration@_JU?$ratio@$00$00@std@@@chrono@std@@@details@spdlog@@AEAUpadding_info@23@@details@spdlog@@YA?AV?$unique_ptr@V?$elapsed_formatter@Vscoped_padder@details@spdlog@@V?$duration@_JU?$ratio@$00$00@std@@@chrono@std@@@details@spdlog@@U?$default_delete@V?$elapsed_formatter@Vscoped_padder@details@spdlog@@V?$duration@_JU?$ratio@$00$00@std@@@chrono@std@@@details@spdlog@@@std@@@std@@AEAUpadding_info@01@@Z
	??$make_unique@V?$elapsed_formatter@Vscoped_padder@details@spdlog@@V?$duration@_JU?$ratio@$00$0DLJKMKAA@@std@@@chrono@std@@@details@spdlog@@AEAUpadding_info@23@@details@spdlog@@YA?AV?$unique_ptr@V?$elapsed_formatter@Vscoped_padder@details@spdlog@@V?$duration@_JU?$ratio@$00$0DLJKMKAA@@std@@@chrono@std@@@details@spdlog@@U?$default_delete@V?$elapsed_formatter@Vscoped_padder@details@spdlog@@V?$duration@_JU?$ratio@$00$0DLJKMKAA@@std@@@chrono@std@@@details@spdlog@@@std@@@std@@AEAUpadding_info@01@@Z
	??$make_unique@V?$elapsed_formatter@Vscoped_padder@details@spdlog@@V?$duration@_JU?$ratio@$00$0DOI@@std@@@chrono@std@@@details@spdlog@@AEAUpadding_info@23@@details@spdlog@@YA?AV?$unique_ptr@V?$elapsed_formatter@Vscoped_padder@details@spdlog@@V?$duration@_JU?$ratio@$00$0DOI@@std@@@chrono@std@@@details@spdlog@@U?$default_delete@V?$elapsed_formatter@Vscoped_padder@details@spdlog@@V?$duration@_JU?$ratio@$00$0DOI@@std@@@chrono@std@@@details@spdlog@@@std@@@std@@AEAUpadding_info@01@@Z
	??$make_unique@V?$elapsed_formatter@Vscoped_padder@details@spdlog@@V?$duration@_JU?$ratio@$00$0PECEA@@std@@@chrono@std@@@details@spdlog@@AEAUpadding_info@23@@details@spdlog@@YA?AV?$unique_ptr@V?$elapsed_formatter@Vscoped_padder@details@spdlog@@V?$duration@_JU?$ratio@$00$0PECEA@@std@@@chrono@std@@@details@spdlog@@U?$default_delete@V?$elapsed_formatter@Vscoped_padder@details@spdlog@@V?$duration@_JU?$ratio@$00$0PECEA@@std@@@chrono@std@@@details@spdlog@@@std@@@std@@AEAUpadding_info@01@@Z
	??$make_unique@V?$f_formatter@Unull_scoped_padder@details@spdlog@@@details@spdlog@@AEAUpadding_info@23@@details@spdlog@@YA?AV?$unique_ptr@V?$f_formatter@Unull_scoped_padder@details@spdlog@@@details@spdlog@@U?$default_delete@V?$f_formatter@Unull_scoped_padder@details@spdlog@@@details@spdlog@@@std@@@std@@AEAUpadding_info@01@@Z
	??$make_unique@V?$f_formatter@Vscoped_padder@details@spdlog@@@details@spdlog@@AEAUpadding_info@23@@details@spdlog@@YA?AV?$unique_ptr@V?$f_formatter@Vscoped_padder@details@spdlog@@@details@spdlog@@U?$default_delete@V?$f_formatter@Vscoped_padder@details@spdlog@@@details@spdlog@@@std@@@std@@AEAUpadding_info@01@@Z
	??$make_unique@V?$level_formatter@Unull_scoped_padder@details@spdlog@@@details@spdlog@@AEAUpadding_info@23@@details@spdlog@@YA?AV?$unique_ptr@V?$level_formatter@Unull_scoped_padder@details@spdlog@@@details@spdlog@@U?$default_delete@V?$level_formatter@Unull_scoped_padder@details@spdlog@@@details@spdlog@@@std@@@std@@AEAUpadding_info@01@@Z
	??$make_unique@V?$level_formatter@Vscoped_padder@details@spdlog@@@details@spdlog@@AEAUpadding_info@23@@details@spdlog@@YA?AV?$unique_ptr@V?$level_formatter@Vscoped_padder@details@spdlog@@@details@spdlog@@U?$default_delete@V?$level_formatter@Vscoped_padder@details@spdlog@@@details@spdlog@@@std@@@std@@AEAUpadding_info@01@@Z
	??$make_unique@V?$m_formatter@Unull_scoped_padder@details@spdlog@@@details@spdlog@@AEAUpadding_info@23@@details@spdlog@@YA?AV?$unique_ptr@V?$m_formatter@Unull_scoped_padder@details@spdlog@@@details@spdlog@@U?$default_delete@V?$m_formatter@Unull_scoped_padder@details@spdlog@@@details@spdlog@@@std@@@std@@AEAUpadding_info@01@@Z
	??$make_unique@V?$m_formatter@Vscoped_padder@details@spdlog@@@details@spdlog@@AEAUpadding_info@23@@details@spdlog@@YA?AV?$unique_ptr@V?$m_formatter@Vscoped_padder@details@spdlog@@@details@spdlog@@U?$default_delete@V?$m_formatter@Vscoped_padder@details@spdlog@@@details@spdlog@@@std@@@std@@AEAUpadding_info@01@@Z
	??$make_unique@V?$mdc_formatter@Unull_scoped_padder@details@spdlog@@@details@spdlog@@AEAUpadding_info@23@@details@spdlog@@YA?AV?$unique_ptr@V?$mdc_formatter@Unull_scoped_padder@details@spdlog@@@details@spdlog@@U?$default_delete@V?$mdc_formatter@Unull_scoped_padder@details@spdlog@@@details@spdlog@@@std@@@std@@AEAUpadding_info@01@@Z
	??$make_unique@V?$mdc_formatter@Vscoped_padder@details@spdlog@@@details@spdlog@@AEAUpadding_info@23@@details@spdlog@@YA?AV?$unique_ptr@V?$mdc_formatter@Vscoped_padder@details@spdlog@@@details@spdlog@@U?$default_delete@V?$mdc_formatter@Vscoped_padder@details@spdlog@@@details@spdlog@@@std@@@std@@AEAUpadding_info@01@@Z
	??$make_unique@V?$name_formatter@Unull_scoped_padder@details@spdlog@@@details@spdlog@@AEAUpadding_info@23@@details@spdlog@@YA?AV?$unique_ptr@V?$name_formatter@Unull_scoped_padder@details@spdlog@@@details@spdlog@@U?$default_delete@V?$name_formatter@Unull_scoped_padder@details@spdlog@@@details@spdlog@@@std@@@std@@AEAUpadding_info@01@@Z
	??$make_unique@V?$name_formatter@Vscoped_padder@details@spdlog@@@details@spdlog@@AEAUpadding_info@23@@details@spdlog@@YA?AV?$unique_ptr@V?$name_formatter@Vscoped_padder@details@spdlog@@@details@spdlog@@U?$default_delete@V?$name_formatter@Vscoped_padder@details@spdlog@@@details@spdlog@@@std@@@std@@AEAUpadding_info@01@@Z
	??$make_unique@V?$p_formatter@Unull_scoped_padder@details@spdlog@@@details@spdlog@@AEAUpadding_info@23@@details@spdlog@@YA?AV?$unique_ptr@V?$p_formatter@Unull_scoped_padder@details@spdlog@@@details@spdlog@@U?$default_delete@V?$p_formatter@Unull_scoped_padder@details@spdlog@@@details@spdlog@@@std@@@std@@AEAUpadding_info@01@@Z
	??$make_unique@V?$p_formatter@Vscoped_padder@details@spdlog@@@details@spdlog@@AEAUpadding_info@23@@details@spdlog@@YA?AV?$unique_ptr@V?$p_formatter@Vscoped_padder@details@spdlog@@@details@spdlog@@U?$default_delete@V?$p_formatter@Vscoped_padder@details@spdlog@@@details@spdlog@@@std@@@std@@AEAUpadding_info@01@@Z
	??$make_unique@V?$pid_formatter@Unull_scoped_padder@details@spdlog@@@details@spdlog@@AEAUpadding_info@23@@details@spdlog@@YA?AV?$unique_ptr@V?$pid_formatter@Unull_scoped_padder@details@spdlog@@@details@spdlog@@U?$default_delete@V?$pid_formatter@Unull_scoped_padder@details@spdlog@@@details@spdlog@@@std@@@std@@AEAUpadding_info@01@@Z
	??$make_unique@V?$pid_formatter@Vscoped_padder@details@spdlog@@@details@spdlog@@AEAUpadding_info@23@@details@spdlog@@YA?AV?$unique_ptr@V?$pid_formatter@Vscoped_padder@details@spdlog@@@details@spdlog@@U?$default_delete@V?$pid_formatter@Vscoped_padder@details@spdlog@@@details@spdlog@@@std@@@std@@AEAUpadding_info@01@@Z
	??$make_unique@V?$r_formatter@Unull_scoped_padder@details@spdlog@@@details@spdlog@@AEAUpadding_info@23@@details@spdlog@@YA?AV?$unique_ptr@V?$r_formatter@Unull_scoped_padder@details@spdlog@@@details@spdlog@@U?$default_delete@V?$r_formatter@Unull_scoped_padder@details@spdlog@@@details@spdlog@@@std@@@std@@AEAUpadding_info@01@@Z
	??$make_unique@V?$r_formatter@Vscoped_padder@details@spdlog@@@details@spdlog@@AEAUpadding_info@23@@details@spdlog@@YA?AV?$unique_ptr@V?$r_formatter@Vscoped_padder@details@spdlog@@@details@spdlog@@U?$default_delete@V?$r_formatter@Vscoped_padder@details@spdlog@@@details@spdlog@@@std@@@std@@AEAUpadding_info@01@@Z
	??$make_unique@V?$short_filename_formatter@Unull_scoped_padder@details@spdlog@@@details@spdlog@@AEAUpadding_info@23@@details@spdlog@@YA?AV?$unique_ptr@V?$short_filename_formatter@Unull_scoped_padder@details@spdlog@@@details@spdlog@@U?$default_delete@V?$short_filename_formatter@Unull_scoped_padder@details@spdlog@@@details@spdlog@@@std@@@std@@AEAUpadding_info@01@@Z
	??$make_unique@V?$short_filename_formatter@Vscoped_padder@details@spdlog@@@details@spdlog@@AEAUpadding_info@23@@details@spdlog@@YA?AV?$unique_ptr@V?$short_filename_formatter@Vscoped_padder@details@spdlog@@@details@spdlog@@U?$default_delete@V?$short_filename_formatter@Vscoped_padder@details@spdlog@@@details@spdlog@@@std@@@std@@AEAUpadding_info@01@@Z
	??$make_unique@V?$short_level_formatter@Unull_scoped_padder@details@spdlog@@@details@spdlog@@AEAUpadding_info@23@@details@spdlog@@YA?AV?$unique_ptr@V?$short_level_formatter@Unull_scoped_padder@details@spdlog@@@details@spdlog@@U?$default_delete@V?$short_level_formatter@Unull_scoped_padder@details@spdlog@@@details@spdlog@@@std@@@std@@AEAUpadding_info@01@@Z
	??$make_unique@V?$short_level_formatter@Vscoped_padder@details@spdlog@@@details@spdlog@@AEAUpadding_info@23@@details@spdlog@@YA?AV?$unique_ptr@V?$short_level_formatter@Vscoped_padder@details@spdlog@@@details@spdlog@@U?$default_delete@V?$short_level_formatter@Vscoped_padder@details@spdlog@@@details@spdlog@@@std@@@std@@AEAUpadding_info@01@@Z
	??$make_unique@V?$source_filename_formatter@Unull_scoped_padder@details@spdlog@@@details@spdlog@@AEAUpadding_info@23@@details@spdlog@@YA?AV?$unique_ptr@V?$source_filename_formatter@Unull_scoped_padder@details@spdlog@@@details@spdlog@@U?$default_delete@V?$source_filename_formatter@Unull_scoped_padder@details@spdlog@@@details@spdlog@@@std@@@std@@AEAUpadding_info@01@@Z
	??$make_unique@V?$source_filename_formatter@Vscoped_padder@details@spdlog@@@details@spdlog@@AEAUpadding_info@23@@details@spdlog@@YA?AV?$unique_ptr@V?$source_filename_formatter@Vscoped_padder@details@spdlog@@@details@spdlog@@U?$default_delete@V?$source_filename_formatter@Vscoped_padder@details@spdlog@@@details@spdlog@@@std@@@std@@AEAUpadding_info@01@@Z
	??$make_unique@V?$source_funcname_formatter@Unull_scoped_padder@details@spdlog@@@details@spdlog@@AEAUpadding_info@23@@details@spdlog@@YA?AV?$unique_ptr@V?$source_funcname_formatter@Unull_scoped_padder@details@spdlog@@@details@spdlog@@U?$default_delete@V?$source_funcname_formatter@Unull_scoped_padder@details@spdlog@@@details@spdlog@@@std@@@std@@AEAUpadding_info@01@@Z
	??$make_unique@V?$source_funcname_formatter@Vscoped_padder@details@spdlog@@@details@spdlog@@AEAUpadding_info@23@@details@spdlog@@YA?AV?$unique_ptr@V?$source_funcname_formatter@Vscoped_padder@details@spdlog@@@details@spdlog@@U?$default_delete@V?$source_funcname_formatter@Vscoped_padder@details@spdlog@@@details@spdlog@@@std@@@std@@AEAUpadding_info@01@@Z
	??$make_unique@V?$source_linenum_formatter@Unull_scoped_padder@details@spdlog@@@details@spdlog@@AEAUpadding_info@23@@details@spdlog@@YA?AV?$unique_ptr@V?$source_linenum_formatter@Unull_scoped_padder@details@spdlog@@@details@spdlog@@U?$default_delete@V?$source_linenum_formatter@Unull_scoped_padder@details@spdlog@@@details@spdlog@@@std@@@std@@AEAUpadding_info@01@@Z
	??$make_unique@V?$source_linenum_formatter@Vscoped_padder@details@spdlog@@@details@spdlog@@AEAUpadding_info@23@@details@spdlog@@YA?AV?$unique_ptr@V?$source_linenum_formatter@Vscoped_padder@details@spdlog@@@details@spdlog@@U?$default_delete@V?$source_linenum_formatter@Vscoped_padder@details@spdlog@@@details@spdlog@@@std@@@std@@AEAUpadding_info@01@@Z
	??$make_unique@V?$source_location_formatter@Unull_scoped_padder@details@spdlog@@@details@spdlog@@AEAUpadding_info@23@@details@spdlog@@YA?AV?$unique_ptr@V?$source_location_formatter@Unull_scoped_padder@details@spdlog@@@details@spdlog@@U?$default_delete@V?$source_location_formatter@Unull_scoped_padder@details@spdlog@@@details@spdlog@@@std@@@std@@AEAUpadding_info@01@@Z
	??$make_unique@V?$source_location_formatter@Vscoped_padder@details@spdlog@@@details@spdlog@@AEAUpadding_info@23@@details@spdlog@@YA?AV?$unique_ptr@V?$source_location_formatter@Vscoped_padder@details@spdlog@@@details@spdlog@@U?$default_delete@V?$source_location_formatter@Vscoped_padder@details@spdlog@@@details@spdlog@@@std@@@std@@AEAUpadding_info@01@@Z
	??$make_unique@V?$t_formatter@Unull_scoped_padder@details@spdlog@@@details@spdlog@@AEAUpadding_info@23@@details@spdlog@@YA?AV?$unique_ptr@V?$t_formatter@Unull_scoped_padder@details@spdlog@@@details@spdlog@@U?$default_delete@V?$t_formatter@Unull_scoped_padder@details@spdlog@@@details@spdlog@@@std@@@std@@AEAUpadding_info@01@@Z
	??$make_unique@V?$t_formatter@Vscoped_padder@details@spdlog@@@details@spdlog@@AEAUpadding_info@23@@details@spdlog@@YA?AV?$unique_ptr@V?$t_formatter@Vscoped_padder@details@spdlog@@@details@spdlog@@U?$default_delete@V?$t_formatter@Vscoped_padder@details@spdlog@@@details@spdlog@@@std@@@std@@AEAUpadding_info@01@@Z
	??$make_unique@V?$v_formatter@Unull_scoped_padder@details@spdlog@@@details@spdlog@@AEAUpadding_info@23@@details@spdlog@@YA?AV?$unique_ptr@V?$v_formatter@Unull_scoped_padder@details@spdlog@@@details@spdlog@@U?$default_delete@V?$v_formatter@Unull_scoped_padder@details@spdlog@@@details@spdlog@@@std@@@std@@AEAUpadding_info@01@@Z
	??$make_unique@V?$v_formatter@Vscoped_padder@details@spdlog@@@details@spdlog@@AEAUpadding_info@23@@details@spdlog@@YA?AV?$unique_ptr@V?$v_formatter@Vscoped_padder@details@spdlog@@@details@spdlog@@U?$default_delete@V?$v_formatter@Vscoped_padder@details@spdlog@@@details@spdlog@@@std@@@std@@AEAUpadding_info@01@@Z
	??$make_unique@V?$z_formatter@Unull_scoped_padder@details@spdlog@@@details@spdlog@@AEAUpadding_info@23@@details@spdlog@@YA?AV?$unique_ptr@V?$z_formatter@Unull_scoped_padder@details@spdlog@@@details@spdlog@@U?$default_delete@V?$z_formatter@Unull_scoped_padder@details@spdlog@@@details@spdlog@@@std@@@std@@AEAUpadding_info@01@@Z
	??$make_unique@V?$z_formatter@Vscoped_padder@details@spdlog@@@details@spdlog@@AEAUpadding_info@23@@details@spdlog@@YA?AV?$unique_ptr@V?$z_formatter@Vscoped_padder@details@spdlog@@@details@spdlog@@U?$default_delete@V?$z_formatter@Vscoped_padder@details@spdlog@@@details@spdlog@@@std@@@std@@AEAUpadding_info@01@@Z
	??$make_unique@Vaggregate_formatter@details@spdlog@@$$V@details@spdlog@@YA?AV?$unique_ptr@Vaggregate_formatter@details@spdlog@@U?$default_delete@Vaggregate_formatter@details@spdlog@@@std@@@std@@XZ
	??$make_unique@Vch_formatter@details@spdlog@@D@details@spdlog@@YA?AV?$unique_ptr@Vch_formatter@details@spdlog@@U?$default_delete@Vch_formatter@details@spdlog@@@std@@@std@@$$QEAD@Z
	??$make_unique@Vcolor_start_formatter@details@spdlog@@AEAUpadding_info@23@@details@spdlog@@YA?AV?$unique_ptr@Vcolor_start_formatter@details@spdlog@@U?$default_delete@Vcolor_start_formatter@details@spdlog@@@std@@@std@@AEAUpadding_info@01@@Z
	??$make_unique@Vcolor_stop_formatter@details@spdlog@@AEAUpadding_info@23@@details@spdlog@@YA?AV?$unique_ptr@Vcolor_stop_formatter@details@spdlog@@U?$default_delete@Vcolor_stop_formatter@details@spdlog@@@std@@@std@@AEAUpadding_info@01@@Z
	??$make_unique@Vfull_formatter@details@spdlog@@AEAUpadding_info@23@@details@spdlog@@YA?AV?$unique_ptr@Vfull_formatter@details@spdlog@@U?$default_delete@Vfull_formatter@details@spdlog@@@std@@@std@@AEAUpadding_info@01@@Z
	??$make_unique@Vfull_formatter@details@spdlog@@Upadding_info@23@@details@spdlog@@YA?AV?$unique_ptr@Vfull_formatter@details@spdlog@@U?$default_delete@Vfull_formatter@details@spdlog@@@std@@@std@@$$QEAUpadding_info@01@@Z
	??$make_unique@Vpattern_formatter@spdlog@@$$V@details@spdlog@@YA?AV?$unique_ptr@Vpattern_formatter@spdlog@@U?$default_delete@Vpattern_formatter@spdlog@@@std@@@std@@XZ
	??$make_unique@Vpattern_formatter@spdlog@@AEBV?$basic_string@DU?$char_traits@D@std@@V?$allocator@D@2@@std@@AEBW4pattern_time_type@2@AEBV34@V?$unordered_map@DV?$unique_ptr@Vcustom_flag_formatter@spdlog@@U?$default_delete@Vcustom_flag_formatter@spdlog@@@std@@@std@@U?$hash@D@2@U?$equal_to@D@2@V?$allocator@U?$pair@$$CBDV?$unique_ptr@Vcustom_flag_formatter@spdlog@@U?$default_delete@Vcustom_flag_formatter@spdlog@@@std@@@std@@@std@@@2@@4@@details@spdlog@@YA?AV?$unique_ptr@Vpattern_formatter@spdlog@@U?$default_delete@Vpattern_formatter@spdlog@@@std@@@std@@AEBV?$basic_string@DU?$char_traits@D@std@@V?$allocator@D@2@@3@AEBW4pattern_time_type@1@0$$QEAV?$unordered_map@DV?$unique_ptr@Vcustom_flag_formatter@spdlog@@U?$default_delete@Vcustom_flag_formatter@spdlog@@@std@@@std@@U?$hash@D@2@U?$equal_to@D@2@V?$allocator@U?$pair@$$CBDV?$unique_ptr@Vcustom_flag_formatter@spdlog@@U?$default_delete@Vcustom_flag_formatter@spdlog@@@std@@@std@@@std@@@2@@3@@Z
	??$make_write_int_arg@E@detail@v11@fmt@@YA?AU?$write_int_arg@I@012@EW4sign@12@@Z
	??$make_write_int_arg@H@detail@v11@fmt@@YA?AU?$write_int_arg@I@012@HW4sign@12@@Z
	??$make_write_int_arg@I@detail@v11@fmt@@YA?AU?$write_int_arg@I@012@IW4sign@12@@Z
	??$make_write_int_arg@_J@detail@v11@fmt@@YA?AU?$write_int_arg@_K@012@_JW4sign@12@@Z
	??$make_write_int_arg@_K@detail@v11@fmt@@YA?AU?$write_int_arg@_K@012@_KW4sign@12@@Z
	??$max@V?$duration@_JU?$ratio@$00$0JIJGIA@@std@@@chrono@std@@@std@@YAAEBV?$duration@_JU?$ratio@$00$0JIJGIA@@std@@@chrono@0@AEBV120@0@Z
	??$max@_K@std@@YAAEB_KAEB_K0@Z
	??$max_of@H@v11@fmt@@YAHHH@Z
	??$max_of@_K@v11@fmt@@YA_K_K0@Z
	??$max_value@D@detail@v11@fmt@@YADXZ
	??$max_value@H@detail@v11@fmt@@YAHXZ
	??$max_value@I@detail@v11@fmt@@YAIXZ
	??$max_value@_K@detail@v11@fmt@@YA_KXZ
	??$min@_K@std@@YAAEB_KAEB_K0@Z
	??$min_of@H@v11@fmt@@YAHHH@Z
	??$min_of@_K@v11@fmt@@YA_K_K0@Z
	??$multiply@Vuint128_fallback@detail@v11@fmt@@$0A@@bigint@detail@v11@fmt@@AEAAXVuint128_fallback@123@@Z
	??$next@V?$_Vector_iterator@V?$_Vector_val@U?$_Simple_types@V?$shared_ptr@Vsink@sinks@spdlog@@@std@@@std@@@std@@@std@@@std@@YA?AV?$_Vector_iterator@V?$_Vector_val@U?$_Simple_types@V?$shared_ptr@Vsink@sinks@spdlog@@@std@@@std@@@std@@@0@V10@_J@Z
	??$num_bits@I@detail@v11@fmt@@YAHXZ
	??$num_bits@_K@detail@v11@fmt@@YAHXZ
	??$num_significand_bits@M@detail@v11@fmt@@YAHXZ
	??$num_significand_bits@N@detail@v11@fmt@@YAHXZ
	??$pad3@I@fmt_helper@details@spdlog@@YAXIAEAV?$basic_memory_buffer@D$0PK@U?$allocator@D@detail@v11@fmt@@@v11@fmt@@@Z
	??$pad6@_K@fmt_helper@details@spdlog@@YAX_KAEAV?$basic_memory_buffer@D$0PK@U?$allocator@D@detail@v11@fmt@@@v11@fmt@@@Z
	??$pad9@_K@fmt_helper@details@spdlog@@YAX_KAEAV?$basic_memory_buffer@D$0PK@U?$allocator@D@detail@v11@fmt@@@v11@fmt@@@Z
	??$pad_uint@_K@fmt_helper@details@spdlog@@YAX_KIAEAV?$basic_memory_buffer@D$0PK@U?$allocator@D@detail@v11@fmt@@@v11@fmt@@@Z
	??$parse_arg_id@DAEAUid_adapter@?7???$parse_replacement_field@DAEAU?$format_handler@D@detail@v11@fmt@@@detail@v11@fmt@@YAPEBDPEBD0AEAU?$format_handler@D@234@@Z@@detail@v11@fmt@@YAPEBDPEBD0AEAUid_adapter@?7???$parse_replacement_field@DAEAU?$format_handler@D@detail@v11@fmt@@@012@YAPEBD00AEAU?$format_handler@D@012@@Z@@Z
	??$parse_arg_id@DU?$dynamic_spec_handler@D@detail@v11@fmt@@@detail@v11@fmt@@YAPEBDPEBD0$$QEAU?$dynamic_spec_handler@D@012@@Z
	??$parse_dynamic_spec@D@detail@v11@fmt@@YA?AU?$parse_dynamic_spec_result@D@012@PEBD0AEAHAEAT?$arg_ref@D@012@AEAV?$parse_context@D@12@@Z
	??$parse_format_specs@D@detail@v11@fmt@@YAPEBDPEBD0AEAU?$dynamic_format_specs@D@012@AEAV?$parse_context@D@12@W4type@012@@Z
	??$parse_format_string@DU?$format_handler@D@detail@v11@fmt@@@detail@v11@fmt@@YAXV?$basic_string_view@D@12@$$QEAU?$format_handler@D@012@@Z
	??$parse_nonnegative_int@D@detail@v11@fmt@@YAHAEAPEBDPEBDH@Z
	??$parse_precision@D@detail@v11@fmt@@YAPEBDPEBD0AEAUformat_specs@12@AEAT?$arg_ref@D@012@AEAV?$parse_context@D@12@@Z
	??$parse_replacement_field@DAEAU?$format_handler@D@detail@v11@fmt@@@detail@v11@fmt@@YAPEBDPEBD0AEAU?$format_handler@D@012@@Z
	??$parse_width@D@detail@v11@fmt@@YAPEBDPEBD0AEAUformat_specs@12@AEAT?$arg_ref@D@012@AEAV?$parse_context@D@12@@Z
	??$reserve@D@detail@v11@fmt@@YA?AV?$basic_appender@D@12@V312@_K@Z
	??$set_fill@D@basic_specs@v11@fmt@@QEAAXV?$basic_string_view@D@12@@Z
	??$shorter_interval_case@M@dragonbox@detail@v11@fmt@@YA?AU?$decimal_fp@M@0123@H@Z
	??$shorter_interval_case@N@dragonbox@detail@v11@fmt@@YA?AU?$decimal_fp@N@0123@H@Z
	??$signbit@M$0A@@detail@v11@fmt@@YA_NM@Z
	??$signbit@N$0A@@detail@v11@fmt@@YA_NN@Z
	??$signbit@O$0A@@detail@v11@fmt@@YA_NO@Z
	??$stdout_color_mt@Usynchronous_factory@spdlog@@@spdlog@@YA?AV?$shared_ptr@Vlogger@spdlog@@@std@@AEBV?$basic_string@DU?$char_traits@D@std@@V?$allocator@D@2@@2@W4color_mode@0@@Z
	??$swap@PEAU?$_List_node@U?$pair@$$CBDV?$unique_ptr@Vcustom_flag_formatter@spdlog@@U?$default_delete@Vcustom_flag_formatter@spdlog@@@std@@@std@@@std@@PEAX@std@@$0A@@std@@YAXAEAPEAU?$_List_node@U?$pair@$$CBDV?$unique_ptr@Vcustom_flag_formatter@spdlog@@U?$default_delete@Vcustom_flag_formatter@spdlog@@@std@@@std@@@std@@PEAX@0@0@Z
	??$swap@PEAV?$_List_unchecked_iterator@V?$_List_val@U?$_List_simple_types@U?$pair@$$CBDV?$unique_ptr@Vcustom_flag_formatter@spdlog@@U?$default_delete@Vcustom_flag_formatter@spdlog@@@std@@@std@@@std@@@std@@@std@@@std@@$0A@@std@@YAXAEAPEAV?$_List_unchecked_iterator@V?$_List_val@U?$_List_simple_types@U?$pair@$$CBDV?$unique_ptr@Vcustom_flag_formatter@spdlog@@U?$default_delete@Vcustom_flag_formatter@spdlog@@@std@@@std@@@std@@@std@@@std@@@0@0@Z
	??$swap@PEAV_Ref_count_base@std@@$0A@@std@@YAXAEAPEAV_Ref_count_base@0@0@Z
	??$swap@PEAVlogger@spdlog@@$0A@@std@@YAXAEAPEAVlogger@spdlog@@0@Z
	??$swap@_K$0A@@std@@YAXAEA_K0@Z
	??$thousands_sep@D@detail@v11@fmt@@YA?AU?$thousands_sep_result@D@012@Ulocale_ref@012@@Z
	??$thousands_sep_impl@D@detail@v11@fmt@@YA?AU?$thousands_sep_result@D@012@Ulocale_ref@012@@Z
	??$time_fraction@V?$duration@_JU?$ratio@$00$0DLJKMKAA@@std@@@chrono@std@@@fmt_helper@details@spdlog@@YA?AV?$duration@_JU?$ratio@$00$0DLJKMKAA@@std@@@chrono@std@@V?$time_point@Usystem_clock@chrono@std@@V?$duration@_JU?$ratio@$00$0JIJGIA@@std@@@23@@45@@Z
	??$time_fraction@V?$duration@_JU?$ratio@$00$0DOI@@std@@@chrono@std@@@fmt_helper@details@spdlog@@YA?AV?$duration@_JU?$ratio@$00$0DOI@@std@@@chrono@std@@V?$time_point@Usystem_clock@chrono@std@@V?$duration@_JU?$ratio@$00$0JIJGIA@@std@@@23@@45@@Z
	??$time_fraction@V?$duration@_JU?$ratio@$00$0PECEA@@std@@@chrono@std@@@fmt_helper@details@spdlog@@YA?AV?$duration@_JU?$ratio@$00$0PECEA@@std@@@chrono@std@@V?$time_point@Usystem_clock@chrono@std@@V?$duration@_JU?$ratio@$00$0JIJGIA@@std@@@23@@45@@Z
	??$to_ascii@D$0A@@detail@v11@fmt@@YADD@Z
	??$to_decimal@M@dragonbox@detail@v11@fmt@@YA?AU?$decimal_fp@M@0123@M@Z
	??$to_decimal@N@dragonbox@detail@v11@fmt@@YA?AU?$decimal_fp@N@0123@N@Z
	??$to_pointer@D@detail@v11@fmt@@YAPEADV?$basic_appender@D@12@_K@Z
	??$to_string@$0BPE@@v11@fmt@@YA?AV?$basic_string@DU?$char_traits@D@std@@V?$allocator@D@2@@std@@AEBV?$basic_memory_buffer@D$0BPE@U?$allocator@D@detail@v11@fmt@@@01@@Z
	??$to_string@$0PK@@v11@fmt@@YA?AV?$basic_string@DU?$char_traits@D@std@@V?$allocator@D@2@@std@@AEBV?$basic_memory_buffer@D$0PK@U?$allocator@D@detail@v11@fmt@@@01@@Z
	??$to_string_view@D@detail@v11@fmt@@YA?AV?$basic_string_view@D@12@V312@@Z
	??$to_unsigned@H@detail@v11@fmt@@YAIH@Z
	??$to_unsigned@_J@detail@v11@fmt@@YA_K_J@Z
	??$to_unsigned@_K@detail@v11@fmt@@YA_K_K@Z
	??$uninitialized_fill@PEAV?$_List_unchecked_iterator@V?$_List_val@U?$_List_simple_types@U?$pair@$$CBDV?$unique_ptr@Vcustom_flag_formatter@spdlog@@U?$default_delete@Vcustom_flag_formatter@spdlog@@@std@@@std@@@std@@@std@@@std@@@std@@V12@@std@@YAXQEAV?$_List_unchecked_iterator@V?$_List_val@U?$_List_simple_types@U?$pair@$$CBDV?$unique_ptr@Vcustom_flag_formatter@spdlog@@U?$default_delete@Vcustom_flag_formatter@spdlog@@@std@@@std@@@std@@@std@@@std@@@0@0AEBV10@@Z
	??$uninitialized_fill@PEAV?$_List_unchecked_iterator@V?$_List_val@U?$_List_simple_types@U?$pair@$$CBV?$basic_string@DU?$char_traits@D@std@@V?$allocator@D@2@@std@@V?$shared_ptr@Vlogger@spdlog@@@2@@std@@@std@@@std@@@std@@V12@@std@@YAXQEAV?$_List_unchecked_iterator@V?$_List_val@U?$_List_simple_types@U?$pair@$$CBV?$basic_string@DU?$char_traits@D@std@@V?$allocator@D@2@@std@@V?$shared_ptr@Vlogger@spdlog@@@2@@std@@@std@@@std@@@0@0AEBV10@@Z
	??$uninitialized_fill@PEAV?$_List_unchecked_iterator@V?$_List_val@U?$_List_simple_types@U?$pair@$$CBV?$basic_string@DU?$char_traits@D@std@@V?$allocator@D@2@@std@@W4level_enum@level@spdlog@@@std@@@std@@@std@@@std@@V12@@std@@YAXQEAV?$_List_unchecked_iterator@V?$_List_val@U?$_List_simple_types@U?$pair@$$CBV?$basic_string@DU?$char_traits@D@std@@V?$allocator@D@2@@std@@W4level_enum@level@spdlog@@@std@@@std@@@std@@@0@0AEBV10@@Z
	??$use_facet@V?$format_facet@Vlocale@std@@@v11@fmt@@@std@@YAAEBV?$format_facet@Vlocale@std@@@v11@fmt@@AEBVlocale@0@@Z
	??$use_facet@V?$numpunct@D@std@@@std@@YAAEBV?$numpunct@D@0@AEBVlocale@0@@Z
	??$vformat_to@AEAV?$back_insert_iterator@V?$basic_memory_buffer@D$0PK@U?$allocator@D@detail@v11@fmt@@@v11@fmt@@@std@@$0A@@v11@fmt@@YA?AV?$back_insert_iterator@V?$basic_memory_buffer@D$0PK@U?$allocator@D@detail@v11@fmt@@@v11@fmt@@@std@@AEAV23@V?$basic_string_view@D@01@V?$basic_format_args@Vcontext@v11@fmt@@@01@@Z
	??$vformat_to@AEAV?$basic_appender@D@v11@fmt@@$0A@@v11@fmt@@YA?AV?$basic_appender@D@01@AEAV201@V?$basic_string_view@D@01@V?$basic_format_args@Vcontext@v11@fmt@@@01@@Z
	??$visit@AEAU?$loc_writer@D@detail@v11@fmt@@@?$basic_format_arg@Vcontext@v11@fmt@@@v11@fmt@@QEBA_NAEAU?$loc_writer@D@detail@12@@Z
	??$visit@U?$arg_formatter@D@detail@v11@fmt@@@?$basic_format_arg@Vcontext@v11@fmt@@@v11@fmt@@QEBAX$$QEAU?$arg_formatter@D@detail@12@@Z
	??$visit@U?$default_arg_formatter@D@detail@v11@fmt@@@?$basic_format_arg@Vcontext@v11@fmt@@@v11@fmt@@QEBAX$$QEAU?$default_arg_formatter@D@detail@12@@Z
	??$visit@U?$loc_writer@D@detail@v11@fmt@@@loc_value@v11@fmt@@QEAA_N$$QEAU?$loc_writer@D@detail@12@@Z
	??$visit@Udynamic_spec_getter@detail@v11@fmt@@@?$basic_format_arg@Vcontext@v11@fmt@@@v11@fmt@@QEBA_K$$QEAUdynamic_spec_getter@detail@12@@Z
	??$write2digits@D@detail@v11@fmt@@YAXPEAD_K@Z
	??$write@DE$0A@@detail@v11@fmt@@YA?AV?$basic_appender@D@12@V312@EAEBUformat_specs@12@Ulocale_ref@012@@Z
	??$write@DH$0A@@detail@v11@fmt@@YA?AV?$basic_appender@D@12@V312@HAEBUformat_specs@12@Ulocale_ref@012@@Z
	??$write@DI$0A@@detail@v11@fmt@@YA?AV?$basic_appender@D@12@V312@IAEBUformat_specs@12@Ulocale_ref@012@@Z
	??$write@DV?$basic_appender@D@v11@fmt@@@detail@v11@fmt@@YA?AV?$basic_appender@D@12@V312@D@Z
	??$write@DV?$basic_appender@D@v11@fmt@@@detail@v11@fmt@@YA?AV?$basic_appender@D@12@V312@DAEBUformat_specs@12@Ulocale_ref@012@@Z
	??$write@DV?$basic_appender@D@v11@fmt@@@detail@v11@fmt@@YA?AV?$basic_appender@D@12@V312@PEBD@Z
	??$write@DV?$basic_appender@D@v11@fmt@@@detail@v11@fmt@@YA?AV?$basic_appender@D@12@V312@PEBDAEBUformat_specs@12@Ulocale_ref@012@@Z
	??$write@DV?$basic_appender@D@v11@fmt@@@detail@v11@fmt@@YA?AV?$basic_appender@D@12@V312@Umonostate@12@Uformat_specs@12@Ulocale_ref@012@@Z
	??$write@DV?$basic_appender@D@v11@fmt@@@detail@v11@fmt@@YA?AV?$basic_appender@D@12@V312@V?$basic_string_view@D@12@@Z
	??$write@DV?$basic_appender@D@v11@fmt@@@detail@v11@fmt@@YA?AV?$basic_appender@D@12@V312@V?$basic_string_view@D@12@AEBUformat_specs@12@@Z
	??$write@DV?$basic_appender@D@v11@fmt@@@detail@v11@fmt@@YA?AV?$basic_appender@D@12@V312@V?$basic_string_view@D@12@AEBUformat_specs@12@Ulocale_ref@012@@Z
	??$write@DV?$basic_appender@D@v11@fmt@@H$0A@@detail@v11@fmt@@YA?AV?$basic_appender@D@12@V312@H@Z
	??$write@DV?$basic_appender@D@v11@fmt@@I$0A@@detail@v11@fmt@@YA?AV?$basic_appender@D@12@V312@I@Z
	??$write@DV?$basic_appender@D@v11@fmt@@M$0A@@detail@v11@fmt@@YA?AV?$basic_appender@D@12@V312@M@Z
	??$write@DV?$basic_appender@D@v11@fmt@@M$0A@@detail@v11@fmt@@YA?AV?$basic_appender@D@12@V312@MUformat_specs@12@Ulocale_ref@012@@Z
	??$write@DV?$basic_appender@D@v11@fmt@@N$0A@@detail@v11@fmt@@YA?AV?$basic_appender@D@12@V312@N@Z
	??$write@DV?$basic_appender@D@v11@fmt@@N$0A@@detail@v11@fmt@@YA?AV?$basic_appender@D@12@V312@NUformat_specs@12@Ulocale_ref@012@@Z
	??$write@DV?$basic_appender@D@v11@fmt@@O$0A@@detail@v11@fmt@@YA?AV?$basic_appender@D@12@V312@O@Z
	??$write@DV?$basic_appender@D@v11@fmt@@O$0A@@detail@v11@fmt@@YA?AV?$basic_appender@D@12@V312@OUformat_specs@12@Ulocale_ref@012@@Z
	??$write@DV?$basic_appender@D@v11@fmt@@X$0A@@detail@v11@fmt@@YA?AV?$basic_appender@D@12@V312@PEBXAEBUformat_specs@12@Ulocale_ref@012@@Z
	??$write@DV?$basic_appender@D@v11@fmt@@_J$0A@@detail@v11@fmt@@YA?AV?$basic_appender@D@12@V312@_J@Z
	??$write@DV?$basic_appender@D@v11@fmt@@_K$0A@@detail@v11@fmt@@YA?AV?$basic_appender@D@12@V312@_K@Z
	??$write@DV?$basic_appender@D@v11@fmt@@_N$0A@@detail@v11@fmt@@YA?AV?$basic_appender@D@12@V312@_NAEBUformat_specs@12@Ulocale_ref@012@@Z
	??$write@D_J$0A@@detail@v11@fmt@@YA?AV?$basic_appender@D@12@V312@_JAEBUformat_specs@12@Ulocale_ref@012@@Z
	??$write@D_K$0A@@detail@v11@fmt@@YA?AV?$basic_appender@D@12@V312@_KAEBUformat_specs@12@Ulocale_ref@012@@Z
	??$write_bytes@D$00V?$basic_appender@D@v11@fmt@@@detail@v11@fmt@@YA?AV?$basic_appender@D@12@V312@V?$basic_string_view@D@12@AEBUformat_specs@12@@Z
	??$write_bytes@D$01V?$basic_appender@D@v11@fmt@@@detail@v11@fmt@@YA?AV?$basic_appender@D@12@V312@V?$basic_string_view@D@12@AEBUformat_specs@12@@Z
	??$write_char@DV?$basic_appender@D@v11@fmt@@@detail@v11@fmt@@YA?AV?$basic_appender@D@12@V312@DAEBUformat_specs@12@@Z
	??$write_codepoint@$01DV?$basic_appender@D@v11@fmt@@@detail@v11@fmt@@YA?AV?$basic_appender@D@12@V312@DI@Z
	??$write_codepoint@$03DV?$basic_appender@D@v11@fmt@@@detail@v11@fmt@@YA?AV?$basic_appender@D@12@V312@DI@Z
	??$write_codepoint@$07DV?$basic_appender@D@v11@fmt@@@detail@v11@fmt@@YA?AV?$basic_appender@D@12@V312@DI@Z
	??$write_escaped_char@DV?$basic_appender@D@v11@fmt@@@detail@v11@fmt@@YA?AV?$basic_appender@D@12@V312@D@Z
	??$write_escaped_cp@V?$basic_appender@D@v11@fmt@@D@detail@v11@fmt@@YA?AV?$basic_appender@D@12@V312@AEBU?$find_escape_result@D@012@@Z
	??$write_escaped_string@DV?$basic_appender@D@v11@fmt@@@detail@v11@fmt@@YA?AV?$basic_appender@D@12@V312@V?$basic_string_view@D@12@@Z
	??$write_exponent@DV?$basic_appender@D@v11@fmt@@@detail@v11@fmt@@YA?AV?$basic_appender@D@12@HV312@@Z
	??$write_float@DV?$basic_appender@D@v11@fmt@@M@detail@v11@fmt@@YA?AV?$basic_appender@D@12@V312@MUformat_specs@12@Ulocale_ref@012@@Z
	??$write_float@DV?$basic_appender@D@v11@fmt@@N@detail@v11@fmt@@YA?AV?$basic_appender@D@12@V312@NUformat_specs@12@Ulocale_ref@012@@Z
	??$write_float@DV?$basic_appender@D@v11@fmt@@O@detail@v11@fmt@@YA?AV?$basic_appender@D@12@V312@OUformat_specs@12@Ulocale_ref@012@@Z
	??$write_float@DV?$basic_appender@D@v11@fmt@@U?$decimal_fp@M@dragonbox@detail@23@@detail@v11@fmt@@YA?AV?$basic_appender@D@12@V312@AEBU?$decimal_fp@M@dragonbox@012@AEBUformat_specs@12@W4sign@12@Ulocale_ref@012@@Z
	??$write_float@DV?$basic_appender@D@v11@fmt@@U?$decimal_fp@N@dragonbox@detail@23@@detail@v11@fmt@@YA?AV?$basic_appender@D@12@V312@AEBU?$decimal_fp@N@dragonbox@012@AEBUformat_specs@12@W4sign@12@Ulocale_ref@012@@Z
	??$write_float@DV?$basic_appender@D@v11@fmt@@Ubig_decimal_fp@detail@23@@detail@v11@fmt@@YA?AV?$basic_appender@D@12@V312@AEBUbig_decimal_fp@012@AEBUformat_specs@12@W4sign@12@Ulocale_ref@012@@Z
	??$write_int@DV?$basic_appender@D@v11@fmt@@I@detail@v11@fmt@@YA?AV?$basic_appender@D@12@V312@U?$write_int_arg@I@012@AEBUformat_specs@12@@Z
	??$write_int@DV?$basic_appender@D@v11@fmt@@_K@detail@v11@fmt@@YA?AV?$basic_appender@D@12@V312@U?$write_int_arg@_K@012@AEBUformat_specs@12@@Z
	??$write_int@V?$basic_appender@D@v11@fmt@@_KD@detail@v11@fmt@@YA?AV?$basic_appender@D@12@V312@_KIAEBUformat_specs@12@AEBV?$digit_grouping@D@012@@Z
	??$write_int_noinline@DV?$basic_appender@D@v11@fmt@@I@detail@v11@fmt@@YA?AV?$basic_appender@D@12@V312@U?$write_int_arg@I@012@AEBUformat_specs@12@@Z
	??$write_int_noinline@DV?$basic_appender@D@v11@fmt@@_K@detail@v11@fmt@@YA?AV?$basic_appender@D@12@V312@U?$write_int_arg@_K@012@AEBUformat_specs@12@@Z
	??$write_nonfinite@DV?$basic_appender@D@v11@fmt@@@detail@v11@fmt@@YA?AV?$basic_appender@D@12@V312@_NUformat_specs@12@W4sign@12@@Z
	??$write_padded@D$00V?$basic_appender@D@v11@fmt@@AEAV<lambda_1>@?1???$write_bytes@D$00V?$basic_appender@D@v11@fmt@@@detail@23@YA?AV123@V123@V?$basic_string_view@D@23@AEBUformat_specs@23@@Z@@detail@v11@fmt@@YA?AV?$basic_appender@D@12@V312@AEBUformat_specs@12@_K2AEAV<lambda_1>@?1???$write_bytes@D$00V?$basic_appender@D@v11@fmt@@@012@YA?AV312@0V?$basic_string_view@D@12@1@Z@@Z
	??$write_padded@D$00V?$basic_appender@D@v11@fmt@@AEAV<lambda_1>@?1???$write_char@DV?$basic_appender@D@v11@fmt@@@detail@23@YA?AV123@V123@DAEBUformat_specs@23@@Z@@detail@v11@fmt@@YA?AV?$basic_appender@D@12@V312@AEBUformat_specs@12@_K2AEAV<lambda_1>@?1???$write_char@DV?$basic_appender@D@v11@fmt@@@012@YA?AV312@0D1@Z@@Z
	??$write_padded@D$00V?$basic_appender@D@v11@fmt@@AEAV<lambda_1>@?1???$write_nonfinite@DV?$basic_appender@D@v11@fmt@@@detail@23@YA?AV123@V123@_NUformat_specs@23@W4sign@23@@Z@@detail@v11@fmt@@YA?AV?$basic_appender@D@12@V312@AEBUformat_specs@12@_K2AEAV<lambda_1>@?1???$write_nonfinite@DV?$basic_appender@D@v11@fmt@@@012@YA?AV312@0_NU412@W4sign@12@@Z@@Z
	??$write_padded@D$00V?$basic_appender@D@v11@fmt@@V<lambda_1>@?1???$write@DV?$basic_appender@D@v11@fmt@@@detail@23@YA?AV123@V123@V?$basic_string_view@D@23@AEBUformat_specs@23@@Z@@detail@v11@fmt@@YA?AV?$basic_appender@D@12@V312@AEBUformat_specs@12@_K2$$QEAV<lambda_1>@?1???$write@DV?$basic_appender@D@v11@fmt@@@012@YA?AV312@0V?$basic_string_view@D@12@1@Z@@Z
	??$write_padded@D$00V?$basic_appender@D@v11@fmt@@V<lambda_1>@?1???$write_bytes@D$00V?$basic_appender@D@v11@fmt@@@detail@23@YA?AV123@V123@V?$basic_string_view@D@23@AEBUformat_specs@23@@Z@@detail@v11@fmt@@YA?AV?$basic_appender@D@12@V312@AEBUformat_specs@12@_K$$QEAV<lambda_1>@?1???$write_bytes@D$00V?$basic_appender@D@v11@fmt@@@012@YA?AV312@0V?$basic_string_view@D@12@1@Z@@Z
	??$write_padded@D$00V?$basic_appender@D@v11@fmt@@V<lambda_1>@?1???$write_char@DV?$basic_appender@D@v11@fmt@@@detail@23@YA?AV123@V123@DAEBUformat_specs@23@@Z@@detail@v11@fmt@@YA?AV?$basic_appender@D@12@V312@AEBUformat_specs@12@_K$$QEAV<lambda_1>@?1???$write_char@DV?$basic_appender@D@v11@fmt@@@012@YA?AV312@0D1@Z@@Z
	??$write_padded@D$00V?$basic_appender@D@v11@fmt@@V<lambda_1>@?1???$write_nonfinite@DV?$basic_appender@D@v11@fmt@@@detail@23@YA?AV123@V123@_NUformat_specs@23@W4sign@23@@Z@@detail@v11@fmt@@YA?AV?$basic_appender@D@12@V312@AEBUformat_specs@12@_K$$QEAV<lambda_1>@?1???$write_nonfinite@DV?$basic_appender@D@v11@fmt@@@012@YA?AV312@0_NU412@W4sign@12@@Z@@Z
	??$write_padded@D$01V?$basic_appender@D@v11@fmt@@AEAV<lambda_1>@?1???$write_bytes@D$01V?$basic_appender@D@v11@fmt@@@detail@23@YA?AV123@V123@V?$basic_string_view@D@23@AEBUformat_specs@23@@Z@@detail@v11@fmt@@YA?AV?$basic_appender@D@12@V312@AEBUformat_specs@12@_K2AEAV<lambda_1>@?1???$write_bytes@D$01V?$basic_appender@D@v11@fmt@@@012@YA?AV312@0V?$basic_string_view@D@12@1@Z@@Z
	??$write_padded@D$01V?$basic_appender@D@v11@fmt@@AEAV<lambda_1>@?1???$write_int@DV?$basic_appender@D@v11@fmt@@I@detail@23@YA?AV123@V123@U?$write_int_arg@I@523@AEBUformat_specs@23@@Z@@detail@v11@fmt@@YA?AV?$basic_appender@D@12@V312@AEBUformat_specs@12@_K2AEAV<lambda_1>@?1???$write_int@DV?$basic_appender@D@v11@fmt@@I@012@YA?AV312@0U?$write_int_arg@I@012@1@Z@@Z
	??$write_padded@D$01V?$basic_appender@D@v11@fmt@@AEAV<lambda_1>@?1???$write_int@DV?$basic_appender@D@v11@fmt@@_K@detail@23@YA?AV123@V123@U?$write_int_arg@_K@523@AEBUformat_specs@23@@Z@@detail@v11@fmt@@YA?AV?$basic_appender@D@12@V312@AEBUformat_specs@12@_K2AEAV<lambda_1>@?1???$write_int@DV?$basic_appender@D@v11@fmt@@_K@012@YA?AV312@0U?$write_int_arg@_K@012@1@Z@@Z
	??$write_padded@D$01V?$basic_appender@D@v11@fmt@@AEAV<lambda_1>@?1???$write_ptr@DV?$basic_appender@D@v11@fmt@@_K@detail@23@YA?AV123@V123@_KPEBUformat_specs@23@@Z@@detail@v11@fmt@@YA?AV?$basic_appender@D@12@V312@AEBUformat_specs@12@_K2AEAV<lambda_1>@?1???$write_ptr@DV?$basic_appender@D@v11@fmt@@_K@012@YA?AV312@02PEBU412@@Z@@Z
	??$write_padded@D$01V?$basic_appender@D@v11@fmt@@AEAV<lambda_1>@?1???$write_ptr@DV?$basic_appender@D@v11@fmt@@_K@detail@23@YA?AV123@V123@_KPEBUformat_specs@23@@Z@@detail@v11@fmt@@YA?AV?$basic_appender@D@12@V312@AEBUformat_specs@12@_KAEAV<lambda_1>@?1???$write_ptr@DV?$basic_appender@D@v11@fmt@@_K@012@YA?AV312@02PEBU412@@Z@@Z
	??$write_padded@D$01V?$basic_appender@D@v11@fmt@@AEAV<lambda_2>@?4???$do_write_float@DV?$basic_appender@D@v11@fmt@@U?$decimal_fp@M@dragonbox@detail@23@V?$digit_grouping@D@623@@detail@23@YA?AV123@V123@AEBU?$decimal_fp@M@dragonbox@523@AEBUformat_specs@23@W4sign@23@Ulocale_ref@523@@Z@@detail@v11@fmt@@YA?AV?$basic_appender@D@12@V312@AEBUformat_specs@12@_K2AEAV<lambda_2>@?4???$do_write_float@DV?$basic_appender@D@v11@fmt@@U?$decimal_fp@M@dragonbox@detail@23@V?$digit_grouping@D@623@@012@YA?AV312@0AEBU?$decimal_fp@M@dragonbox@012@1W4sign@12@Ulocale_ref@012@@Z@@Z
	??$write_padded@D$01V?$basic_appender@D@v11@fmt@@AEAV<lambda_2>@?4???$do_write_float@DV?$basic_appender@D@v11@fmt@@U?$decimal_fp@M@dragonbox@detail@23@V?$digit_grouping@D@623@@detail@23@YA?AV123@V123@AEBU?$decimal_fp@M@dragonbox@523@AEBUformat_specs@23@W4sign@23@Ulocale_ref@523@@Z@@detail@v11@fmt@@YA?AV?$basic_appender@D@12@V312@AEBUformat_specs@12@_KAEAV<lambda_2>@?4???$do_write_float@DV?$basic_appender@D@v11@fmt@@U?$decimal_fp@M@dragonbox@detail@23@V?$digit_grouping@D@623@@012@YA?AV312@0AEBU?$decimal_fp@M@dragonbox@012@1W4sign@12@Ulocale_ref@012@@Z@@Z
	??$write_padded@D$01V?$basic_appender@D@v11@fmt@@AEAV<lambda_2>@?4???$do_write_float@DV?$basic_appender@D@v11@fmt@@U?$decimal_fp@M@dragonbox@detail@23@V?$fallback_digit_grouping@D@623@@detail@23@YA?AV123@V123@AEBU?$decimal_fp@M@dragonbox@523@AEBUformat_specs@23@W4sign@23@Ulocale_ref@523@@Z@@detail@v11@fmt@@YA?AV?$basic_appender@D@12@V312@AEBUformat_specs@12@_K2AEAV<lambda_2>@?4???$do_write_float@DV?$basic_appender@D@v11@fmt@@U?$decimal_fp@M@dragonbox@detail@23@V?$fallback_digit_grouping@D@623@@012@YA?AV312@0AEBU?$decimal_fp@M@dragonbox@012@1W4sign@12@Ulocale_ref@012@@Z@@Z
	??$write_padded@D$01V?$basic_appender@D@v11@fmt@@AEAV<lambda_2>@?4???$do_write_float@DV?$basic_appender@D@v11@fmt@@U?$decimal_fp@M@dragonbox@detail@23@V?$fallback_digit_grouping@D@623@@detail@23@YA?AV123@V123@AEBU?$decimal_fp@M@dragonbox@523@AEBUformat_specs@23@W4sign@23@Ulocale_ref@523@@Z@@detail@v11@fmt@@YA?AV?$basic_appender@D@12@V312@AEBUformat_specs@12@_KAEAV<lambda_2>@?4???$do_write_float@DV?$basic_appender@D@v11@fmt@@U?$decimal_fp@M@dragonbox@detail@23@V?$fallback_digit_grouping@D@623@@012@YA?AV312@0AEBU?$decimal_fp@M@dragonbox@012@1W4sign@12@Ulocale_ref@012@@Z@@Z
	??$write_padded@D$01V?$basic_appender@D@v11@fmt@@AEAV<lambda_2>@?4???$do_write_float@DV?$basic_appender@D@v11@fmt@@U?$decimal_fp@N@dragonbox@detail@23@V?$digit_grouping@D@623@@detail@23@YA?AV123@V123@AEBU?$decimal_fp@N@dragonbox@523@AEBUformat_specs@23@W4sign@23@Ulocale_ref@523@@Z@@detail@v11@fmt@@YA?AV?$basic_appender@D@12@V312@AEBUformat_specs@12@_K2AEAV<lambda_2>@?4???$do_write_float@DV?$basic_appender@D@v11@fmt@@U?$decimal_fp@N@dragonbox@detail@23@V?$digit_grouping@D@623@@012@YA?AV312@0AEBU?$decimal_fp@N@dragonbox@012@1W4sign@12@Ulocale_ref@012@@Z@@Z
	??$write_padded@D$01V?$basic_appender@D@v11@fmt@@AEAV<lambda_2>@?4???$do_write_float@DV?$basic_appender@D@v11@fmt@@U?$decimal_fp@N@dragonbox@detail@23@V?$digit_grouping@D@623@@detail@23@YA?AV123@V123@AEBU?$decimal_fp@N@dragonbox@523@AEBUformat_specs@23@W4sign@23@Ulocale_ref@523@@Z@@detail@v11@fmt@@YA?AV?$basic_appender@D@12@V312@AEBUformat_specs@12@_KAEAV<lambda_2>@?4???$do_write_float@DV?$basic_appender@D@v11@fmt@@U?$decimal_fp@N@dragonbox@detail@23@V?$digit_grouping@D@623@@012@YA?AV312@0AEBU?$decimal_fp@N@dragonbox@012@1W4sign@12@Ulocale_ref@012@@Z@@Z
	??$write_padded@D$01V?$basic_appender@D@v11@fmt@@AEAV<lambda_2>@?4???$do_write_float@DV?$basic_appender@D@v11@fmt@@U?$decimal_fp@N@dragonbox@detail@23@V?$fallback_digit_grouping@D@623@@detail@23@YA?AV123@V123@AEBU?$decimal_fp@N@dragonbox@523@AEBUformat_specs@23@W4sign@23@Ulocale_ref@523@@Z@@detail@v11@fmt@@YA?AV?$basic_appender@D@12@V312@AEBUformat_specs@12@_K2AEAV<lambda_2>@?4???$do_write_float@DV?$basic_appender@D@v11@fmt@@U?$decimal_fp@N@dragonbox@detail@23@V?$fallback_digit_grouping@D@623@@012@YA?AV312@0AEBU?$decimal_fp@N@dragonbox@012@1W4sign@12@Ulocale_ref@012@@Z@@Z
	??$write_padded@D$01V?$basic_appender@D@v11@fmt@@AEAV<lambda_2>@?4???$do_write_float@DV?$basic_appender@D@v11@fmt@@U?$decimal_fp@N@dragonbox@detail@23@V?$fallback_digit_grouping@D@623@@detail@23@YA?AV123@V123@AEBU?$decimal_fp@N@dragonbox@523@AEBUformat_specs@23@W4sign@23@Ulocale_ref@523@@Z@@detail@v11@fmt@@YA?AV?$basic_appender@D@12@V312@AEBUformat_specs@12@_KAEAV<lambda_2>@?4???$do_write_float@DV?$basic_appender@D@v11@fmt@@U?$decimal_fp@N@dragonbox@detail@23@V?$fallback_digit_grouping@D@623@@012@YA?AV312@0AEBU?$decimal_fp@N@dragonbox@012@1W4sign@12@Ulocale_ref@012@@Z@@Z
	??$write_padded@D$01V?$basic_appender@D@v11@fmt@@AEAV<lambda_2>@?4???$do_write_float@DV?$basic_appender@D@v11@fmt@@Ubig_decimal_fp@detail@23@V?$digit_grouping@D@523@@detail@23@YA?AV123@V123@AEBUbig_decimal_fp@523@AEBUformat_specs@23@W4sign@23@Ulocale_ref@523@@Z@@detail@v11@fmt@@YA?AV?$basic_appender@D@12@V312@AEBUformat_specs@12@_K2AEAV<lambda_2>@?4???$do_write_float@DV?$basic_appender@D@v11@fmt@@Ubig_decimal_fp@detail@23@V?$digit_grouping@D@523@@012@YA?AV312@0AEBUbig_decimal_fp@012@1W4sign@12@Ulocale_ref@012@@Z@@Z
	??$write_padded@D$01V?$basic_appender@D@v11@fmt@@AEAV<lambda_2>@?4???$do_write_float@DV?$basic_appender@D@v11@fmt@@Ubig_decimal_fp@detail@23@V?$digit_grouping@D@523@@detail@23@YA?AV123@V123@AEBUbig_decimal_fp@523@AEBUformat_specs@23@W4sign@23@Ulocale_ref@523@@Z@@detail@v11@fmt@@YA?AV?$basic_appender@D@12@V312@AEBUformat_specs@12@_KAEAV<lambda_2>@?4???$do_write_float@DV?$basic_appender@D@v11@fmt@@Ubig_decimal_fp@detail@23@V?$digit_grouping@D@523@@012@YA?AV312@0AEBUbig_decimal_fp@012@1W4sign@12@Ulocale_ref@012@@Z@@Z
	??$write_padded@D$01V?$basic_appender@D@v11@fmt@@AEAV<lambda_2>@?4???$do_write_float@DV?$basic_appender@D@v11@fmt@@Ubig_decimal_fp@detail@23@V?$fallback_digit_grouping@D@523@@detail@23@YA?AV123@V123@AEBUbig_decimal_fp@523@AEBUformat_specs@23@W4sign@23@Ulocale_ref@523@@Z@@detail@v11@fmt@@YA?AV?$basic_appender@D@12@V312@AEBUformat_specs@12@_K2AEAV<lambda_2>@?4???$do_write_float@DV?$basic_appender@D@v11@fmt@@Ubig_decimal_fp@detail@23@V?$fallback_digit_grouping@D@523@@012@YA?AV312@0AEBUbig_decimal_fp@012@1W4sign@12@Ulocale_ref@012@@Z@@Z
	??$write_padded@D$01V?$basic_appender@D@v11@fmt@@AEAV<lambda_2>@?4???$do_write_float@DV?$basic_appender@D@v11@fmt@@Ubig_decimal_fp@detail@23@V?$fallback_digit_grouping@D@523@@detail@23@YA?AV123@V123@AEBUbig_decimal_fp@523@AEBUformat_specs@23@W4sign@23@Ulocale_ref@523@@Z@@detail@v11@fmt@@YA?AV?$basic_appender@D@12@V312@AEBUformat_specs@12@_KAEAV<lambda_2>@?4???$do_write_float@DV?$basic_appender@D@v11@fmt@@Ubig_decimal_fp@detail@23@V?$fallback_digit_grouping@D@523@@012@YA?AV312@0AEBUbig_decimal_fp@012@1W4sign@12@Ulocale_ref@012@@Z@@Z
	??$write_padded@D$01V?$basic_appender@D@v11@fmt@@AEAV<lambda_3>@?BD@???$do_write_float@DV?$basic_appender@D@v11@fmt@@U?$decimal_fp@M@dragonbox@detail@23@V?$digit_grouping@D@623@@detail@23@YA?AV123@V123@AEBU?$decimal_fp@M@dragonbox@523@AEBUformat_specs@23@W4sign@23@Ulocale_ref@523@@Z@@detail@v11@fmt@@YA?AV?$basic_appender@D@12@V312@AEBUformat_specs@12@_K2AEAV<lambda_3>@?BD@???$do_write_float@DV?$basic_appender@D@v11@fmt@@U?$decimal_fp@M@dragonbox@detail@23@V?$digit_grouping@D@623@@012@YA?AV312@0AEBU?$decimal_fp@M@dragonbox@012@1W4sign@12@Ulocale_ref@012@@Z@@Z
	??$write_padded@D$01V?$basic_appender@D@v11@fmt@@AEAV<lambda_3>@?BD@???$do_write_float@DV?$basic_appender@D@v11@fmt@@U?$decimal_fp@M@dragonbox@detail@23@V?$fallback_digit_grouping@D@623@@detail@23@YA?AV123@V123@AEBU?$decimal_fp@M@dragonbox@523@AEBUformat_specs@23@W4sign@23@Ulocale_ref@523@@Z@@detail@v11@fmt@@YA?AV?$basic_appender@D@12@V312@AEBUformat_specs@12@_K2AEAV<lambda_3>@?BD@???$do_write_float@DV?$basic_appender@D@v11@fmt@@U?$decimal_fp@M@dragonbox@detail@23@V?$fallback_digit_grouping@D@623@@012@YA?AV312@0AEBU?$decimal_fp@M@dragonbox@012@1W4sign@12@Ulocale_ref@012@@Z@@Z
	??$write_padded@D$01V?$basic_appender@D@v11@fmt@@AEAV<lambda_3>@?BD@???$do_write_float@DV?$basic_appender@D@v11@fmt@@U?$decimal_fp@N@dragonbox@detail@23@V?$digit_grouping@D@623@@detail@23@YA?AV123@V123@AEBU?$decimal_fp@N@dragonbox@523@AEBUformat_specs@23@W4sign@23@Ulocale_ref@523@@Z@@detail@v11@fmt@@YA?AV?$basic_appender@D@12@V312@AEBUformat_specs@12@_K2AEAV<lambda_3>@?BD@???$do_write_float@DV?$basic_appender@D@v11@fmt@@U?$decimal_fp@N@dragonbox@detail@23@V?$digit_grouping@D@623@@012@YA?AV312@0AEBU?$decimal_fp@N@dragonbox@012@1W4sign@12@Ulocale_ref@012@@Z@@Z
	??$write_padded@D$01V?$basic_appender@D@v11@fmt@@AEAV<lambda_3>@?BD@???$do_write_float@DV?$basic_appender@D@v11@fmt@@U?$decimal_fp@N@dragonbox@detail@23@V?$fallback_digit_grouping@D@623@@detail@23@YA?AV123@V123@AEBU?$decimal_fp@N@dragonbox@523@AEBUformat_specs@23@W4sign@23@Ulocale_ref@523@@Z@@detail@v11@fmt@@YA?AV?$basic_appender@D@12@V312@AEBUformat_specs@12@_K2AEAV<lambda_3>@?BD@???$do_write_float@DV?$basic_appender@D@v11@fmt@@U?$decimal_fp@N@dragonbox@detail@23@V?$fallback_digit_grouping@D@623@@012@YA?AV312@0AEBU?$decimal_fp@N@dragonbox@012@1W4sign@12@Ulocale_ref@012@@Z@@Z
	??$write_padded@D$01V?$basic_appender@D@v11@fmt@@AEAV<lambda_3>@?BD@???$do_write_float@DV?$basic_appender@D@v11@fmt@@Ubig_decimal_fp@detail@23@V?$digit_grouping@D@523@@detail@23@YA?AV123@V123@AEBUbig_decimal_fp@523@AEBUformat_specs@23@W4sign@23@Ulocale_ref@523@@Z@@detail@v11@fmt@@YA?AV?$basic_appender@D@12@V312@AEBUformat_specs@12@_K2AEAV<lambda_3>@?BD@???$do_write_float@DV?$basic_appender@D@v11@fmt@@Ubig_decimal_fp@detail@23@V?$digit_grouping@D@523@@012@YA?AV312@0AEBUbig_decimal_fp@012@1W4sign@12@Ulocale_ref@012@@Z@@Z
	??$write_padded@D$01V?$basic_appender@D@v11@fmt@@AEAV<lambda_3>@?BD@???$do_write_float@DV?$basic_appender@D@v11@fmt@@Ubig_decimal_fp@detail@23@V?$fallback_digit_grouping@D@523@@detail@23@YA?AV123@V123@AEBUbig_decimal_fp@523@AEBUformat_specs@23@W4sign@23@Ulocale_ref@523@@Z@@detail@v11@fmt@@YA?AV?$basic_appender@D@12@V312@AEBUformat_specs@12@_K2AEAV<lambda_3>@?BD@???$do_write_float@DV?$basic_appender@D@v11@fmt@@Ubig_decimal_fp@detail@23@V?$fallback_digit_grouping@D@523@@012@YA?AV312@0AEBUbig_decimal_fp@012@1W4sign@12@Ulocale_ref@012@@Z@@Z
	??$write_padded@D$01V?$basic_appender@D@v11@fmt@@AEAV<lambda_4>@?BO@???$do_write_float@DV?$basic_appender@D@v11@fmt@@U?$decimal_fp@M@dragonbox@detail@23@V?$digit_grouping@D@623@@detail@23@YA?AV123@V123@AEBU?$decimal_fp@M@dragonbox@523@AEBUformat_specs@23@W4sign@23@Ulocale_ref@523@@Z@@detail@v11@fmt@@YA?AV?$basic_appender@D@12@V312@AEBUformat_specs@12@_K2AEAV<lambda_4>@?BO@???$do_write_float@DV?$basic_appender@D@v11@fmt@@U?$decimal_fp@M@dragonbox@detail@23@V?$digit_grouping@D@623@@012@YA?AV312@0AEBU?$decimal_fp@M@dragonbox@012@1W4sign@12@Ulocale_ref@012@@Z@@Z
	??$write_padded@D$01V?$basic_appender@D@v11@fmt@@AEAV<lambda_4>@?BO@???$do_write_float@DV?$basic_appender@D@v11@fmt@@U?$decimal_fp@M@dragonbox@detail@23@V?$fallback_digit_grouping@D@623@@detail@23@YA?AV123@V123@AEBU?$decimal_fp@M@dragonbox@523@AEBUformat_specs@23@W4sign@23@Ulocale_ref@523@@Z@@detail@v11@fmt@@YA?AV?$basic_appender@D@12@V312@AEBUformat_specs@12@_K2AEAV<lambda_4>@?BO@???$do_write_float@DV?$basic_appender@D@v11@fmt@@U?$decimal_fp@M@dragonbox@detail@23@V?$fallback_digit_grouping@D@623@@012@YA?AV312@0AEBU?$decimal_fp@M@dragonbox@012@1W4sign@12@Ulocale_ref@012@@Z@@Z
	??$write_padded@D$01V?$basic_appender@D@v11@fmt@@AEAV<lambda_4>@?BO@???$do_write_float@DV?$basic_appender@D@v11@fmt@@U?$decimal_fp@N@dragonbox@detail@23@V?$digit_grouping@D@623@@detail@23@YA?AV123@V123@AEBU?$decimal_fp@N@dragonbox@523@AEBUformat_specs@23@W4sign@23@Ulocale_ref@523@@Z@@detail@v11@fmt@@YA?AV?$basic_appender@D@12@V312@AEBUformat_specs@12@_K2AEAV<lambda_4>@?BO@???$do_write_float@DV?$basic_appender@D@v11@fmt@@U?$decimal_fp@N@dragonbox@detail@23@V?$digit_grouping@D@623@@012@YA?AV312@0AEBU?$decimal_fp@N@dragonbox@012@1W4sign@12@Ulocale_ref@012@@Z@@Z
	??$write_padded@D$01V?$basic_appender@D@v11@fmt@@AEAV<lambda_4>@?BO@???$do_write_float@DV?$basic_appender@D@v11@fmt@@U?$decimal_fp@N@dragonbox@detail@23@V?$fallback_digit_grouping@D@623@@detail@23@YA?AV123@V123@AEBU?$decimal_fp@N@dragonbox@523@AEBUformat_specs@23@W4sign@23@Ulocale_ref@523@@Z@@detail@v11@fmt@@YA?AV?$basic_appender@D@12@V312@AEBUformat_specs@12@_K2AEAV<lambda_4>@?BO@???$do_write_float@DV?$basic_appender@D@v11@fmt@@U?$decimal_fp@N@dragonbox@detail@23@V?$fallback_digit_grouping@D@623@@012@YA?AV312@0AEBU?$decimal_fp@N@dragonbox@012@1W4sign@12@Ulocale_ref@012@@Z@@Z
	??$write_padded@D$01V?$basic_appender@D@v11@fmt@@AEAV<lambda_4>@?BO@???$do_write_float@DV?$basic_appender@D@v11@fmt@@Ubig_decimal_fp@detail@23@V?$digit_grouping@D@523@@detail@23@YA?AV123@V123@AEBUbig_decimal_fp@523@AEBUformat_specs@23@W4sign@23@Ulocale_ref@523@@Z@@detail@v11@fmt@@YA?AV?$basic_appender@D@12@V312@AEBUformat_specs@12@_K2AEAV<lambda_4>@?BO@???$do_write_float@DV?$basic_appender@D@v11@fmt@@Ubig_decimal_fp@detail@23@V?$digit_grouping@D@523@@012@YA?AV312@0AEBUbig_decimal_fp@012@1W4sign@12@Ulocale_ref@012@@Z@@Z
	??$write_padded@D$01V?$basic_appender@D@v11@fmt@@AEAV<lambda_4>@?BO@???$do_write_float@DV?$basic_appender@D@v11@fmt@@Ubig_decimal_fp@detail@23@V?$fallback_digit_grouping@D@523@@detail@23@YA?AV123@V123@AEBUbig_decimal_fp@523@AEBUformat_specs@23@W4sign@23@Ulocale_ref@523@@Z@@detail@v11@fmt@@YA?AV?$basic_appender@D@12@V312@AEBUformat_specs@12@_K2AEAV<lambda_4>@?BO@???$do_write_float@DV?$basic_appender@D@v11@fmt@@Ubig_decimal_fp@detail@23@V?$fallback_digit_grouping@D@523@@012@YA?AV312@0AEBUbig_decimal_fp@012@1W4sign@12@Ulocale_ref@012@@Z@@Z
	??$write_padded@D$01V?$basic_appender@D@v11@fmt@@AEAV<lambda_5>@?1???$do_write_float@DV?$basic_appender@D@v11@fmt@@U?$decimal_fp@M@dragonbox@detail@23@V?$digit_grouping@D@623@@detail@23@YA?AV123@V123@AEBU?$decimal_fp@M@dragonbox@523@AEBUformat_specs@23@W4sign@23@Ulocale_ref@523@@Z@@detail@v11@fmt@@YA?AV?$basic_appender@D@12@V312@AEBUformat_specs@12@_K2AEAV<lambda_5>@?1???$do_write_float@DV?$basic_appender@D@v11@fmt@@U?$decimal_fp@M@dragonbox@detail@23@V?$digit_grouping@D@623@@012@YA?AV312@0AEBU?$decimal_fp@M@dragonbox@012@1W4sign@12@Ulocale_ref@012@@Z@@Z
	??$write_padded@D$01V?$basic_appender@D@v11@fmt@@AEAV<lambda_5>@?1???$do_write_float@DV?$basic_appender@D@v11@fmt@@U?$decimal_fp@M@dragonbox@detail@23@V?$fallback_digit_grouping@D@623@@detail@23@YA?AV123@V123@AEBU?$decimal_fp@M@dragonbox@523@AEBUformat_specs@23@W4sign@23@Ulocale_ref@523@@Z@@detail@v11@fmt@@YA?AV?$basic_appender@D@12@V312@AEBUformat_specs@12@_K2AEAV<lambda_5>@?1???$do_write_float@DV?$basic_appender@D@v11@fmt@@U?$decimal_fp@M@dragonbox@detail@23@V?$fallback_digit_grouping@D@623@@012@YA?AV312@0AEBU?$decimal_fp@M@dragonbox@012@1W4sign@12@Ulocale_ref@012@@Z@@Z
	??$write_padded@D$01V?$basic_appender@D@v11@fmt@@AEAV<lambda_5>@?1???$do_write_float@DV?$basic_appender@D@v11@fmt@@U?$decimal_fp@N@dragonbox@detail@23@V?$digit_grouping@D@623@@detail@23@YA?AV123@V123@AEBU?$decimal_fp@N@dragonbox@523@AEBUformat_specs@23@W4sign@23@Ulocale_ref@523@@Z@@detail@v11@fmt@@YA?AV?$basic_appender@D@12@V312@AEBUformat_specs@12@_K2AEAV<lambda_5>@?1???$do_write_float@DV?$basic_appender@D@v11@fmt@@U?$decimal_fp@N@dragonbox@detail@23@V?$digit_grouping@D@623@@012@YA?AV312@0AEBU?$decimal_fp@N@dragonbox@012@1W4sign@12@Ulocale_ref@012@@Z@@Z
	??$write_padded@D$01V?$basic_appender@D@v11@fmt@@AEAV<lambda_5>@?1???$do_write_float@DV?$basic_appender@D@v11@fmt@@U?$decimal_fp@N@dragonbox@detail@23@V?$fallback_digit_grouping@D@623@@detail@23@YA?AV123@V123@AEBU?$decimal_fp@N@dragonbox@523@AEBUformat_specs@23@W4sign@23@Ulocale_ref@523@@Z@@detail@v11@fmt@@YA?AV?$basic_appender@D@12@V312@AEBUformat_specs@12@_K2AEAV<lambda_5>@?1???$do_write_float@DV?$basic_appender@D@v11@fmt@@U?$decimal_fp@N@dragonbox@detail@23@V?$fallback_digit_grouping@D@623@@012@YA?AV312@0AEBU?$decimal_fp@N@dragonbox@012@1W4sign@12@Ulocale_ref@012@@Z@@Z
	??$write_padded@D$01V?$basic_appender@D@v11@fmt@@AEAV<lambda_5>@?1???$do_write_float@DV?$basic_appender@D@v11@fmt@@Ubig_decimal_fp@detail@23@V?$digit_grouping@D@523@@detail@23@YA?AV123@V123@AEBUbig_decimal_fp@523@AEBUformat_specs@23@W4sign@23@Ulocale_ref@523@@Z@@detail@v11@fmt@@YA?AV?$basic_appender@D@12@V312@AEBUformat_specs@12@_K2AEAV<lambda_5>@?1???$do_write_float@DV?$basic_appender@D@v11@fmt@@Ubig_decimal_fp@detail@23@V?$digit_grouping@D@523@@012@YA?AV312@0AEBUbig_decimal_fp@012@1W4sign@12@Ulocale_ref@012@@Z@@Z
	??$write_padded@D$01V?$basic_appender@D@v11@fmt@@AEAV<lambda_5>@?1???$do_write_float@DV?$basic_appender@D@v11@fmt@@Ubig_decimal_fp@detail@23@V?$fallback_digit_grouping@D@523@@detail@23@YA?AV123@V123@AEBUbig_decimal_fp@523@AEBUformat_specs@23@W4sign@23@Ulocale_ref@523@@Z@@detail@v11@fmt@@YA?AV?$basic_appender@D@12@V312@AEBUformat_specs@12@_K2AEAV<lambda_5>@?1???$do_write_float@DV?$basic_appender@D@v11@fmt@@Ubig_decimal_fp@detail@23@V?$fallback_digit_grouping@D@523@@012@YA?AV312@0AEBUbig_decimal_fp@012@1W4sign@12@Ulocale_ref@012@@Z@@Z
	??$write_padded@D$01V?$basic_appender@D@v11@fmt@@V<lambda_1>@?1???$write_bytes@D$01V?$basic_appender@D@v11@fmt@@@detail@23@YA?AV123@V123@V?$basic_string_view@D@23@AEBUformat_specs@23@@Z@@detail@v11@fmt@@YA?AV?$basic_appender@D@12@V312@AEBUformat_specs@12@_K$$QEAV<lambda_1>@?1???$write_bytes@D$01V?$basic_appender@D@v11@fmt@@@012@YA?AV312@0V?$basic_string_view@D@12@1@Z@@Z
	??$write_padded@D$01V?$basic_appender@D@v11@fmt@@V<lambda_1>@?1???$write_int@DV?$basic_appender@D@v11@fmt@@I@detail@23@YA?AV123@V123@U?$write_int_arg@I@523@AEBUformat_specs@23@@Z@@detail@v11@fmt@@YA?AV?$basic_appender@D@12@V312@AEBUformat_specs@12@_K$$QEAV<lambda_1>@?1???$write_int@DV?$basic_appender@D@v11@fmt@@I@012@YA?AV312@0U?$write_int_arg@I@012@1@Z@@Z
	??$write_padded@D$01V?$basic_appender@D@v11@fmt@@V<lambda_1>@?1???$write_int@DV?$basic_appender@D@v11@fmt@@_K@detail@23@YA?AV123@V123@U?$write_int_arg@_K@523@AEBUformat_specs@23@@Z@@detail@v11@fmt@@YA?AV?$basic_appender@D@12@V312@AEBUformat_specs@12@_K$$QEAV<lambda_1>@?1???$write_int@DV?$basic_appender@D@v11@fmt@@_K@012@YA?AV312@0U?$write_int_arg@_K@012@1@Z@@Z
	??$write_padded@D$01V?$basic_appender@D@v11@fmt@@V<lambda_1>@?1???$write_int@V?$basic_appender@D@v11@fmt@@_KD@detail@23@YA?AV123@V123@_KIAEBUformat_specs@23@AEBV?$digit_grouping@D@523@@Z@@detail@v11@fmt@@YA?AV?$basic_appender@D@12@V312@AEBUformat_specs@12@_K2$$QEAV<lambda_1>@?1???$write_int@V?$basic_appender@D@v11@fmt@@_KD@012@YA?AV312@02I1AEBV?$digit_grouping@D@012@@Z@@Z
	??$write_padded@D$01V?$basic_appender@D@v11@fmt@@V<lambda_3>@?BD@???$do_write_float@DV?$basic_appender@D@v11@fmt@@U?$decimal_fp@M@dragonbox@detail@23@V?$digit_grouping@D@623@@detail@23@YA?AV123@V123@AEBU?$decimal_fp@M@dragonbox@523@AEBUformat_specs@23@W4sign@23@Ulocale_ref@523@@Z@@detail@v11@fmt@@YA?AV?$basic_appender@D@12@V312@AEBUformat_specs@12@_K$$QEAV<lambda_3>@?BD@???$do_write_float@DV?$basic_appender@D@v11@fmt@@U?$decimal_fp@M@dragonbox@detail@23@V?$digit_grouping@D@623@@012@YA?AV312@0AEBU?$decimal_fp@M@dragonbox@012@1W4sign@12@Ulocale_ref@012@@Z@@Z
	??$write_padded@D$01V?$basic_appender@D@v11@fmt@@V<lambda_3>@?BD@???$do_write_float@DV?$basic_appender@D@v11@fmt@@U?$decimal_fp@M@dragonbox@detail@23@V?$fallback_digit_grouping@D@623@@detail@23@YA?AV123@V123@AEBU?$decimal_fp@M@dragonbox@523@AEBUformat_specs@23@W4sign@23@Ulocale_ref@523@@Z@@detail@v11@fmt@@YA?AV?$basic_appender@D@12@V312@AEBUformat_specs@12@_K$$QEAV<lambda_3>@?BD@???$do_write_float@DV?$basic_appender@D@v11@fmt@@U?$decimal_fp@M@dragonbox@detail@23@V?$fallback_digit_grouping@D@623@@012@YA?AV312@0AEBU?$decimal_fp@M@dragonbox@012@1W4sign@12@Ulocale_ref@012@@Z@@Z
	??$write_padded@D$01V?$basic_appender@D@v11@fmt@@V<lambda_3>@?BD@???$do_write_float@DV?$basic_appender@D@v11@fmt@@U?$decimal_fp@N@dragonbox@detail@23@V?$digit_grouping@D@623@@detail@23@YA?AV123@V123@AEBU?$decimal_fp@N@dragonbox@523@AEBUformat_specs@23@W4sign@23@Ulocale_ref@523@@Z@@detail@v11@fmt@@YA?AV?$basic_appender@D@12@V312@AEBUformat_specs@12@_K$$QEAV<lambda_3>@?BD@???$do_write_float@DV?$basic_appender@D@v11@fmt@@U?$decimal_fp@N@dragonbox@detail@23@V?$digit_grouping@D@623@@012@YA?AV312@0AEBU?$decimal_fp@N@dragonbox@012@1W4sign@12@Ulocale_ref@012@@Z@@Z
	??$write_padded@D$01V?$basic_appender@D@v11@fmt@@V<lambda_3>@?BD@???$do_write_float@DV?$basic_appender@D@v11@fmt@@U?$decimal_fp@N@dragonbox@detail@23@V?$fallback_digit_grouping@D@623@@detail@23@YA?AV123@V123@AEBU?$decimal_fp@N@dragonbox@523@AEBUformat_specs@23@W4sign@23@Ulocale_ref@523@@Z@@detail@v11@fmt@@YA?AV?$basic_appender@D@12@V312@AEBUformat_specs@12@_K$$QEAV<lambda_3>@?BD@???$do_write_float@DV?$basic_appender@D@v11@fmt@@U?$decimal_fp@N@dragonbox@detail@23@V?$fallback_digit_grouping@D@623@@012@YA?AV312@0AEBU?$decimal_fp@N@dragonbox@012@1W4sign@12@Ulocale_ref@012@@Z@@Z
	??$write_padded@D$01V?$basic_appender@D@v11@fmt@@V<lambda_3>@?BD@???$do_write_float@DV?$basic_appender@D@v11@fmt@@Ubig_decimal_fp@detail@23@V?$digit_grouping@D@523@@detail@23@YA?AV123@V123@AEBUbig_decimal_fp@523@AEBUformat_specs@23@W4sign@23@Ulocale_ref@523@@Z@@detail@v11@fmt@@YA?AV?$basic_appender@D@12@V312@AEBUformat_specs@12@_K$$QEAV<lambda_3>@?BD@???$do_write_float@DV?$basic_appender@D@v11@fmt@@Ubig_decimal_fp@detail@23@V?$digit_grouping@D@523@@012@YA?AV312@0AEBUbig_decimal_fp@012@1W4sign@12@Ulocale_ref@012@@Z@@Z
	??$write_padded@D$01V?$basic_appender@D@v11@fmt@@V<lambda_3>@?BD@???$do_write_float@DV?$basic_appender@D@v11@fmt@@Ubig_decimal_fp@detail@23@V?$fallback_digit_grouping@D@523@@detail@23@YA?AV123@V123@AEBUbig_decimal_fp@523@AEBUformat_specs@23@W4sign@23@Ulocale_ref@523@@Z@@detail@v11@fmt@@YA?AV?$basic_appender@D@12@V312@AEBUformat_specs@12@_K$$QEAV<lambda_3>@?BD@???$do_write_float@DV?$basic_appender@D@v11@fmt@@Ubig_decimal_fp@detail@23@V?$fallback_digit_grouping@D@523@@012@YA?AV312@0AEBUbig_decimal_fp@012@1W4sign@12@Ulocale_ref@012@@Z@@Z
	??$write_padded@D$01V?$basic_appender@D@v11@fmt@@V<lambda_4>@?BO@???$do_write_float@DV?$basic_appender@D@v11@fmt@@U?$decimal_fp@M@dragonbox@detail@23@V?$digit_grouping@D@623@@detail@23@YA?AV123@V123@AEBU?$decimal_fp@M@dragonbox@523@AEBUformat_specs@23@W4sign@23@Ulocale_ref@523@@Z@@detail@v11@fmt@@YA?AV?$basic_appender@D@12@V312@AEBUformat_specs@12@_K$$QEAV<lambda_4>@?BO@???$do_write_float@DV?$basic_appender@D@v11@fmt@@U?$decimal_fp@M@dragonbox@detail@23@V?$digit_grouping@D@623@@012@YA?AV312@0AEBU?$decimal_fp@M@dragonbox@012@1W4sign@12@Ulocale_ref@012@@Z@@Z
	??$write_padded@D$01V?$basic_appender@D@v11@fmt@@V<lambda_4>@?BO@???$do_write_float@DV?$basic_appender@D@v11@fmt@@U?$decimal_fp@M@dragonbox@detail@23@V?$fallback_digit_grouping@D@623@@detail@23@YA?AV123@V123@AEBU?$decimal_fp@M@dragonbox@523@AEBUformat_specs@23@W4sign@23@Ulocale_ref@523@@Z@@detail@v11@fmt@@YA?AV?$basic_appender@D@12@V312@AEBUformat_specs@12@_K$$QEAV<lambda_4>@?BO@???$do_write_float@DV?$basic_appender@D@v11@fmt@@U?$decimal_fp@M@dragonbox@detail@23@V?$fallback_digit_grouping@D@623@@012@YA?AV312@0AEBU?$decimal_fp@M@dragonbox@012@1W4sign@12@Ulocale_ref@012@@Z@@Z
	??$write_padded@D$01V?$basic_appender@D@v11@fmt@@V<lambda_4>@?BO@???$do_write_float@DV?$basic_appender@D@v11@fmt@@U?$decimal_fp@N@dragonbox@detail@23@V?$digit_grouping@D@623@@detail@23@YA?AV123@V123@AEBU?$decimal_fp@N@dragonbox@523@AEBUformat_specs@23@W4sign@23@Ulocale_ref@523@@Z@@detail@v11@fmt@@YA?AV?$basic_appender@D@12@V312@AEBUformat_specs@12@_K$$QEAV<lambda_4>@?BO@???$do_write_float@DV?$basic_appender@D@v11@fmt@@U?$decimal_fp@N@dragonbox@detail@23@V?$digit_grouping@D@623@@012@YA?AV312@0AEBU?$decimal_fp@N@dragonbox@012@1W4sign@12@Ulocale_ref@012@@Z@@Z
	??$write_padded@D$01V?$basic_appender@D@v11@fmt@@V<lambda_4>@?BO@???$do_write_float@DV?$basic_appender@D@v11@fmt@@U?$decimal_fp@N@dragonbox@detail@23@V?$fallback_digit_grouping@D@623@@detail@23@YA?AV123@V123@AEBU?$decimal_fp@N@dragonbox@523@AEBUformat_specs@23@W4sign@23@Ulocale_ref@523@@Z@@detail@v11@fmt@@YA?AV?$basic_appender@D@12@V312@AEBUformat_specs@12@_K$$QEAV<lambda_4>@?BO@???$do_write_float@DV?$basic_appender@D@v11@fmt@@U?$decimal_fp@N@dragonbox@detail@23@V?$fallback_digit_grouping@D@623@@012@YA?AV312@0AEBU?$decimal_fp@N@dragonbox@012@1W4sign@12@Ulocale_ref@012@@Z@@Z
	??$write_padded@D$01V?$basic_appender@D@v11@fmt@@V<lambda_4>@?BO@???$do_write_float@DV?$basic_appender@D@v11@fmt@@Ubig_decimal_fp@detail@23@V?$digit_grouping@D@523@@detail@23@YA?AV123@V123@AEBUbig_decimal_fp@523@AEBUformat_specs@23@W4sign@23@Ulocale_ref@523@@Z@@detail@v11@fmt@@YA?AV?$basic_appender@D@12@V312@AEBUformat_specs@12@_K$$QEAV<lambda_4>@?BO@???$do_write_float@DV?$basic_appender@D@v11@fmt@@Ubig_decimal_fp@detail@23@V?$digit_grouping@D@523@@012@YA?AV312@0AEBUbig_decimal_fp@012@1W4sign@12@Ulocale_ref@012@@Z@@Z
	??$write_padded@D$01V?$basic_appender@D@v11@fmt@@V<lambda_4>@?BO@???$do_write_float@DV?$basic_appender@D@v11@fmt@@Ubig_decimal_fp@detail@23@V?$fallback_digit_grouping@D@523@@detail@23@YA?AV123@V123@AEBUbig_decimal_fp@523@AEBUformat_specs@23@W4sign@23@Ulocale_ref@523@@Z@@detail@v11@fmt@@YA?AV?$basic_appender@D@12@V312@AEBUformat_specs@12@_K$$QEAV<lambda_4>@?BO@???$do_write_float@DV?$basic_appender@D@v11@fmt@@Ubig_decimal_fp@detail@23@V?$fallback_digit_grouping@D@523@@012@YA?AV312@0AEBUbig_decimal_fp@012@1W4sign@12@Ulocale_ref@012@@Z@@Z
	??$write_padded@D$01V?$basic_appender@D@v11@fmt@@V<lambda_5>@?1???$do_write_float@DV?$basic_appender@D@v11@fmt@@U?$decimal_fp@M@dragonbox@detail@23@V?$digit_grouping@D@623@@detail@23@YA?AV123@V123@AEBU?$decimal_fp@M@dragonbox@523@AEBUformat_specs@23@W4sign@23@Ulocale_ref@523@@Z@@detail@v11@fmt@@YA?AV?$basic_appender@D@12@V312@AEBUformat_specs@12@_K$$QEAV<lambda_5>@?1???$do_write_float@DV?$basic_appender@D@v11@fmt@@U?$decimal_fp@M@dragonbox@detail@23@V?$digit_grouping@D@623@@012@YA?AV312@0AEBU?$decimal_fp@M@dragonbox@012@1W4sign@12@Ulocale_ref@012@@Z@@Z
	??$write_padded@D$01V?$basic_appender@D@v11@fmt@@V<lambda_5>@?1???$do_write_float@DV?$basic_appender@D@v11@fmt@@U?$decimal_fp@M@dragonbox@detail@23@V?$fallback_digit_grouping@D@623@@detail@23@YA?AV123@V123@AEBU?$decimal_fp@M@dragonbox@523@AEBUformat_specs@23@W4sign@23@Ulocale_ref@523@@Z@@detail@v11@fmt@@YA?AV?$basic_appender@D@12@V312@AEBUformat_specs@12@_K$$QEAV<lambda_5>@?1???$do_write_float@DV?$basic_appender@D@v11@fmt@@U?$decimal_fp@M@dragonbox@detail@23@V?$fallback_digit_grouping@D@623@@012@YA?AV312@0AEBU?$decimal_fp@M@dragonbox@012@1W4sign@12@Ulocale_ref@012@@Z@@Z
	??$write_padded@D$01V?$basic_appender@D@v11@fmt@@V<lambda_5>@?1???$do_write_float@DV?$basic_appender@D@v11@fmt@@U?$decimal_fp@N@dragonbox@detail@23@V?$digit_grouping@D@623@@detail@23@YA?AV123@V123@AEBU?$decimal_fp@N@dragonbox@523@AEBUformat_specs@23@W4sign@23@Ulocale_ref@523@@Z@@detail@v11@fmt@@YA?AV?$basic_appender@D@12@V312@AEBUformat_specs@12@_K$$QEAV<lambda_5>@?1???$do_write_float@DV?$basic_appender@D@v11@fmt@@U?$decimal_fp@N@dragonbox@detail@23@V?$digit_grouping@D@623@@012@YA?AV312@0AEBU?$decimal_fp@N@dragonbox@012@1W4sign@12@Ulocale_ref@012@@Z@@Z
	??$write_padded@D$01V?$basic_appender@D@v11@fmt@@V<lambda_5>@?1???$do_write_float@DV?$basic_appender@D@v11@fmt@@U?$decimal_fp@N@dragonbox@detail@23@V?$fallback_digit_grouping@D@623@@detail@23@YA?AV123@V123@AEBU?$decimal_fp@N@dragonbox@523@AEBUformat_specs@23@W4sign@23@Ulocale_ref@523@@Z@@detail@v11@fmt@@YA?AV?$basic_appender@D@12@V312@AEBUformat_specs@12@_K$$QEAV<lambda_5>@?1???$do_write_float@DV?$basic_appender@D@v11@fmt@@U?$decimal_fp@N@dragonbox@detail@23@V?$fallback_digit_grouping@D@623@@012@YA?AV312@0AEBU?$decimal_fp@N@dragonbox@012@1W4sign@12@Ulocale_ref@012@@Z@@Z
	??$write_padded@D$01V?$basic_appender@D@v11@fmt@@V<lambda_5>@?1???$do_write_float@DV?$basic_appender@D@v11@fmt@@Ubig_decimal_fp@detail@23@V?$digit_grouping@D@523@@detail@23@YA?AV123@V123@AEBUbig_decimal_fp@523@AEBUformat_specs@23@W4sign@23@Ulocale_ref@523@@Z@@detail@v11@fmt@@YA?AV?$basic_appender@D@12@V312@AEBUformat_specs@12@_K$$QEAV<lambda_5>@?1???$do_write_float@DV?$basic_appender@D@v11@fmt@@Ubig_decimal_fp@detail@23@V?$digit_grouping@D@523@@012@YA?AV312@0AEBUbig_decimal_fp@012@1W4sign@12@Ulocale_ref@012@@Z@@Z
	??$write_padded@D$01V?$basic_appender@D@v11@fmt@@V<lambda_5>@?1???$do_write_float@DV?$basic_appender@D@v11@fmt@@Ubig_decimal_fp@detail@23@V?$fallback_digit_grouping@D@523@@detail@23@YA?AV123@V123@AEBUbig_decimal_fp@523@AEBUformat_specs@23@W4sign@23@Ulocale_ref@523@@Z@@detail@v11@fmt@@YA?AV?$basic_appender@D@12@V312@AEBUformat_specs@12@_K$$QEAV<lambda_5>@?1???$do_write_float@DV?$basic_appender@D@v11@fmt@@Ubig_decimal_fp@detail@23@V?$fallback_digit_grouping@D@523@@012@YA?AV312@0AEBUbig_decimal_fp@012@1W4sign@12@Ulocale_ref@012@@Z@@Z
	??$write_ptr@DV?$basic_appender@D@v11@fmt@@_K@detail@v11@fmt@@YA?AV?$basic_appender@D@12@V312@_KPEBUformat_specs@12@@Z
	??$write_significand@DI$0A@@detail@v11@fmt@@YAPEADPEADIHHD@Z
	??$write_significand@DV?$basic_appender@D@v11@fmt@@@detail@v11@fmt@@YA?AV?$basic_appender@D@12@V312@PEBDH@Z
	??$write_significand@DV?$basic_appender@D@v11@fmt@@I@detail@v11@fmt@@YA?AV?$basic_appender@D@12@V312@IH@Z
	??$write_significand@DV?$basic_appender@D@v11@fmt@@IV?$digit_grouping@D@detail@23@@detail@v11@fmt@@YA?AV?$basic_appender@D@12@V312@IHHAEBV?$digit_grouping@D@012@@Z
	??$write_significand@DV?$basic_appender@D@v11@fmt@@IV?$fallback_digit_grouping@D@detail@23@@detail@v11@fmt@@YA?AV?$basic_appender@D@12@V312@IHHAEBV?$fallback_digit_grouping@D@012@@Z
	??$write_significand@DV?$basic_appender@D@v11@fmt@@PEBDV?$digit_grouping@D@detail@23@@detail@v11@fmt@@YA?AV?$basic_appender@D@12@V312@PEBDHHAEBV?$digit_grouping@D@012@@Z
	??$write_significand@DV?$basic_appender@D@v11@fmt@@PEBDV?$fallback_digit_grouping@D@detail@23@@detail@v11@fmt@@YA?AV?$basic_appender@D@12@V312@PEBDHHAEBV?$fallback_digit_grouping@D@012@@Z
	??$write_significand@DV?$basic_appender@D@v11@fmt@@_K@detail@v11@fmt@@YA?AV?$basic_appender@D@12@V312@_KH@Z
	??$write_significand@DV?$basic_appender@D@v11@fmt@@_KV?$digit_grouping@D@detail@23@@detail@v11@fmt@@YA?AV?$basic_appender@D@12@V312@_KHHAEBV?$digit_grouping@D@012@@Z
	??$write_significand@DV?$basic_appender@D@v11@fmt@@_KV?$fallback_digit_grouping@D@detail@23@@detail@v11@fmt@@YA?AV?$basic_appender@D@12@V312@_KHHAEBV?$fallback_digit_grouping@D@012@@Z
	??$write_significand@D_K$0A@@detail@v11@fmt@@YAPEADPEAD_KHHD@Z
	??$write_significand@V?$basic_appender@D@v11@fmt@@D@detail@v11@fmt@@YA?AV?$basic_appender@D@12@V312@PEBDHHD@Z
	??$write_significand@V?$basic_appender@D@v11@fmt@@DIV?$digit_grouping@D@detail@23@@detail@v11@fmt@@YA?AV?$basic_appender@D@12@V312@IHHDAEBV?$digit_grouping@D@012@@Z
	??$write_significand@V?$basic_appender@D@v11@fmt@@DIV?$fallback_digit_grouping@D@detail@23@@detail@v11@fmt@@YA?AV?$basic_appender@D@12@V312@IHHDAEBV?$fallback_digit_grouping@D@012@@Z
	??$write_significand@V?$basic_appender@D@v11@fmt@@DPEBDV?$digit_grouping@D@detail@23@@detail@v11@fmt@@YA?AV?$basic_appender@D@12@V312@PEBDHHDAEBV?$digit_grouping@D@012@@Z
	??$write_significand@V?$basic_appender@D@v11@fmt@@DPEBDV?$fallback_digit_grouping@D@detail@23@@detail@v11@fmt@@YA?AV?$basic_appender@D@12@V312@PEBDHHDAEBV?$fallback_digit_grouping@D@012@@Z
	??$write_significand@V?$basic_appender@D@v11@fmt@@D_KV?$digit_grouping@D@detail@23@@detail@v11@fmt@@YA?AV?$basic_appender@D@12@V312@_KHHDAEBV?$digit_grouping@D@012@@Z
	??$write_significand@V?$basic_appender@D@v11@fmt@@D_KV?$fallback_digit_grouping@D@detail@23@@detail@v11@fmt@@YA?AV?$basic_appender@D@12@V312@_KHHDAEBV?$fallback_digit_grouping@D@012@@Z
	??$write_significand@V?$basic_appender@D@v11@fmt@@ID$0A@@detail@v11@fmt@@YA?AV?$basic_appender@D@12@V312@IHHD@Z
	??$write_significand@V?$basic_appender@D@v11@fmt@@_KD$0A@@detail@v11@fmt@@YA?AV?$basic_appender@D@12@V312@_KHHD@Z
	??0<lambda_1>@?1???$do_write_float@DV?$basic_appender@D@v11@fmt@@U?$decimal_fp@M@dragonbox@detail@23@V?$digit_grouping@D@623@@detail@v11@fmt@@YA?AV?$basic_appender@D@23@V423@AEBU?$decimal_fp@M@dragonbox@123@AEBUformat_specs@23@W4sign@23@Ulocale_ref@123@@Z@QEAA@2AEBH@Z
	??0<lambda_1>@?1???$do_write_float@DV?$basic_appender@D@v11@fmt@@U?$decimal_fp@M@dragonbox@detail@23@V?$fallback_digit_grouping@D@623@@detail@v11@fmt@@YA?AV?$basic_appender@D@23@V423@AEBU?$decimal_fp@M@dragonbox@123@AEBUformat_specs@23@W4sign@23@Ulocale_ref@123@@Z@QEAA@2AEBH@Z
	??0<lambda_1>@?1???$do_write_float@DV?$basic_appender@D@v11@fmt@@U?$decimal_fp@N@dragonbox@detail@23@V?$digit_grouping@D@623@@detail@v11@fmt@@YA?AV?$basic_appender@D@23@V423@AEBU?$decimal_fp@N@dragonbox@123@AEBUformat_specs@23@W4sign@23@Ulocale_ref@123@@Z@QEAA@2AEBH@Z
	??0<lambda_1>@?1???$do_write_float@DV?$basic_appender@D@v11@fmt@@U?$decimal_fp@N@dragonbox@detail@23@V?$fallback_digit_grouping@D@623@@detail@v11@fmt@@YA?AV?$basic_appender@D@23@V423@AEBU?$decimal_fp@N@dragonbox@123@AEBUformat_specs@23@W4sign@23@Ulocale_ref@123@@Z@QEAA@2AEBH@Z
	??0<lambda_1>@?1???$do_write_float@DV?$basic_appender@D@v11@fmt@@Ubig_decimal_fp@detail@23@V?$digit_grouping@D@523@@detail@v11@fmt@@YA?AV?$basic_appender@D@23@V423@AEBUbig_decimal_fp@123@AEBUformat_specs@23@W4sign@23@Ulocale_ref@123@@Z@QEAA@2AEBH@Z
	??0<lambda_1>@?1???$do_write_float@DV?$basic_appender@D@v11@fmt@@Ubig_decimal_fp@detail@23@V?$fallback_digit_grouping@D@523@@detail@v11@fmt@@YA?AV?$basic_appender@D@23@V423@AEBUbig_decimal_fp@123@AEBUformat_specs@23@W4sign@23@Ulocale_ref@123@@Z@QEAA@2AEBH@Z
	??0<lambda_1>@?1???$for_each_codepoint@Ucount_code_points@?1??compute_width@detail@v11@fmt@@YA_KV?$basic_string_view@D@45@@Z@@detail@v11@fmt@@YAXV?$basic_string_view@D@23@Ucount_code_points@?1??compute_width@123@YA_K0@Z@@Z@QEAA@AEBU5?1??6123@YA_K0@Z@@Z
	??0<lambda_1>@?1???$for_each_codepoint@V<lambda_1>@?1??code_point_index@detail@v11@fmt@@YA_KV?$basic_string_view@D@45@_K@Z@@detail@v11@fmt@@YAXV?$basic_string_view@D@23@V0?1??code_point_index@123@YA_K0_K@Z@@Z@QEAA@AEBV0?1??5123@YA_K01@Z@@Z
	??0<lambda_1>@?1???$for_each_codepoint@V<lambda_1>@?1??find_escape@detail@v11@fmt@@YA?AU?$find_escape_result@D@345@PEBD0@Z@@detail@v11@fmt@@YAXV?$basic_string_view@D@23@V0?1??find_escape@123@YA?AU?$find_escape_result@D@123@PEBD1@Z@@Z@QEAA@AEBV0?1??5123@YA?AU6123@11@Z@@Z
	??0<lambda_1>@?1???$write@DV?$basic_appender@D@v11@fmt@@@detail@v11@fmt@@YA?AV?$basic_appender@D@23@V423@V?$basic_string_view@D@23@AEBUformat_specs@23@@Z@QEAA@AEB_NAEBV523@AEBQEBDAEB_K@Z
	??0<lambda_1>@?1???$write_bytes@D$00V?$basic_appender@D@v11@fmt@@@detail@v11@fmt@@YA?AV?$basic_appender@D@23@V423@V?$basic_string_view@D@23@AEBUformat_specs@23@@Z@QEAA@AEBV523@@Z
	??0<lambda_1>@?1???$write_bytes@D$01V?$basic_appender@D@v11@fmt@@@detail@v11@fmt@@YA?AV?$basic_appender@D@23@V423@V?$basic_string_view@D@23@AEBUformat_specs@23@@Z@QEAA@AEBV523@@Z
	??0<lambda_1>@?1???$write_char@DV?$basic_appender@D@v11@fmt@@@detail@v11@fmt@@YA?AV?$basic_appender@D@23@V423@DAEBUformat_specs@23@@Z@QEAA@AEB_NAEBD@Z
	??0<lambda_1>@?1???$write_int@DV?$basic_appender@D@v11@fmt@@I@detail@v11@fmt@@YA?AV?$basic_appender@D@23@V423@U?$write_int_arg@I@123@AEBUformat_specs@23@@Z@QEAA@AEBI3AEBQEBD4@Z
	??0<lambda_1>@?1???$write_int@DV?$basic_appender@D@v11@fmt@@_K@detail@v11@fmt@@YA?AV?$basic_appender@D@23@V423@U?$write_int_arg@_K@123@AEBUformat_specs@23@@Z@QEAA@AEBI3AEBQEBD4@Z
	??0<lambda_1>@?1???$write_int@V?$basic_appender@D@v11@fmt@@_KD@detail@v11@fmt@@YA?AV?$basic_appender@D@23@V423@_KIAEBUformat_specs@23@AEBV?$digit_grouping@D@123@@Z@QEAA@AEAI3AEAV?$basic_memory_buffer@D$0BPE@U?$allocator@D@detail@v11@fmt@@@23@@Z
	??0<lambda_1>@?1???$write_nonfinite@DV?$basic_appender@D@v11@fmt@@@detail@v11@fmt@@YA?AV?$basic_appender@D@23@V423@_NUformat_specs@23@W4sign@23@@Z@QEAA@AEBW4623@AEBQEBD@Z
	??0<lambda_1>@?1???$write_ptr@DV?$basic_appender@D@v11@fmt@@_K@detail@v11@fmt@@YA?AV?$basic_appender@D@23@V423@_KPEBUformat_specs@23@@Z@QEAA@AEB_KAEBH@Z
	??0<lambda_1>@?1??code_point_index@detail@v11@fmt@@YA_KV?$basic_string_view@D@34@_K@Z@QEAA@AEBQEBDAEA_K3@Z
	??0<lambda_1>@?1??find_escape@detail@v11@fmt@@YA?AU?$find_escape_result@D@234@PEBD0@Z@QEAA@AEAU5234@@Z
	??0<lambda_1>@?CO@???$format_float@N@detail@v11@fmt@@YAHNHAEBUformat_specs@23@_NAEAV?$buffer@D@123@@Z@QEAA@AEAHAEA_KAEAI@Z
	??0<lambda_2>@?4???$do_write_float@DV?$basic_appender@D@v11@fmt@@U?$decimal_fp@M@dragonbox@detail@23@V?$digit_grouping@D@623@@detail@v11@fmt@@YA?AV?$basic_appender@D@23@V423@AEBU?$decimal_fp@M@dragonbox@123@AEBUformat_specs@23@W4sign@23@Ulocale_ref@123@@Z@QEAA@AEBW4823@AEBIAEBHAEBD7887@Z
	??0<lambda_2>@?4???$do_write_float@DV?$basic_appender@D@v11@fmt@@U?$decimal_fp@M@dragonbox@detail@23@V?$fallback_digit_grouping@D@623@@detail@v11@fmt@@YA?AV?$basic_appender@D@23@V423@AEBU?$decimal_fp@M@dragonbox@123@AEBUformat_specs@23@W4sign@23@Ulocale_ref@123@@Z@QEAA@AEBW4823@AEBIAEBHAEBD7887@Z
	??0<lambda_2>@?4???$do_write_float@DV?$basic_appender@D@v11@fmt@@U?$decimal_fp@N@dragonbox@detail@23@V?$digit_grouping@D@623@@detail@v11@fmt@@YA?AV?$basic_appender@D@23@V423@AEBU?$decimal_fp@N@dragonbox@123@AEBUformat_specs@23@W4sign@23@Ulocale_ref@123@@Z@QEAA@AEBW4823@AEB_KAEBHAEBD7887@Z
	??0<lambda_2>@?4???$do_write_float@DV?$basic_appender@D@v11@fmt@@U?$decimal_fp@N@dragonbox@detail@23@V?$fallback_digit_grouping@D@623@@detail@v11@fmt@@YA?AV?$basic_appender@D@23@V423@AEBU?$decimal_fp@N@dragonbox@123@AEBUformat_specs@23@W4sign@23@Ulocale_ref@123@@Z@QEAA@AEBW4823@AEB_KAEBHAEBD7887@Z
	??0<lambda_2>@?4???$do_write_float@DV?$basic_appender@D@v11@fmt@@Ubig_decimal_fp@detail@23@V?$digit_grouping@D@523@@detail@v11@fmt@@YA?AV?$basic_appender@D@23@V423@AEBUbig_decimal_fp@123@AEBUformat_specs@23@W4sign@23@Ulocale_ref@123@@Z@QEAA@AEBW4723@AEBQEBDAEBHAEBD7887@Z
	??0<lambda_2>@?4???$do_write_float@DV?$basic_appender@D@v11@fmt@@Ubig_decimal_fp@detail@23@V?$fallback_digit_grouping@D@523@@detail@v11@fmt@@YA?AV?$basic_appender@D@23@V423@AEBUbig_decimal_fp@123@AEBUformat_specs@23@W4sign@23@Ulocale_ref@123@@Z@QEAA@AEBW4723@AEBQEBDAEBHAEBD7887@Z
	??0<lambda_3>@?BD@???$do_write_float@DV?$basic_appender@D@v11@fmt@@U?$decimal_fp@M@dragonbox@detail@23@V?$digit_grouping@D@623@@detail@v11@fmt@@YA?AV?$basic_appender@D@23@V423@AEBU?$decimal_fp@M@dragonbox@123@AEBUformat_specs@23@W4sign@23@Ulocale_ref@123@@Z@QEAA@AEAW4823@AEAIAEAH1AEAV?$digit_grouping@D@123@2AEAD7AEBD@Z
	??0<lambda_3>@?BD@???$do_write_float@DV?$basic_appender@D@v11@fmt@@U?$decimal_fp@M@dragonbox@detail@23@V?$fallback_digit_grouping@D@623@@detail@v11@fmt@@YA?AV?$basic_appender@D@23@V423@AEBU?$decimal_fp@M@dragonbox@123@AEBUformat_specs@23@W4sign@23@Ulocale_ref@123@@Z@QEAA@AEAW4823@AEAIAEAH1AEAV?$fallback_digit_grouping@D@123@2AEAD7AEBD@Z
	??0<lambda_3>@?BD@???$do_write_float@DV?$basic_appender@D@v11@fmt@@U?$decimal_fp@N@dragonbox@detail@23@V?$digit_grouping@D@623@@detail@v11@fmt@@YA?AV?$basic_appender@D@23@V423@AEBU?$decimal_fp@N@dragonbox@123@AEBUformat_specs@23@W4sign@23@Ulocale_ref@123@@Z@QEAA@AEAW4823@AEA_KAEAH1AEAV?$digit_grouping@D@123@2AEAD7AEBD@Z
	??0<lambda_3>@?BD@???$do_write_float@DV?$basic_appender@D@v11@fmt@@U?$decimal_fp@N@dragonbox@detail@23@V?$fallback_digit_grouping@D@623@@detail@v11@fmt@@YA?AV?$basic_appender@D@23@V423@AEBU?$decimal_fp@N@dragonbox@123@AEBUformat_specs@23@W4sign@23@Ulocale_ref@123@@Z@QEAA@AEAW4823@AEA_KAEAH1AEAV?$fallback_digit_grouping@D@123@2AEAD7AEBD@Z
	??0<lambda_3>@?BD@???$do_write_float@DV?$basic_appender@D@v11@fmt@@Ubig_decimal_fp@detail@23@V?$digit_grouping@D@523@@detail@v11@fmt@@YA?AV?$basic_appender@D@23@V423@AEBUbig_decimal_fp@123@AEBUformat_specs@23@W4sign@23@Ulocale_ref@123@@Z@QEAA@AEAW4723@AEAPEBDAEAH1AEAV?$digit_grouping@D@123@2AEAD7AEBD@Z
	??0<lambda_3>@?BD@???$do_write_float@DV?$basic_appender@D@v11@fmt@@Ubig_decimal_fp@detail@23@V?$fallback_digit_grouping@D@523@@detail@v11@fmt@@YA?AV?$basic_appender@D@23@V423@AEBUbig_decimal_fp@123@AEBUformat_specs@23@W4sign@23@Ulocale_ref@123@@Z@QEAA@AEAW4723@AEAPEBDAEAH1AEAV?$fallback_digit_grouping@D@123@2AEAD7AEBD@Z
	??0<lambda_4>@?BO@???$do_write_float@DV?$basic_appender@D@v11@fmt@@U?$decimal_fp@M@dragonbox@detail@23@V?$digit_grouping@D@623@@detail@v11@fmt@@YA?AV?$basic_appender@D@23@V423@AEBU?$decimal_fp@M@dragonbox@123@AEBUformat_specs@23@W4sign@23@Ulocale_ref@123@@Z@QEAA@AEAW4823@AEAIAEAH7AEADAEAV?$digit_grouping@D@123@7AEBD@Z
	??0<lambda_4>@?BO@???$do_write_float@DV?$basic_appender@D@v11@fmt@@U?$decimal_fp@M@dragonbox@detail@23@V?$fallback_digit_grouping@D@623@@detail@v11@fmt@@YA?AV?$basic_appender@D@23@V423@AEBU?$decimal_fp@M@dragonbox@123@AEBUformat_specs@23@W4sign@23@Ulocale_ref@123@@Z@QEAA@AEAW4823@AEAIAEAH7AEADAEAV?$fallback_digit_grouping@D@123@7AEBD@Z
	??0<lambda_4>@?BO@???$do_write_float@DV?$basic_appender@D@v11@fmt@@U?$decimal_fp@N@dragonbox@detail@23@V?$digit_grouping@D@623@@detail@v11@fmt@@YA?AV?$basic_appender@D@23@V423@AEBU?$decimal_fp@N@dragonbox@123@AEBUformat_specs@23@W4sign@23@Ulocale_ref@123@@Z@QEAA@AEAW4823@AEA_KAEAH7AEADAEAV?$digit_grouping@D@123@7AEBD@Z
	??0<lambda_4>@?BO@???$do_write_float@DV?$basic_appender@D@v11@fmt@@U?$decimal_fp@N@dragonbox@detail@23@V?$fallback_digit_grouping@D@623@@detail@v11@fmt@@YA?AV?$basic_appender@D@23@V423@AEBU?$decimal_fp@N@dragonbox@123@AEBUformat_specs@23@W4sign@23@Ulocale_ref@123@@Z@QEAA@AEAW4823@AEA_KAEAH7AEADAEAV?$fallback_digit_grouping@D@123@7AEBD@Z
	??0<lambda_4>@?BO@???$do_write_float@DV?$basic_appender@D@v11@fmt@@Ubig_decimal_fp@detail@23@V?$digit_grouping@D@523@@detail@v11@fmt@@YA?AV?$basic_appender@D@23@V423@AEBUbig_decimal_fp@123@AEBUformat_specs@23@W4sign@23@Ulocale_ref@123@@Z@QEAA@AEAW4723@AEAPEBDAEAH7AEADAEAV?$digit_grouping@D@123@7AEBD@Z
	??0<lambda_4>@?BO@???$do_write_float@DV?$basic_appender@D@v11@fmt@@Ubig_decimal_fp@detail@23@V?$fallback_digit_grouping@D@523@@detail@v11@fmt@@YA?AV?$basic_appender@D@23@V423@AEBUbig_decimal_fp@123@AEBUformat_specs@23@W4sign@23@Ulocale_ref@123@@Z@QEAA@AEAW4723@AEAPEBDAEAH7AEADAEAV?$fallback_digit_grouping@D@123@7AEBD@Z
	??0<lambda_5>@?1???$do_write_float@DV?$basic_appender@D@v11@fmt@@U?$decimal_fp@M@dragonbox@detail@23@V?$digit_grouping@D@623@@detail@v11@fmt@@YA?AV?$basic_appender@D@23@V423@AEBU?$decimal_fp@M@dragonbox@123@AEBUformat_specs@23@W4sign@23@Ulocale_ref@123@@Z@QEAA@AEAW4823@AEBDAEA_NAEADAEAHAEAI9@Z
	??0<lambda_5>@?1???$do_write_float@DV?$basic_appender@D@v11@fmt@@U?$decimal_fp@M@dragonbox@detail@23@V?$fallback_digit_grouping@D@623@@detail@v11@fmt@@YA?AV?$basic_appender@D@23@V423@AEBU?$decimal_fp@M@dragonbox@123@AEBUformat_specs@23@W4sign@23@Ulocale_ref@123@@Z@QEAA@AEAW4823@AEBDAEA_NAEADAEAHAEAI9@Z
	??0<lambda_5>@?1???$do_write_float@DV?$basic_appender@D@v11@fmt@@U?$decimal_fp@N@dragonbox@detail@23@V?$digit_grouping@D@623@@detail@v11@fmt@@YA?AV?$basic_appender@D@23@V423@AEBU?$decimal_fp@N@dragonbox@123@AEBUformat_specs@23@W4sign@23@Ulocale_ref@123@@Z@QEAA@AEAW4823@AEBDAEA_NAEADAEAHAEA_K9@Z
	??0<lambda_5>@?1???$do_write_float@DV?$basic_appender@D@v11@fmt@@U?$decimal_fp@N@dragonbox@detail@23@V?$fallback_digit_grouping@D@623@@detail@v11@fmt@@YA?AV?$basic_appender@D@23@V423@AEBU?$decimal_fp@N@dragonbox@123@AEBUformat_specs@23@W4sign@23@Ulocale_ref@123@@Z@QEAA@AEAW4823@AEBDAEA_NAEADAEAHAEA_K9@Z
	??0<lambda_5>@?1???$do_write_float@DV?$basic_appender@D@v11@fmt@@Ubig_decimal_fp@detail@23@V?$digit_grouping@D@523@@detail@v11@fmt@@YA?AV?$basic_appender@D@23@V423@AEBUbig_decimal_fp@123@AEBUformat_specs@23@W4sign@23@Ulocale_ref@123@@Z@QEAA@AEAW4723@AEBDAEA_NAEADAEAHAEAPEBD9@Z
	??0<lambda_5>@?1???$do_write_float@DV?$basic_appender@D@v11@fmt@@Ubig_decimal_fp@detail@23@V?$fallback_digit_grouping@D@523@@detail@v11@fmt@@YA?AV?$basic_appender@D@23@V423@AEBUbig_decimal_fp@123@AEBUformat_specs@23@W4sign@23@Ulocale_ref@123@@Z@QEAA@AEAW4723@AEBDAEA_NAEADAEAHAEAPEBD9@Z
	??0<unnamed-type-enter_state>@?1???$parse_format_specs@D@detail@v11@fmt@@YAPEBDPEBD0AEAU?$dynamic_format_specs@D@123@AEAV?$parse_context@D@23@W4type@123@@Z@QEAA@XZ
	??0?$A_formatter@Unull_scoped_padder@details@spdlog@@@details@spdlog@@QEAA@Upadding_info@12@@Z
	??0?$A_formatter@Vscoped_padder@details@spdlog@@@details@spdlog@@QEAA@Upadding_info@12@@Z
	??0?$B_formatter@Unull_scoped_padder@details@spdlog@@@details@spdlog@@QEAA@Upadding_info@12@@Z
	??0?$B_formatter@Vscoped_padder@details@spdlog@@@details@spdlog@@QEAA@Upadding_info@12@@Z
	??0?$C_formatter@Unull_scoped_padder@details@spdlog@@@details@spdlog@@QEAA@Upadding_info@12@@Z
	??0?$C_formatter@Vscoped_padder@details@spdlog@@@details@spdlog@@QEAA@Upadding_info@12@@Z
	??0?$D_formatter@Unull_scoped_padder@details@spdlog@@@details@spdlog@@QEAA@Upadding_info@12@@Z
	??0?$D_formatter@Vscoped_padder@details@spdlog@@@details@spdlog@@QEAA@Upadding_info@12@@Z
	??0?$E_formatter@Unull_scoped_padder@details@spdlog@@@details@spdlog@@QEAA@Upadding_info@12@@Z
	??0?$E_formatter@Vscoped_padder@details@spdlog@@@details@spdlog@@QEAA@Upadding_info@12@@Z
	??0?$F_formatter@Unull_scoped_padder@details@spdlog@@@details@spdlog@@QEAA@Upadding_info@12@@Z
	??0?$F_formatter@Vscoped_padder@details@spdlog@@@details@spdlog@@QEAA@Upadding_info@12@@Z
	??0?$H_formatter@Unull_scoped_padder@details@spdlog@@@details@spdlog@@QEAA@Upadding_info@12@@Z
	??0?$H_formatter@Vscoped_padder@details@spdlog@@@details@spdlog@@QEAA@Upadding_info@12@@Z
	??0?$I_formatter@Unull_scoped_padder@details@spdlog@@@details@spdlog@@QEAA@Upadding_info@12@@Z
	??0?$I_formatter@Vscoped_padder@details@spdlog@@@details@spdlog@@QEAA@Upadding_info@12@@Z
	??0?$M_formatter@Unull_scoped_padder@details@spdlog@@@details@spdlog@@QEAA@Upadding_info@12@@Z
	??0?$M_formatter@Vscoped_padder@details@spdlog@@@details@spdlog@@QEAA@Upadding_info@12@@Z
	??0?$R_formatter@Unull_scoped_padder@details@spdlog@@@details@spdlog@@QEAA@Upadding_info@12@@Z
	??0?$R_formatter@Vscoped_padder@details@spdlog@@@details@spdlog@@QEAA@Upadding_info@12@@Z
	??0?$S_formatter@Unull_scoped_padder@details@spdlog@@@details@spdlog@@QEAA@Upadding_info@12@@Z
	??0?$S_formatter@Vscoped_padder@details@spdlog@@@details@spdlog@@QEAA@Upadding_info@12@@Z
	??0?$T_formatter@Unull_scoped_padder@details@spdlog@@@details@spdlog@@QEAA@Upadding_info@12@@Z
	??0?$T_formatter@Vscoped_padder@details@spdlog@@@details@spdlog@@QEAA@Upadding_info@12@@Z
	??0?$Y_formatter@Unull_scoped_padder@details@spdlog@@@details@spdlog@@QEAA@Upadding_info@12@@Z
	??0?$Y_formatter@Vscoped_padder@details@spdlog@@@details@spdlog@@QEAA@Upadding_info@12@@Z
	??0?$_Alloc_construct_ptr@V?$allocator@U?$_List_node@U?$pair@$$CBDV?$unique_ptr@Vcustom_flag_formatter@spdlog@@U?$default_delete@Vcustom_flag_formatter@spdlog@@@std@@@std@@@std@@PEAX@std@@@std@@@std@@QEAA@AEAV?$allocator@U?$_List_node@U?$pair@$$CBDV?$unique_ptr@Vcustom_flag_formatter@spdlog@@U?$default_delete@Vcustom_flag_formatter@spdlog@@@std@@@std@@@std@@PEAX@std@@@1@@Z
	??0?$_Alloc_construct_ptr@V?$allocator@U?$_List_node@U?$pair@$$CBV?$basic_string@DU?$char_traits@D@std@@V?$allocator@D@2@@std@@V?$shared_ptr@Vlogger@spdlog@@@2@@std@@PEAX@std@@@std@@@std@@QEAA@AEAV?$allocator@U?$_List_node@U?$pair@$$CBV?$basic_string@DU?$char_traits@D@std@@V?$allocator@D@2@@std@@V?$shared_ptr@Vlogger@spdlog@@@2@@std@@PEAX@std@@@1@@Z
	??0?$_Atomic_integral@H$03@std@@QEAA@H@Z
	??0?$_Atomic_integral_facade@H@std@@QEAA@H@Z
	??0?$_Atomic_storage@H$03@std@@QEAA@H@Z
	??0?$_Atomic_storage@_N$00@std@@QEAA@_N@Z
	??0?$_Func_class@XAEBV?$basic_string@DU?$char_traits@D@std@@V?$allocator@D@2@@std@@@std@@QEAA@XZ
	??0?$_Hash@V?$_Umap_traits@DV?$unique_ptr@Vcustom_flag_formatter@spdlog@@U?$default_delete@Vcustom_flag_formatter@spdlog@@@std@@@std@@V?$_Uhash_compare@DU?$hash@D@std@@U?$equal_to@D@2@@2@V?$allocator@U?$pair@$$CBDV?$unique_ptr@Vcustom_flag_formatter@spdlog@@U?$default_delete@Vcustom_flag_formatter@spdlog@@@std@@@std@@@std@@@2@$0A@@std@@@std@@IEAA@$$QEAV01@@Z
	??0?$_Hash@V?$_Umap_traits@DV?$unique_ptr@Vcustom_flag_formatter@spdlog@@U?$default_delete@Vcustom_flag_formatter@spdlog@@@std@@@std@@V?$_Uhash_compare@DU?$hash@D@std@@U?$equal_to@D@2@@2@V?$allocator@U?$pair@$$CBDV?$unique_ptr@Vcustom_flag_formatter@spdlog@@U?$default_delete@Vcustom_flag_formatter@spdlog@@@std@@@std@@@std@@@2@$0A@@std@@@std@@IEAA@AEBV?$_Uhash_compare@DU?$hash@D@std@@U?$equal_to@D@2@@1@AEBV?$allocator@U?$pair@$$CBDV?$unique_ptr@Vcustom_flag_formatter@spdlog@@U?$default_delete@Vcustom_flag_formatter@spdlog@@@std@@@std@@@std@@@1@@Z
	??0?$_Hash@V?$_Umap_traits@V?$basic_string@DU?$char_traits@D@std@@V?$allocator@D@2@@std@@V?$shared_ptr@Vlogger@spdlog@@@2@V?$_Uhash_compare@V?$basic_string@DU?$char_traits@D@std@@V?$allocator@D@2@@std@@U?$hash@V?$basic_string@DU?$char_traits@D@std@@V?$allocator@D@2@@std@@@2@U?$equal_to@V?$basic_string@DU?$char_traits@D@std@@V?$allocator@D@2@@std@@@2@@2@V?$allocator@U?$pair@$$CBV?$basic_string@DU?$char_traits@D@std@@V?$allocator@D@2@@std@@V?$shared_ptr@Vlogger@spdlog@@@2@@std@@@2@$0A@@std@@@std@@IEAA@AEBV?$_Uhash_compare@V?$basic_string@DU?$char_traits@D@std@@V?$allocator@D@2@@std@@U?$hash@V?$basic_string@DU?$char_traits@D@std@@V?$allocator@D@2@@std@@@2@U?$equal_to@V?$basic_string@DU?$char_traits@D@std@@V?$allocator@D@2@@std@@@2@@1@AEBV?$allocator@U?$pair@$$CBV?$basic_string@DU?$char_traits@D@std@@V?$allocator@D@2@@std@@V?$shared_ptr@Vlogger@spdlog@@@2@@std@@@1@@Z
	??0?$_Hash@V?$_Umap_traits@V?$basic_string@DU?$char_traits@D@std@@V?$allocator@D@2@@std@@W4level_enum@level@spdlog@@V?$_Uhash_compare@V?$basic_string@DU?$char_traits@D@std@@V?$allocator@D@2@@std@@U?$hash@V?$basic_string@DU?$char_traits@D@std@@V?$allocator@D@2@@std@@@2@U?$equal_to@V?$basic_string@DU?$char_traits@D@std@@V?$allocator@D@2@@std@@@2@@2@V?$allocator@U?$pair@$$CBV?$basic_string@DU?$char_traits@D@std@@V?$allocator@D@2@@std@@W4level_enum@level@spdlog@@@std@@@2@$0A@@std@@@std@@IEAA@AEBV?$_Uhash_compare@V?$basic_string@DU?$char_traits@D@std@@V?$allocator@D@2@@std@@U?$hash@V?$basic_string@DU?$char_traits@D@std@@V?$allocator@D@2@@std@@@2@U?$equal_to@V?$basic_string@DU?$char_traits@D@std@@V?$allocator@D@2@@std@@@2@@1@AEBV?$allocator@U?$pair@$$CBV?$basic_string@DU?$char_traits@D@std@@V?$allocator@D@2@@std@@W4level_enum@level@spdlog@@@std@@@1@@Z
	??0?$_List_const_iterator@V?$_List_val@U?$_List_simple_types@U?$pair@$$CBDV?$unique_ptr@Vcustom_flag_formatter@spdlog@@U?$default_delete@Vcustom_flag_formatter@spdlog@@@std@@@std@@@std@@@std@@@std@@@std@@QEAA@PEAU?$_List_node@U?$pair@$$CBDV?$unique_ptr@Vcustom_flag_formatter@spdlog@@U?$default_delete@Vcustom_flag_formatter@spdlog@@@std@@@std@@@std@@PEAX@1@PEBV?$_List_val@U?$_List_simple_types@U?$pair@$$CBDV?$unique_ptr@Vcustom_flag_formatter@spdlog@@U?$default_delete@Vcustom_flag_formatter@spdlog@@@std@@@std@@@std@@@std@@@1@@Z
	??0?$_List_const_iterator@V?$_List_val@U?$_List_simple_types@U?$pair@$$CBV?$basic_string@DU?$char_traits@D@std@@V?$allocator@D@2@@std@@V?$shared_ptr@Vlogger@spdlog@@@2@@std@@@std@@@std@@@std@@QEAA@PEAU?$_List_node@U?$pair@$$CBV?$basic_string@DU?$char_traits@D@std@@V?$allocator@D@2@@std@@V?$shared_ptr@Vlogger@spdlog@@@2@@std@@PEAX@1@PEBV?$_List_val@U?$_List_simple_types@U?$pair@$$CBV?$basic_string@DU?$char_traits@D@std@@V?$allocator@D@2@@std@@V?$shared_ptr@Vlogger@spdlog@@@2@@std@@@std@@@1@@Z
	??0?$_List_const_iterator@V?$_List_val@U?$_List_simple_types@U?$pair@$$CBV?$basic_string@DU?$char_traits@D@std@@V?$allocator@D@2@@std@@W4level_enum@level@spdlog@@@std@@@std@@@std@@@std@@QEAA@PEAU?$_List_node@U?$pair@$$CBV?$basic_string@DU?$char_traits@D@std@@V?$allocator@D@2@@std@@W4level_enum@level@spdlog@@@std@@PEAX@1@PEBV?$_List_val@U?$_List_simple_types@U?$pair@$$CBV?$basic_string@DU?$char_traits@D@std@@V?$allocator@D@2@@std@@W4level_enum@level@spdlog@@@std@@@std@@@1@@Z
	??0?$_List_iterator@V?$_List_val@U?$_List_simple_types@U?$pair@$$CBDV?$unique_ptr@Vcustom_flag_formatter@spdlog@@U?$default_delete@Vcustom_flag_formatter@spdlog@@@std@@@std@@@std@@@std@@@std@@@std@@QEAA@PEAU?$_List_node@U?$pair@$$CBDV?$unique_ptr@Vcustom_flag_formatter@spdlog@@U?$default_delete@Vcustom_flag_formatter@spdlog@@@std@@@std@@@std@@PEAX@1@PEBV?$_List_val@U?$_List_simple_types@U?$pair@$$CBDV?$unique_ptr@Vcustom_flag_formatter@spdlog@@U?$default_delete@Vcustom_flag_formatter@spdlog@@@std@@@std@@@std@@@std@@@1@@Z
	??0?$_List_iterator@V?$_List_val@U?$_List_simple_types@U?$pair@$$CBV?$basic_string@DU?$char_traits@D@std@@V?$allocator@D@2@@std@@V?$shared_ptr@Vlogger@spdlog@@@2@@std@@@std@@@std@@@std@@QEAA@PEAU?$_List_node@U?$pair@$$CBV?$basic_string@DU?$char_traits@D@std@@V?$allocator@D@2@@std@@V?$shared_ptr@Vlogger@spdlog@@@2@@std@@PEAX@1@PEBV?$_List_val@U?$_List_simple_types@U?$pair@$$CBV?$basic_string@DU?$char_traits@D@std@@V?$allocator@D@2@@std@@V?$shared_ptr@Vlogger@spdlog@@@2@@std@@@std@@@1@@Z
	??0?$_List_iterator@V?$_List_val@U?$_List_simple_types@U?$pair@$$CBV?$basic_string@DU?$char_traits@D@std@@V?$allocator@D@2@@std@@W4level_enum@level@spdlog@@@std@@@std@@@std@@@std@@QEAA@PEAU?$_List_node@U?$pair@$$CBV?$basic_string@DU?$char_traits@D@std@@V?$allocator@D@2@@std@@W4level_enum@level@spdlog@@@std@@PEAX@1@PEBV?$_List_val@U?$_List_simple_types@U?$pair@$$CBV?$basic_string@DU?$char_traits@D@std@@V?$allocator@D@2@@std@@W4level_enum@level@spdlog@@@std@@@std@@@1@@Z
	??0?$_List_unchecked_const_iterator@V?$_List_val@U?$_List_simple_types@U?$pair@$$CBDV?$unique_ptr@Vcustom_flag_formatter@spdlog@@U?$default_delete@Vcustom_flag_formatter@spdlog@@@std@@@std@@@std@@@std@@@std@@U_Iterator_base0@2@@std@@QEAA@PEAU?$_List_node@U?$pair@$$CBDV?$unique_ptr@Vcustom_flag_formatter@spdlog@@U?$default_delete@Vcustom_flag_formatter@spdlog@@@std@@@std@@@std@@PEAX@1@PEBV?$_List_val@U?$_List_simple_types@U?$pair@$$CBDV?$unique_ptr@Vcustom_flag_formatter@spdlog@@U?$default_delete@Vcustom_flag_formatter@spdlog@@@std@@@std@@@std@@@std@@@1@@Z
	??0?$_List_unchecked_const_iterator@V?$_List_val@U?$_List_simple_types@U?$pair@$$CBV?$basic_string@DU?$char_traits@D@std@@V?$allocator@D@2@@std@@V?$shared_ptr@Vlogger@spdlog@@@2@@std@@@std@@@std@@U_Iterator_base0@2@@std@@QEAA@PEAU?$_List_node@U?$pair@$$CBV?$basic_string@DU?$char_traits@D@std@@V?$allocator@D@2@@std@@V?$shared_ptr@Vlogger@spdlog@@@2@@std@@PEAX@1@PEBV?$_List_val@U?$_List_simple_types@U?$pair@$$CBV?$basic_string@DU?$char_traits@D@std@@V?$allocator@D@2@@std@@V?$shared_ptr@Vlogger@spdlog@@@2@@std@@@std@@@1@@Z
	??0?$_List_unchecked_const_iterator@V?$_List_val@U?$_List_simple_types@U?$pair@$$CBV?$basic_string@DU?$char_traits@D@std@@V?$allocator@D@2@@std@@W4level_enum@level@spdlog@@@std@@@std@@@std@@U_Iterator_base0@2@@std@@QEAA@PEAU?$_List_node@U?$pair@$$CBV?$basic_string@DU?$char_traits@D@std@@V?$allocator@D@2@@std@@W4level_enum@level@spdlog@@@std@@PEAX@1@PEBV?$_List_val@U?$_List_simple_types@U?$pair@$$CBV?$basic_string@DU?$char_traits@D@std@@V?$allocator@D@2@@std@@W4level_enum@level@spdlog@@@std@@@std@@@1@@Z
	??0?$_List_unchecked_iterator@V?$_List_val@U?$_List_simple_types@U?$pair@$$CBDV?$unique_ptr@Vcustom_flag_formatter@spdlog@@U?$default_delete@Vcustom_flag_formatter@spdlog@@@std@@@std@@@std@@@std@@@std@@@std@@QEAA@PEAU?$_List_node@U?$pair@$$CBDV?$unique_ptr@Vcustom_flag_formatter@spdlog@@U?$default_delete@Vcustom_flag_formatter@spdlog@@@std@@@std@@@std@@PEAX@1@PEBV?$_List_val@U?$_List_simple_types@U?$pair@$$CBDV?$unique_ptr@Vcustom_flag_formatter@spdlog@@U?$default_delete@Vcustom_flag_formatter@spdlog@@@std@@@std@@@std@@@std@@@1@@Z
	??0?$_List_unchecked_iterator@V?$_List_val@U?$_List_simple_types@U?$pair@$$CBV?$basic_string@DU?$char_traits@D@std@@V?$allocator@D@2@@std@@V?$shared_ptr@Vlogger@spdlog@@@2@@std@@@std@@@std@@@std@@QEAA@PEAU?$_List_node@U?$pair@$$CBV?$basic_string@DU?$char_traits@D@std@@V?$allocator@D@2@@std@@V?$shared_ptr@Vlogger@spdlog@@@2@@std@@PEAX@1@PEBV?$_List_val@U?$_List_simple_types@U?$pair@$$CBV?$basic_string@DU?$char_traits@D@std@@V?$allocator@D@2@@std@@V?$shared_ptr@Vlogger@spdlog@@@2@@std@@@std@@@1@@Z
	??0?$_List_unchecked_iterator@V?$_List_val@U?$_List_simple_types@U?$pair@$$CBV?$basic_string@DU?$char_traits@D@std@@V?$allocator@D@2@@std@@W4level_enum@level@spdlog@@@std@@@std@@@std@@@std@@QEAA@PEAU?$_List_node@U?$pair@$$CBV?$basic_string@DU?$char_traits@D@std@@V?$allocator@D@2@@std@@W4level_enum@level@spdlog@@@std@@PEAX@1@PEBV?$_List_val@U?$_List_simple_types@U?$pair@$$CBV?$basic_string@DU?$char_traits@D@std@@V?$allocator@D@2@@std@@W4level_enum@level@spdlog@@@std@@@std@@@1@@Z
	??0?$_List_val@U?$_List_simple_types@U?$pair@$$CBDV?$unique_ptr@Vcustom_flag_formatter@spdlog@@U?$default_delete@Vcustom_flag_formatter@spdlog@@@std@@@std@@@std@@@std@@@std@@QEAA@XZ
	??0?$_List_val@U?$_List_simple_types@U?$pair@$$CBV?$basic_string@DU?$char_traits@D@std@@V?$allocator@D@2@@std@@V?$shared_ptr@Vlogger@spdlog@@@2@@std@@@std@@@std@@QEAA@XZ
	??0?$_List_val@U?$_List_simple_types@U?$pair@$$CBV?$basic_string@DU?$char_traits@D@std@@V?$allocator@D@2@@std@@W4level_enum@level@spdlog@@@std@@@std@@@std@@QEAA@XZ
	??0?$_Ptr_base@V?$wincolor_stdout_sink@Uconsole_mutex@details@spdlog@@@sinks@spdlog@@@std@@IEAA@XZ
	??0?$_Ptr_base@Vlogger@spdlog@@@std@@IEAA@XZ
	??0?$_Ptr_base@Vsink@sinks@spdlog@@@std@@IEAA@XZ
	??0?$_Ptr_base@Vthread_pool@details@spdlog@@@std@@IEAA@XZ
	??0?$_String_const_iterator@V?$_String_val@U?$_Simple_types@D@std@@@std@@@std@@QEAA@PEBDPEBU_Container_base0@1@@Z
	??0?$_String_val@U?$_Simple_types@D@std@@@std@@QEAA@XZ
	??0?$_Tree@V?$_Tmap_traits@V?$basic_string@DU?$char_traits@D@std@@V?$allocator@D@2@@std@@V12@U?$less@V?$basic_string@DU?$char_traits@D@std@@V?$allocator@D@2@@std@@@2@V?$allocator@U?$pair@$$CBV?$basic_string@DU?$char_traits@D@std@@V?$allocator@D@2@@std@@V12@@std@@@2@$0A@@std@@@std@@QEAA@AEBU?$less@V?$basic_string@DU?$char_traits@D@std@@V?$allocator@D@2@@std@@@1@@Z
	??0?$_Tree_const_iterator@V?$_Tree_val@U?$_Tree_simple_types@U?$pair@$$CBV?$basic_string@DU?$char_traits@D@std@@V?$allocator@D@2@@std@@V12@@std@@@std@@@std@@@std@@QEAA@PEAU?$_Tree_node@U?$pair@$$CBV?$basic_string@DU?$char_traits@D@std@@V?$allocator@D@2@@std@@V12@@std@@PEAX@1@PEBV?$_Tree_val@U?$_Tree_simple_types@U?$pair@$$CBV?$basic_string@DU?$char_traits@D@std@@V?$allocator@D@2@@std@@V12@@std@@@std@@@1@@Z
	??0?$_Tree_unchecked_const_iterator@V?$_Tree_val@U?$_Tree_simple_types@U?$pair@$$CBV?$basic_string@DU?$char_traits@D@std@@V?$allocator@D@2@@std@@V12@@std@@@std@@@std@@U_Iterator_base0@2@@std@@QEAA@PEAU?$_Tree_node@U?$pair@$$CBV?$basic_string@DU?$char_traits@D@std@@V?$allocator@D@2@@std@@V12@@std@@PEAX@1@PEBV?$_Tree_val@U?$_Tree_simple_types@U?$pair@$$CBV?$basic_string@DU?$char_traits@D@std@@V?$allocator@D@2@@std@@V12@@std@@@std@@@1@@Z
	??0?$_Tree_val@U?$_Tree_simple_types@U?$pair@$$CBV?$basic_string@DU?$char_traits@D@std@@V?$allocator@D@2@@std@@V12@@std@@@std@@@std@@QEAA@XZ
	??0?$_Uhash_compare@DU?$hash@D@std@@U?$equal_to@D@2@@std@@QEAA@XZ
	??0?$_Uhash_compare@V?$basic_string@DU?$char_traits@D@std@@V?$allocator@D@2@@std@@U?$hash@V?$basic_string@DU?$char_traits@D@std@@V?$allocator@D@2@@std@@@2@U?$equal_to@V?$basic_string@DU?$char_traits@D@std@@V?$allocator@D@2@@std@@@2@@std@@QEAA@XZ
	??0?$_Umap_traits@DV?$unique_ptr@Vcustom_flag_formatter@spdlog@@U?$default_delete@Vcustom_flag_formatter@spdlog@@@std@@@std@@V?$_Uhash_compare@DU?$hash@D@std@@U?$equal_to@D@2@@2@V?$allocator@U?$pair@$$CBDV?$unique_ptr@Vcustom_flag_formatter@spdlog@@U?$default_delete@Vcustom_flag_formatter@spdlog@@@std@@@std@@@std@@@2@$0A@@std@@QEAA@AEBV?$_Uhash_compare@DU?$hash@D@std@@U?$equal_to@D@2@@1@@Z
	??0?$_Umap_traits@V?$basic_string@DU?$char_traits@D@std@@V?$allocator@D@2@@std@@V?$shared_ptr@Vlogger@spdlog@@@2@V?$_Uhash_compare@V?$basic_string@DU?$char_traits@D@std@@V?$allocator@D@2@@std@@U?$hash@V?$basic_string@DU?$char_traits@D@std@@V?$allocator@D@2@@std@@@2@U?$equal_to@V?$basic_string@DU?$char_traits@D@std@@V?$allocator@D@2@@std@@@2@@2@V?$allocator@U?$pair@$$CBV?$basic_string@DU?$char_traits@D@std@@V?$allocator@D@2@@std@@V?$shared_ptr@Vlogger@spdlog@@@2@@std@@@2@$0A@@std@@QEAA@AEBV?$_Uhash_compare@V?$basic_string@DU?$char_traits@D@std@@V?$allocator@D@2@@std@@U?$hash@V?$basic_string@DU?$char_traits@D@std@@V?$allocator@D@2@@std@@@2@U?$equal_to@V?$basic_string@DU?$char_traits@D@std@@V?$allocator@D@2@@std@@@2@@1@@Z
	??0?$_Umap_traits@V?$basic_string@DU?$char_traits@D@std@@V?$allocator@D@2@@std@@W4level_enum@level@spdlog@@V?$_Uhash_compare@V?$basic_string@DU?$char_traits@D@std@@V?$allocator@D@2@@std@@U?$hash@V?$basic_string@DU?$char_traits@D@std@@V?$allocator@D@2@@std@@@2@U?$equal_to@V?$basic_string@DU?$char_traits@D@std@@V?$allocator@D@2@@std@@@2@@2@V?$allocator@U?$pair@$$CBV?$basic_string@DU?$char_traits@D@std@@V?$allocator@D@2@@std@@W4level_enum@level@spdlog@@@std@@@2@$0A@@std@@QEAA@AEBV?$_Uhash_compare@V?$basic_string@DU?$char_traits@D@std@@V?$allocator@D@2@@std@@U?$hash@V?$basic_string@DU?$char_traits@D@std@@V?$allocator@D@2@@std@@@2@U?$equal_to@V?$basic_string@DU?$char_traits@D@std@@V?$allocator@D@2@@std@@@2@@1@@Z
	??0?$_Uninitialized_backout@PEAV?$_List_unchecked_iterator@V?$_List_val@U?$_List_simple_types@U?$pair@$$CBDV?$unique_ptr@Vcustom_flag_formatter@spdlog@@U?$default_delete@Vcustom_flag_formatter@spdlog@@@std@@@std@@@std@@@std@@@std@@@std@@@std@@QEAA@PEAV?$_List_unchecked_iterator@V?$_List_val@U?$_List_simple_types@U?$pair@$$CBDV?$unique_ptr@Vcustom_flag_formatter@spdlog@@U?$default_delete@Vcustom_flag_formatter@spdlog@@@std@@@std@@@std@@@std@@@std@@@1@@Z
	??0?$_Uninitialized_backout@PEAV?$_List_unchecked_iterator@V?$_List_val@U?$_List_simple_types@U?$pair@$$CBV?$basic_string@DU?$char_traits@D@std@@V?$allocator@D@2@@std@@V?$shared_ptr@Vlogger@spdlog@@@2@@std@@@std@@@std@@@std@@@std@@QEAA@PEAV?$_List_unchecked_iterator@V?$_List_val@U?$_List_simple_types@U?$pair@$$CBV?$basic_string@DU?$char_traits@D@std@@V?$allocator@D@2@@std@@V?$shared_ptr@Vlogger@spdlog@@@2@@std@@@std@@@std@@@1@@Z
	??0?$_Uninitialized_backout@PEAV?$_List_unchecked_iterator@V?$_List_val@U?$_List_simple_types@U?$pair@$$CBV?$basic_string@DU?$char_traits@D@std@@V?$allocator@D@2@@std@@W4level_enum@level@spdlog@@@std@@@std@@@std@@@std@@@std@@QEAA@PEAV?$_List_unchecked_iterator@V?$_List_val@U?$_List_simple_types@U?$pair@$$CBV?$basic_string@DU?$char_traits@D@std@@V?$allocator@D@2@@std@@W4level_enum@level@spdlog@@@std@@@std@@@std@@@1@@Z
	??0?$_Uninitialized_backout_al@V?$allocator@V?$shared_ptr@Vsink@sinks@spdlog@@@std@@@std@@@std@@QEAA@PEAV?$shared_ptr@Vsink@sinks@spdlog@@@1@AEAV?$allocator@V?$shared_ptr@Vsink@sinks@spdlog@@@std@@@1@@Z
	??0?$_Uninitialized_backout_al@V?$allocator@V?$unique_ptr@Vflag_formatter@details@spdlog@@U?$default_delete@Vflag_formatter@details@spdlog@@@std@@@std@@@std@@@std@@QEAA@PEAV?$unique_ptr@Vflag_formatter@details@spdlog@@U?$default_delete@Vflag_formatter@details@spdlog@@@std@@@1@AEAV?$allocator@V?$unique_ptr@Vflag_formatter@details@spdlog@@U?$default_delete@Vflag_formatter@details@spdlog@@@std@@@std@@@1@@Z
	??0?$_Uninitialized_backout_al@V?$allocator@Vlog_msg_buffer@details@spdlog@@@std@@@std@@QEAA@PEAVlog_msg_buffer@details@spdlog@@AEAV?$allocator@Vlog_msg_buffer@details@spdlog@@@1@@Z
	??0?$_Vector_const_iterator@V?$_Vector_val@U?$_Simple_types@V?$shared_ptr@Vsink@sinks@spdlog@@@std@@@std@@@std@@@std@@QEAA@PEAV?$shared_ptr@Vsink@sinks@spdlog@@@1@PEBU_Container_base0@1@@Z
	??0?$_Vector_iterator@V?$_Vector_val@U?$_Simple_types@V?$shared_ptr@Vsink@sinks@spdlog@@@std@@@std@@@std@@@std@@QEAA@PEAV?$shared_ptr@Vsink@sinks@spdlog@@@1@PEBU_Container_base0@1@@Z
	??0?$_Vector_val@U?$_Simple_types@V?$_List_unchecked_iterator@V?$_List_val@U?$_List_simple_types@U?$pair@$$CBDV?$unique_ptr@Vcustom_flag_formatter@spdlog@@U?$default_delete@Vcustom_flag_formatter@spdlog@@@std@@@std@@@std@@@std@@@std@@@std@@@std@@@std@@QEAA@XZ
	??0?$_Vector_val@U?$_Simple_types@V?$_List_unchecked_iterator@V?$_List_val@U?$_List_simple_types@U?$pair@$$CBV?$basic_string@DU?$char_traits@D@std@@V?$allocator@D@2@@std@@V?$shared_ptr@Vlogger@spdlog@@@2@@std@@@std@@@std@@@std@@@std@@@std@@QEAA@XZ
	??0?$_Vector_val@U?$_Simple_types@V?$_List_unchecked_iterator@V?$_List_val@U?$_List_simple_types@U?$pair@$$CBV?$basic_string@DU?$char_traits@D@std@@V?$allocator@D@2@@std@@W4level_enum@level@spdlog@@@std@@@std@@@std@@@std@@@std@@@std@@QEAA@XZ
	??0?$_Vector_val@U?$_Simple_types@V?$shared_ptr@Vsink@sinks@spdlog@@@std@@@std@@@std@@QEAA@XZ
	??0?$_Vector_val@U?$_Simple_types@V?$unique_ptr@Vflag_formatter@details@spdlog@@U?$default_delete@Vflag_formatter@details@spdlog@@@std@@@std@@@std@@@std@@QEAA@XZ
	??0?$_Vector_val@U?$_Simple_types@Vlog_msg_buffer@details@spdlog@@@std@@@std@@QEAA@XZ
	??0?$_Yarn@D@std@@QEAA@XZ
	??0?$_Yarn@_W@std@@QEAA@XZ
	??0?$a_formatter@Unull_scoped_padder@details@spdlog@@@details@spdlog@@QEAA@Upadding_info@12@@Z
	??0?$a_formatter@Vscoped_padder@details@spdlog@@@details@spdlog@@QEAA@Upadding_info@12@@Z
	??0?$allocator@D@std@@QEAA@XZ
	??0?$allocator@U?$_Tree_node@U?$pair@$$CBV?$basic_string@DU?$char_traits@D@std@@V?$allocator@D@2@@std@@V12@@std@@PEAX@std@@@std@@QEAA@XZ
	??0?$allocator@U?$pair@$$CBDV?$unique_ptr@Vcustom_flag_formatter@spdlog@@U?$default_delete@Vcustom_flag_formatter@spdlog@@@std@@@std@@@std@@@std@@QEAA@XZ
	??0?$allocator@U?$pair@$$CBV?$basic_string@DU?$char_traits@D@std@@V?$allocator@D@2@@std@@V?$shared_ptr@Vlogger@spdlog@@@2@@std@@@std@@QEAA@XZ
	??0?$allocator@U?$pair@$$CBV?$basic_string@DU?$char_traits@D@std@@V?$allocator@D@2@@std@@W4level_enum@level@spdlog@@@std@@@std@@QEAA@XZ
	??0?$allocator@V?$shared_ptr@Vsink@sinks@spdlog@@@std@@@std@@QEAA@XZ
	??0?$allocator@V?$unique_ptr@Vflag_formatter@details@spdlog@@U?$default_delete@Vflag_formatter@details@spdlog@@@std@@@std@@@std@@QEAA@XZ
	??0?$allocator@Vlog_msg_buffer@details@spdlog@@@std@@QEAA@XZ
	??0?$arg_ref@D@detail@v11@fmt@@QEAA@H@Z
	??0?$arg_ref@D@detail@v11@fmt@@QEAA@V?$basic_string_view@D@23@@Z
	??0?$atomic@H@std@@QEAA@H@Z
	??0?$atomic@_N@std@@QEAA@_N@Z
	??0?$b_formatter@Unull_scoped_padder@details@spdlog@@@details@spdlog@@QEAA@Upadding_info@12@@Z
	??0?$b_formatter@Vscoped_padder@details@spdlog@@@details@spdlog@@QEAA@Upadding_info@12@@Z
	??0?$back_insert_iterator@V?$basic_memory_buffer@D$0PK@U?$allocator@D@detail@v11@fmt@@@v11@fmt@@@std@@QEAA@AEAV?$basic_memory_buffer@D$0PK@U?$allocator@D@detail@v11@fmt@@@v11@fmt@@@Z
	??0?$basic_appender@D@v11@fmt@@QEAA@AEAV?$buffer@D@detail@12@@Z
	??0?$basic_format_arg@Vcontext@v11@fmt@@@v11@fmt@@QEAA@XZ
	??0?$basic_format_args@Vcontext@v11@fmt@@@v11@fmt@@QEAA@XZ
	??0?$basic_fp@Vuint128_fallback@detail@v11@fmt@@@detail@v11@fmt@@QEAA@XZ
	??0?$basic_memory_buffer@D$0BPE@U?$allocator@D@detail@v11@fmt@@@v11@fmt@@QEAA@AEBU?$allocator@D@detail@12@@Z
	??0?$basic_memory_buffer@D$0PK@U?$allocator@D@detail@v11@fmt@@@v11@fmt@@QEAA@AEBU?$allocator@D@detail@12@@Z
	??0?$basic_memory_buffer@H$0BPE@U?$allocator@H@detail@v11@fmt@@@v11@fmt@@QEAA@AEBU?$allocator@H@detail@12@@Z
	??0?$basic_memory_buffer@I$0CA@U?$allocator@I@detail@v11@fmt@@@v11@fmt@@QEAA@$$QEAV012@@Z
	??0?$basic_memory_buffer@I$0CA@U?$allocator@I@detail@v11@fmt@@@v11@fmt@@QEAA@AEBU?$allocator@I@detail@12@@Z
	??0?$basic_string@DU?$char_traits@D@std@@V?$allocator@D@2@@std@@QEAA@$$QEAV01@@Z
	??0?$basic_string@DU?$char_traits@D@std@@V?$allocator@D@2@@std@@QEAA@AEBV01@@Z
	??0?$basic_string@DU?$char_traits@D@std@@V?$allocator@D@2@@std@@QEAA@QEBD@Z
	??0?$basic_string@DU?$char_traits@D@std@@V?$allocator@D@2@@std@@QEAA@QEBD_K@Z
	??0?$basic_string@DU?$char_traits@D@std@@V?$allocator@D@2@@std@@QEAA@U_String_constructor_concat_tag@1@AEBV01@QEBD_K23@Z
	??0?$basic_string@DU?$char_traits@D@std@@V?$allocator@D@2@@std@@QEAA@XZ
	??0?$basic_string@DU?$char_traits@D@std@@V?$allocator@D@2@@std@@QEAA@_KD@Z
	??0?$basic_string_view@D@v11@fmt@@QEAA@PEBD@Z
	??0?$basic_string_view@D@v11@fmt@@QEAA@PEBD_K@Z
	??0?$basic_string_view@D@v11@fmt@@QEAA@XZ
	??0?$buffer@D@detail@v11@fmt@@IEAA@P6AXAEAV0123@_K@ZPEAD11@Z
	??0?$buffer@H@detail@v11@fmt@@IEAA@P6AXAEAV0123@_K@ZPEAH11@Z
	??0?$buffer@I@detail@v11@fmt@@IEAA@P6AXAEAV0123@_K@ZPEAI11@Z
	??0?$c_formatter@Unull_scoped_padder@details@spdlog@@@details@spdlog@@QEAA@Upadding_info@12@@Z
	??0?$c_formatter@Vscoped_padder@details@spdlog@@@details@spdlog@@QEAA@Upadding_info@12@@Z
	??0?$circular_q@Vlog_msg_buffer@details@spdlog@@@details@spdlog@@QEAA@XZ
	??0?$circular_q@Vlog_msg_buffer@details@spdlog@@@details@spdlog@@QEAA@_K@Z
	??0?$counting_buffer@D@detail@v11@fmt@@QEAA@XZ
	??0?$d_formatter@Unull_scoped_padder@details@spdlog@@@details@spdlog@@QEAA@Upadding_info@12@@Z
	??0?$d_formatter@Vscoped_padder@details@spdlog@@@details@spdlog@@QEAA@Upadding_info@12@@Z
	??0?$digit_grouping@D@detail@v11@fmt@@QEAA@V?$basic_string@DU?$char_traits@D@std@@V?$allocator@D@2@@std@@0@Z
	??0?$dynamic_format_specs@D@detail@v11@fmt@@QEAA@XZ
	??0?$e_formatter@Unull_scoped_padder@details@spdlog@@@details@spdlog@@QEAA@Upadding_info@12@@Z
	??0?$e_formatter@Vscoped_padder@details@spdlog@@@details@spdlog@@QEAA@Upadding_info@12@@Z
	??0?$elapsed_formatter@Unull_scoped_padder@details@spdlog@@V?$duration@_JU?$ratio@$00$00@std@@@chrono@std@@@details@spdlog@@QEAA@Upadding_info@12@@Z
	??0?$elapsed_formatter@Unull_scoped_padder@details@spdlog@@V?$duration@_JU?$ratio@$00$0DLJKMKAA@@std@@@chrono@std@@@details@spdlog@@QEAA@Upadding_info@12@@Z
	??0?$elapsed_formatter@Unull_scoped_padder@details@spdlog@@V?$duration@_JU?$ratio@$00$0DOI@@std@@@chrono@std@@@details@spdlog@@QEAA@Upadding_info@12@@Z
	??0?$elapsed_formatter@Unull_scoped_padder@details@spdlog@@V?$duration@_JU?$ratio@$00$0PECEA@@std@@@chrono@std@@@details@spdlog@@QEAA@Upadding_info@12@@Z
	??0?$elapsed_formatter@Vscoped_padder@details@spdlog@@V?$duration@_JU?$ratio@$00$00@std@@@chrono@std@@@details@spdlog@@QEAA@Upadding_info@12@@Z
	??0?$elapsed_formatter@Vscoped_padder@details@spdlog@@V?$duration@_JU?$ratio@$00$0DLJKMKAA@@std@@@chrono@std@@@details@spdlog@@QEAA@Upadding_info@12@@Z
	??0?$elapsed_formatter@Vscoped_padder@details@spdlog@@V?$duration@_JU?$ratio@$00$0DOI@@std@@@chrono@std@@@details@spdlog@@QEAA@Upadding_info@12@@Z
	??0?$elapsed_formatter@Vscoped_padder@details@spdlog@@V?$duration@_JU?$ratio@$00$0PECEA@@std@@@chrono@std@@@details@spdlog@@QEAA@Upadding_info@12@@Z
	??0?$f_formatter@Unull_scoped_padder@details@spdlog@@@details@spdlog@@QEAA@Upadding_info@12@@Z
	??0?$f_formatter@Vscoped_padder@details@spdlog@@@details@spdlog@@QEAA@Upadding_info@12@@Z
	??0?$fallback_digit_grouping@D@detail@v11@fmt@@QEAA@Ulocale_ref@123@_N@Z
	??0?$format_facet@Vlocale@std@@@v11@fmt@@QEAA@AEAVlocale@std@@@Z
	??0?$function@$$A6AXAEBV?$basic_string@DU?$char_traits@D@std@@V?$allocator@D@2@@std@@@Z@std@@QEAA@$$T@Z
	??0?$function@$$A6AXAEBV?$basic_string@DU?$char_traits@D@std@@V?$allocator@D@2@@std@@@Z@std@@QEAA@AEBV01@@Z
	??0?$function@$$A6AXAEBV?$basic_string@DU?$char_traits@D@std@@V?$allocator@D@2@@std@@@Z@std@@QEAA@XZ
	??0?$initializer_list@V?$shared_ptr@Vsink@sinks@spdlog@@@std@@@std@@QEAA@PEBV?$shared_ptr@Vsink@sinks@spdlog@@@1@0@Z
	??0?$level_formatter@Unull_scoped_padder@details@spdlog@@@details@spdlog@@QEAA@Upadding_info@12@@Z
	??0?$level_formatter@Vscoped_padder@details@spdlog@@@details@spdlog@@QEAA@Upadding_info@12@@Z
	??0?$list@U?$pair@$$CBDV?$unique_ptr@Vcustom_flag_formatter@spdlog@@U?$default_delete@Vcustom_flag_formatter@spdlog@@@std@@@std@@@std@@V?$allocator@U?$pair@$$CBDV?$unique_ptr@Vcustom_flag_formatter@spdlog@@U?$default_delete@Vcustom_flag_formatter@spdlog@@@std@@@std@@@std@@@2@@std@@QEAA@AEBV?$allocator@U?$pair@$$CBDV?$unique_ptr@Vcustom_flag_formatter@spdlog@@U?$default_delete@Vcustom_flag_formatter@spdlog@@@std@@@std@@@std@@@1@@Z
	??0?$list@U?$pair@$$CBV?$basic_string@DU?$char_traits@D@std@@V?$allocator@D@2@@std@@V?$shared_ptr@Vlogger@spdlog@@@2@@std@@V?$allocator@U?$pair@$$CBV?$basic_string@DU?$char_traits@D@std@@V?$allocator@D@2@@std@@V?$shared_ptr@Vlogger@spdlog@@@2@@std@@@2@@std@@QEAA@AEBV?$allocator@U?$pair@$$CBV?$basic_string@DU?$char_traits@D@std@@V?$allocator@D@2@@std@@V?$shared_ptr@Vlogger@spdlog@@@2@@std@@@1@@Z
	??0?$list@U?$pair@$$CBV?$basic_string@DU?$char_traits@D@std@@V?$allocator@D@2@@std@@W4level_enum@level@spdlog@@@std@@V?$allocator@U?$pair@$$CBV?$basic_string@DU?$char_traits@D@std@@V?$allocator@D@2@@std@@W4level_enum@level@spdlog@@@std@@@2@@std@@QEAA@AEBV?$allocator@U?$pair@$$CBV?$basic_string@DU?$char_traits@D@std@@V?$allocator@D@2@@std@@W4level_enum@level@spdlog@@@std@@@1@@Z
	??0?$lock_guard@Vmutex@std@@@std@@QEAA@AEAVmutex@1@@Z
	??0?$m_formatter@Unull_scoped_padder@details@spdlog@@@details@spdlog@@QEAA@Upadding_info@12@@Z
	??0?$m_formatter@Vscoped_padder@details@spdlog@@@details@spdlog@@QEAA@Upadding_info@12@@Z
	??0?$map@V?$basic_string@DU?$char_traits@D@std@@V?$allocator@D@2@@std@@V12@U?$less@V?$basic_string@DU?$char_traits@D@std@@V?$allocator@D@2@@std@@@2@V?$allocator@U?$pair@$$CBV?$basic_string@DU?$char_traits@D@std@@V?$allocator@D@2@@std@@V12@@std@@@2@@std@@QEAA@XZ
	??0?$mdc_formatter@Unull_scoped_padder@details@spdlog@@@details@spdlog@@QEAA@Upadding_info@12@@Z
	??0?$mdc_formatter@Vscoped_padder@details@spdlog@@@details@spdlog@@QEAA@Upadding_info@12@@Z
	??0?$name_formatter@Unull_scoped_padder@details@spdlog@@@details@spdlog@@QEAA@Upadding_info@12@@Z
	??0?$name_formatter@Vscoped_padder@details@spdlog@@@details@spdlog@@QEAA@Upadding_info@12@@Z
	??0?$numpunct@D@std@@QEAA@AEBV_Locinfo@1@_K_N@Z
	??0?$p_formatter@Unull_scoped_padder@details@spdlog@@@details@spdlog@@QEAA@Upadding_info@12@@Z
	??0?$p_formatter@Vscoped_padder@details@spdlog@@@details@spdlog@@QEAA@Upadding_info@12@@Z
	??0?$parse_context@D@v11@fmt@@QEAA@V?$basic_string_view@D@12@H@Z
	??0?$pid_formatter@Unull_scoped_padder@details@spdlog@@@details@spdlog@@QEAA@Upadding_info@12@@Z
	??0?$pid_formatter@Vscoped_padder@details@spdlog@@@details@spdlog@@QEAA@Upadding_info@12@@Z
	??0?$r_formatter@Unull_scoped_padder@details@spdlog@@@details@spdlog@@QEAA@Upadding_info@12@@Z
	??0?$r_formatter@Vscoped_padder@details@spdlog@@@details@spdlog@@QEAA@Upadding_info@12@@Z
	??0?$reverse_iterator@PEBD@std@@QEAA@PEBD@Z
	??0?$shared_ptr@V?$wincolor_stdout_sink@Uconsole_mutex@details@spdlog@@@sinks@spdlog@@@std@@QEAA@XZ
	??0?$shared_ptr@Vlogger@spdlog@@@std@@QEAA@$$QEAV01@@Z
	??0?$shared_ptr@Vlogger@spdlog@@@std@@QEAA@AEBV01@@Z
	??0?$shared_ptr@Vlogger@spdlog@@@std@@QEAA@XZ
	??0?$shared_ptr@Vsink@sinks@spdlog@@@std@@QEAA@$$QEAV01@@Z
	??0?$shared_ptr@Vsink@sinks@spdlog@@@std@@QEAA@AEBV01@@Z
	??0?$shared_ptr@Vthread_pool@details@spdlog@@@std@@QEAA@XZ
	??0?$short_filename_formatter@Unull_scoped_padder@details@spdlog@@@details@spdlog@@QEAA@Upadding_info@12@@Z
	??0?$short_filename_formatter@Vscoped_padder@details@spdlog@@@details@spdlog@@QEAA@Upadding_info@12@@Z
	??0?$short_level_formatter@Unull_scoped_padder@details@spdlog@@@details@spdlog@@QEAA@Upadding_info@12@@Z
	??0?$short_level_formatter@Vscoped_padder@details@spdlog@@@details@spdlog@@QEAA@Upadding_info@12@@Z
	??0?$source_filename_formatter@Unull_scoped_padder@details@spdlog@@@details@spdlog@@QEAA@Upadding_info@12@@Z
	??0?$source_filename_formatter@Vscoped_padder@details@spdlog@@@details@spdlog@@QEAA@Upadding_info@12@@Z
	??0?$source_funcname_formatter@Unull_scoped_padder@details@spdlog@@@details@spdlog@@QEAA@Upadding_info@12@@Z
	??0?$source_funcname_formatter@Vscoped_padder@details@spdlog@@@details@spdlog@@QEAA@Upadding_info@12@@Z
	??0?$source_linenum_formatter@Unull_scoped_padder@details@spdlog@@@details@spdlog@@QEAA@Upadding_info@12@@Z
	??0?$source_linenum_formatter@Vscoped_padder@details@spdlog@@@details@spdlog@@QEAA@Upadding_info@12@@Z
	??0?$source_location_formatter@Unull_scoped_padder@details@spdlog@@@details@spdlog@@QEAA@Upadding_info@12@@Z
	??0?$source_location_formatter@Vscoped_padder@details@spdlog@@@details@spdlog@@QEAA@Upadding_info@12@@Z
	??0?$t_formatter@Unull_scoped_padder@details@spdlog@@@details@spdlog@@QEAA@Upadding_info@12@@Z
	??0?$t_formatter@Vscoped_padder@details@spdlog@@@details@spdlog@@QEAA@Upadding_info@12@@Z
	??0?$time_point@Usystem_clock@chrono@std@@V?$duration@_JU?$ratio@$00$0JIJGIA@@std@@@23@@chrono@std@@QEAA@AEBV?$duration@_JU?$ratio@$00$0JIJGIA@@std@@@12@@Z
	??0?$time_point@Usystem_clock@chrono@std@@V?$duration@_JU?$ratio@$00$0JIJGIA@@std@@@23@@chrono@std@@QEAA@XZ
	??0?$tuple@$$QEAV?$basic_string@DU?$char_traits@D@std@@V?$allocator@D@2@@std@@@std@@QEAA@$$QEAV01@@Z
	??0?$tuple@$$V@std@@QEAA@AEBV01@@Z
	??0?$tuple@AEBD@std@@QEAA@$$QEAV01@@Z
	??0?$tuple@AEBV?$basic_string@DU?$char_traits@D@std@@V?$allocator@D@2@@std@@@std@@QEAA@$$QEAV01@@Z
	??0?$unordered_map@DV?$unique_ptr@Vcustom_flag_formatter@spdlog@@U?$default_delete@Vcustom_flag_formatter@spdlog@@@std@@@std@@U?$hash@D@2@U?$equal_to@D@2@V?$allocator@U?$pair@$$CBDV?$unique_ptr@Vcustom_flag_formatter@spdlog@@U?$default_delete@Vcustom_flag_formatter@spdlog@@@std@@@std@@@std@@@2@@std@@QEAA@$$QEAV01@@Z
	??0?$unordered_map@DV?$unique_ptr@Vcustom_flag_formatter@spdlog@@U?$default_delete@Vcustom_flag_formatter@spdlog@@@std@@@std@@U?$hash@D@2@U?$equal_to@D@2@V?$allocator@U?$pair@$$CBDV?$unique_ptr@Vcustom_flag_formatter@spdlog@@U?$default_delete@Vcustom_flag_formatter@spdlog@@@std@@@std@@@std@@@2@@std@@QEAA@XZ
	??0?$unordered_map@V?$basic_string@DU?$char_traits@D@std@@V?$allocator@D@2@@std@@V?$shared_ptr@Vlogger@spdlog@@@2@U?$hash@V?$basic_string@DU?$char_traits@D@std@@V?$allocator@D@2@@std@@@2@U?$equal_to@V?$basic_string@DU?$char_traits@D@std@@V?$allocator@D@2@@std@@@2@V?$allocator@U?$pair@$$CBV?$basic_string@DU?$char_traits@D@std@@V?$allocator@D@2@@std@@V?$shared_ptr@Vlogger@spdlog@@@2@@std@@@2@@std@@QEAA@XZ
	??0?$unordered_map@V?$basic_string@DU?$char_traits@D@std@@V?$allocator@D@2@@std@@W4level_enum@level@spdlog@@U?$hash@V?$basic_string@DU?$char_traits@D@std@@V?$allocator@D@2@@std@@@2@U?$equal_to@V?$basic_string@DU?$char_traits@D@std@@V?$allocator@D@2@@std@@@2@V?$allocator@U?$pair@$$CBV?$basic_string@DU?$char_traits@D@std@@V?$allocator@D@2@@std@@W4level_enum@level@spdlog@@@std@@@2@@std@@QEAA@XZ
	??0?$v_formatter@Unull_scoped_padder@details@spdlog@@@details@spdlog@@QEAA@Upadding_info@12@@Z
	??0?$v_formatter@Vscoped_padder@details@spdlog@@@details@spdlog@@QEAA@Upadding_info@12@@Z
	??0?$value@Vcontext@v11@fmt@@@detail@v11@fmt@@QEAA@E@Z
	??0?$value@Vcontext@v11@fmt@@@detail@v11@fmt@@QEAA@H@Z
	??0?$value@Vcontext@v11@fmt@@@detail@v11@fmt@@QEAA@I@Z
	??0?$value@Vcontext@v11@fmt@@@detail@v11@fmt@@QEAA@M@Z
	??0?$value@Vcontext@v11@fmt@@@detail@v11@fmt@@QEAA@N@Z
	??0?$value@Vcontext@v11@fmt@@@detail@v11@fmt@@QEAA@O@Z
	??0?$value@Vcontext@v11@fmt@@@detail@v11@fmt@@QEAA@PEBD@Z
	??0?$value@Vcontext@v11@fmt@@@detail@v11@fmt@@QEAA@XZ
	??0?$value@Vcontext@v11@fmt@@@detail@v11@fmt@@QEAA@_J@Z
	??0?$value@Vcontext@v11@fmt@@@detail@v11@fmt@@QEAA@_K@Z
	??0?$vector@V?$shared_ptr@Vsink@sinks@spdlog@@@std@@V?$allocator@V?$shared_ptr@Vsink@sinks@spdlog@@@std@@@2@@std@@QEAA@AEBV01@@Z
	??0?$vector@V?$unique_ptr@Vflag_formatter@details@spdlog@@U?$default_delete@Vflag_formatter@details@spdlog@@@std@@@std@@V?$allocator@V?$unique_ptr@Vflag_formatter@details@spdlog@@U?$default_delete@Vflag_formatter@details@spdlog@@@std@@@std@@@2@@std@@QEAA@XZ
	??0?$vector@Vlog_msg_buffer@details@spdlog@@V?$allocator@Vlog_msg_buffer@details@spdlog@@@std@@@std@@QEAA@XZ
	??0?$vector@Vlog_msg_buffer@details@spdlog@@V?$allocator@Vlog_msg_buffer@details@spdlog@@@std@@@std@@QEAA@_KAEBV?$allocator@Vlog_msg_buffer@details@spdlog@@@1@@Z
	??0?$wincolor_sink@Uconsole_mutex@details@spdlog@@@sinks@spdlog@@QEAA@PEAXW4color_mode@2@@Z
	??0?$wincolor_stdout_sink@Uconsole_mutex@details@spdlog@@@sinks@spdlog@@QEAA@W4color_mode@2@@Z
	??0?$z_formatter@Unull_scoped_padder@details@spdlog@@@details@spdlog@@QEAA@Upadding_info@12@@Z
	??0?$z_formatter@Vscoped_padder@details@spdlog@@@details@spdlog@@QEAA@Upadding_info@12@@Z
	??0Application@Hazel@@QEAA@AEBV01@@Z
	??0Application@Hazel@@QEAA@XZ
	??0_Bxty@?$_String_val@U?$_Simple_types@D@std@@@std@@QEAA@XZ
	??0_Clear_guard@?$_Hash@V?$_Umap_traits@DV?$unique_ptr@Vcustom_flag_formatter@spdlog@@U?$default_delete@Vcustom_flag_formatter@spdlog@@@std@@@std@@V?$_Uhash_compare@DU?$hash@D@std@@U?$equal_to@D@2@@2@V?$allocator@U?$pair@$$CBDV?$unique_ptr@Vcustom_flag_formatter@spdlog@@U?$default_delete@Vcustom_flag_formatter@spdlog@@@std@@@std@@@std@@@2@$0A@@std@@@std@@QEAA@QEAV12@@Z
	??0_Clear_guard@?$_Hash@V?$_Umap_traits@V?$basic_string@DU?$char_traits@D@std@@V?$allocator@D@2@@std@@V?$shared_ptr@Vlogger@spdlog@@@2@V?$_Uhash_compare@V?$basic_string@DU?$char_traits@D@std@@V?$allocator@D@2@@std@@U?$hash@V?$basic_string@DU?$char_traits@D@std@@V?$allocator@D@2@@std@@@2@U?$equal_to@V?$basic_string@DU?$char_traits@D@std@@V?$allocator@D@2@@std@@@2@@2@V?$allocator@U?$pair@$$CBV?$basic_string@DU?$char_traits@D@std@@V?$allocator@D@2@@std@@V?$shared_ptr@Vlogger@spdlog@@@2@@std@@@2@$0A@@std@@@std@@QEAA@QEAV12@@Z
	??0_Facet_base@std@@QEAA@XZ
	??0_Fake_proxy_ptr_impl@std@@QEAA@AEBU_Fake_allocator@1@AEBU_Container_base0@1@@Z
	??0_Locinfo@std@@QEAA@PEBD@Z
	??0_Mutex_base@std@@QEAA@H@Z
	??0_Range_eraser@?$_Hash@V?$_Umap_traits@DV?$unique_ptr@Vcustom_flag_formatter@spdlog@@U?$default_delete@Vcustom_flag_formatter@spdlog@@@std@@@std@@V?$_Uhash_compare@DU?$hash@D@std@@U?$equal_to@D@2@@2@V?$allocator@U?$pair@$$CBDV?$unique_ptr@Vcustom_flag_formatter@spdlog@@U?$default_delete@Vcustom_flag_formatter@spdlog@@@std@@@std@@@std@@@2@$0A@@std@@@std@@QEAA@AEAV?$list@U?$pair@$$CBDV?$unique_ptr@Vcustom_flag_formatter@spdlog@@U?$default_delete@Vcustom_flag_formatter@spdlog@@@std@@@std@@@std@@V?$allocator@U?$pair@$$CBDV?$unique_ptr@Vcustom_flag_formatter@spdlog@@U?$default_delete@Vcustom_flag_formatter@spdlog@@@std@@@std@@@std@@@2@@2@QEAU?$_List_node@U?$pair@$$CBDV?$unique_ptr@Vcustom_flag_formatter@spdlog@@U?$default_delete@Vcustom_flag_formatter@spdlog@@@std@@@std@@@std@@PEAX@2@@Z
	??0_Range_eraser@?$_Hash@V?$_Umap_traits@V?$basic_string@DU?$char_traits@D@std@@V?$allocator@D@2@@std@@V?$shared_ptr@Vlogger@spdlog@@@2@V?$_Uhash_compare@V?$basic_string@DU?$char_traits@D@std@@V?$allocator@D@2@@std@@U?$hash@V?$basic_string@DU?$char_traits@D@std@@V?$allocator@D@2@@std@@@2@U?$equal_to@V?$basic_string@DU?$char_traits@D@std@@V?$allocator@D@2@@std@@@2@@2@V?$allocator@U?$pair@$$CBV?$basic_string@DU?$char_traits@D@std@@V?$allocator@D@2@@std@@V?$shared_ptr@Vlogger@spdlog@@@2@@std@@@2@$0A@@std@@@std@@QEAA@AEAV?$list@U?$pair@$$CBV?$basic_string@DU?$char_traits@D@std@@V?$allocator@D@2@@std@@V?$shared_ptr@Vlogger@spdlog@@@2@@std@@V?$allocator@U?$pair@$$CBV?$basic_string@DU?$char_traits@D@std@@V?$allocator@D@2@@std@@V?$shared_ptr@Vlogger@spdlog@@@2@@std@@@2@@2@QEAU?$_List_node@U?$pair@$$CBV?$basic_string@DU?$char_traits@D@std@@V?$allocator@D@2@@std@@V?$shared_ptr@Vlogger@spdlog@@@2@@std@@PEAX@2@@Z
	??0_Ref_count_base@std@@IEAA@XZ
	??0_System_error@std@@IEAA@Verror_code@1@AEBV?$basic_string@DU?$char_traits@D@std@@V?$allocator@D@2@@1@@Z
	??0accessor@?1???$get_container@V?$back_insert_iterator@V?$basic_memory_buffer@D$0PK@U?$allocator@D@detail@v11@fmt@@@v11@fmt@@@std@@@detail@v11@fmt@@YAAEAV?$basic_memory_buffer@D$0PK@U?$allocator@D@detail@v11@fmt@@@23@V?$back_insert_iterator@V?$basic_memory_buffer@D$0PK@U?$allocator@D@detail@v11@fmt@@@v11@fmt@@@std@@@Z@QEAA@0@Z
	??0accessor@?1???$get_container@V?$basic_appender@D@v11@fmt@@@detail@v11@fmt@@YAAEAV?$buffer@D@123@V?$basic_appender@D@23@@Z@QEAA@0@Z
	??0aggregate_formatter@details@spdlog@@QEAA@XZ
	??0backtracer@details@spdlog@@QEAA@AEBV012@@Z
	??0backtracer@details@spdlog@@QEAA@XZ
	??0bad_alloc@std@@AEAA@QEBD@Z
	??0bad_alloc@std@@QEAA@AEBV01@@Z
	??0bad_alloc@std@@QEAA@XZ
	??0bad_array_new_length@std@@QEAA@AEBV01@@Z
	??0bad_array_new_length@std@@QEAA@XZ
	??0bad_cast@std@@QEAA@AEBV01@@Z
	??0bad_cast@std@@QEAA@XZ
	??0basic_specs@v11@fmt@@QEAA@XZ
	??0bigint@detail@v11@fmt@@QEAA@XZ
	??0ch_formatter@details@spdlog@@QEAA@D@Z
	??0color_start_formatter@details@spdlog@@QEAA@Upadding_info@12@@Z
	??0color_stop_formatter@details@spdlog@@QEAA@Upadding_info@12@@Z
	??0context@v11@fmt@@QEAA@V?$basic_appender@D@12@V?$basic_format_args@Vcontext@v11@fmt@@@12@Ulocale_ref@detail@12@@Z
	??0error_code@std@@QEAA@HAEBVerror_category@1@@Z
	??0error_condition@std@@QEAA@HAEBVerror_category@1@@Z
	??0exception@std@@QEAA@AEBV01@@Z
	??0exception@std@@QEAA@QEBD@Z
	??0exception@std@@QEAA@QEBDH@Z
	??0exception@std@@QEAA@XZ
	??0facet@locale@std@@IEAA@_K@Z
	??0flag_formatter@details@spdlog@@QEAA@Upadding_info@12@@Z
	??0flag_formatter@details@spdlog@@QEAA@XZ
	??0format_error@v11@fmt@@QEAA@AEBV012@@Z
	??0format_error@v11@fmt@@QEAA@PEBD@Z
	??0format_int@v11@fmt@@QEAA@H@Z
	??0format_int@v11@fmt@@QEAA@I@Z
	??0format_int@v11@fmt@@QEAA@_J@Z
	??0format_int@v11@fmt@@QEAA@_K@Z
	??0format_specs@v11@fmt@@QEAA@XZ
	??0formatter@spdlog@@QEAA@XZ
	??0full_formatter@details@spdlog@@QEAA@Upadding_info@12@@Z
	??0handle@?$basic_format_arg@Vcontext@v11@fmt@@@v11@fmt@@QEAA@U?$custom_value@Vcontext@v11@fmt@@@detail@23@@Z
	??0locale@std@@QEAA@AEBV01@@Z
	??0locale@std@@QEAA@XZ
	??0locale_ref@detail@v11@fmt@@QEAA@XZ
	??0log_msg@details@spdlog@@QEAA@XZ
	??0log_msg_buffer@details@spdlog@@QEAA@AEBV012@@Z
	??0log_msg_buffer@details@spdlog@@QEAA@XZ
	??0logger@spdlog@@QEAA@AEBV01@@Z
	??0logger@spdlog@@QEAA@V?$basic_string@DU?$char_traits@D@std@@V?$allocator@D@2@@std@@V?$initializer_list@V?$shared_ptr@Vsink@sinks@spdlog@@@std@@@3@@Z
	??0logger@spdlog@@QEAA@V?$basic_string@DU?$char_traits@D@std@@V?$allocator@D@2@@std@@V?$shared_ptr@Vsink@sinks@spdlog@@@3@@Z
	??0monostate@v11@fmt@@QEAA@XZ
	??0mutex@std@@QEAA@XZ
	??0null_scoped_padder@details@spdlog@@QEAA@_KAEBUpadding_info@12@AEAV?$basic_memory_buffer@D$0PK@U?$allocator@D@detail@v11@fmt@@@v11@fmt@@@Z
	??0padding_info@details@spdlog@@QEAA@XZ
	??0padding_info@details@spdlog@@QEAA@_KW4pad_side@012@_N@Z
	??0pattern_formatter@spdlog@@QEAA@V?$basic_string@DU?$char_traits@D@std@@V?$allocator@D@2@@std@@W4pattern_time_type@1@0V?$unordered_map@DV?$unique_ptr@Vcustom_flag_formatter@spdlog@@U?$default_delete@Vcustom_flag_formatter@spdlog@@@std@@@std@@U?$hash@D@2@U?$equal_to@D@2@V?$allocator@U?$pair@$$CBDV?$unique_ptr@Vcustom_flag_formatter@spdlog@@U?$default_delete@Vcustom_flag_formatter@spdlog@@@std@@@std@@@std@@@2@@3@@Z
	??0pattern_formatter@spdlog@@QEAA@W4pattern_time_type@1@V?$basic_string@DU?$char_traits@D@std@@V?$allocator@D@2@@std@@@Z
	??0recursive_mutex@std@@QEAA@XZ
	??0registry@details@spdlog@@AEAA@XZ
	??0runtime_error@std@@QEAA@AEBV01@@Z
	??0runtime_error@std@@QEAA@AEBV?$basic_string@DU?$char_traits@D@std@@V?$allocator@D@2@@1@@Z
	??0runtime_error@std@@QEAA@PEBD@Z
	??0scoped_padder@details@spdlog@@QEAA@_KAEBUpadding_info@12@AEAV?$basic_memory_buffer@D$0PK@U?$allocator@D@detail@v11@fmt@@@v11@fmt@@@Z
	??0sink@sinks@spdlog@@QEAA@XZ
	??0size_padding@detail@v11@fmt@@QEAA@HIAEBUformat_specs@23@@Z
	??0source_loc@spdlog@@QEAA@XZ
	??0spdlog_ex@spdlog@@QEAA@AEBV01@@Z
	??0spdlog_ex@spdlog@@QEAA@AEBV?$basic_string@DU?$char_traits@D@std@@V?$allocator@D@2@@std@@H@Z
	??0spdlog_ex@spdlog@@QEAA@V?$basic_string@DU?$char_traits@D@std@@V?$allocator@D@2@@std@@@Z
	??0system_error@std@@QEAA@Verror_code@1@PEBD@Z
	??0uint128_fallback@detail@v11@fmt@@QEAA@_K0@Z
	??0uint128_fallback@detail@v11@fmt@@QEAA@_K@Z
	??1?$A_formatter@Unull_scoped_padder@details@spdlog@@@details@spdlog@@UEAA@XZ
	??1?$A_formatter@Vscoped_padder@details@spdlog@@@details@spdlog@@UEAA@XZ
	??1?$B_formatter@Unull_scoped_padder@details@spdlog@@@details@spdlog@@UEAA@XZ
	??1?$B_formatter@Vscoped_padder@details@spdlog@@@details@spdlog@@UEAA@XZ
	??1?$C_formatter@Unull_scoped_padder@details@spdlog@@@details@spdlog@@UEAA@XZ
	??1?$C_formatter@Vscoped_padder@details@spdlog@@@details@spdlog@@UEAA@XZ
	??1?$D_formatter@Unull_scoped_padder@details@spdlog@@@details@spdlog@@UEAA@XZ
	??1?$D_formatter@Vscoped_padder@details@spdlog@@@details@spdlog@@UEAA@XZ
	??1?$E_formatter@Unull_scoped_padder@details@spdlog@@@details@spdlog@@UEAA@XZ
	??1?$E_formatter@Vscoped_padder@details@spdlog@@@details@spdlog@@UEAA@XZ
	??1?$F_formatter@Unull_scoped_padder@details@spdlog@@@details@spdlog@@UEAA@XZ
	??1?$F_formatter@Vscoped_padder@details@spdlog@@@details@spdlog@@UEAA@XZ
	??1?$H_formatter@Unull_scoped_padder@details@spdlog@@@details@spdlog@@UEAA@XZ
	??1?$H_formatter@Vscoped_padder@details@spdlog@@@details@spdlog@@UEAA@XZ
	??1?$I_formatter@Unull_scoped_padder@details@spdlog@@@details@spdlog@@UEAA@XZ
	??1?$I_formatter@Vscoped_padder@details@spdlog@@@details@spdlog@@UEAA@XZ
	??1?$M_formatter@Unull_scoped_padder@details@spdlog@@@details@spdlog@@UEAA@XZ
	??1?$M_formatter@Vscoped_padder@details@spdlog@@@details@spdlog@@UEAA@XZ
	??1?$R_formatter@Unull_scoped_padder@details@spdlog@@@details@spdlog@@UEAA@XZ
	??1?$R_formatter@Vscoped_padder@details@spdlog@@@details@spdlog@@UEAA@XZ
	??1?$S_formatter@Unull_scoped_padder@details@spdlog@@@details@spdlog@@UEAA@XZ
	??1?$S_formatter@Vscoped_padder@details@spdlog@@@details@spdlog@@UEAA@XZ
	??1?$T_formatter@Unull_scoped_padder@details@spdlog@@@details@spdlog@@UEAA@XZ
	??1?$T_formatter@Vscoped_padder@details@spdlog@@@details@spdlog@@UEAA@XZ
	??1?$Y_formatter@Unull_scoped_padder@details@spdlog@@@details@spdlog@@UEAA@XZ
	??1?$Y_formatter@Vscoped_padder@details@spdlog@@@details@spdlog@@UEAA@XZ
	??1?$_Alloc_construct_ptr@V?$allocator@U?$_List_node@U?$pair@$$CBDV?$unique_ptr@Vcustom_flag_formatter@spdlog@@U?$default_delete@Vcustom_flag_formatter@spdlog@@@std@@@std@@@std@@PEAX@std@@@std@@@std@@QEAA@XZ
	??1?$_Alloc_construct_ptr@V?$allocator@U?$_List_node@U?$pair@$$CBV?$basic_string@DU?$char_traits@D@std@@V?$allocator@D@2@@std@@V?$shared_ptr@Vlogger@spdlog@@@2@@std@@PEAX@std@@@std@@@std@@QEAA@XZ
	??1?$_Compressed_pair@V?$allocator@D@std@@V?$_String_val@U?$_Simple_types@D@std@@@2@$00@std@@QEAA@XZ
	??1?$_Func_class@XAEBV?$basic_string@DU?$char_traits@D@std@@V?$allocator@D@2@@std@@@std@@QEAA@XZ
	??1?$_Hash@V?$_Umap_traits@DV?$unique_ptr@Vcustom_flag_formatter@spdlog@@U?$default_delete@Vcustom_flag_formatter@spdlog@@@std@@@std@@V?$_Uhash_compare@DU?$hash@D@std@@U?$equal_to@D@2@@2@V?$allocator@U?$pair@$$CBDV?$unique_ptr@Vcustom_flag_formatter@spdlog@@U?$default_delete@Vcustom_flag_formatter@spdlog@@@std@@@std@@@std@@@2@$0A@@std@@@std@@QEAA@XZ
	??1?$_Hash@V?$_Umap_traits@V?$basic_string@DU?$char_traits@D@std@@V?$allocator@D@2@@std@@V?$shared_ptr@Vlogger@spdlog@@@2@V?$_Uhash_compare@V?$basic_string@DU?$char_traits@D@std@@V?$allocator@D@2@@std@@U?$hash@V?$basic_string@DU?$char_traits@D@std@@V?$allocator@D@2@@std@@@2@U?$equal_to@V?$basic_string@DU?$char_traits@D@std@@V?$allocator@D@2@@std@@@2@@2@V?$allocator@U?$pair@$$CBV?$basic_string@DU?$char_traits@D@std@@V?$allocator@D@2@@std@@V?$shared_ptr@Vlogger@spdlog@@@2@@std@@@2@$0A@@std@@@std@@QEAA@XZ
	??1?$_Hash@V?$_Umap_traits@V?$basic_string@DU?$char_traits@D@std@@V?$allocator@D@2@@std@@W4level_enum@level@spdlog@@V?$_Uhash_compare@V?$basic_string@DU?$char_traits@D@std@@V?$allocator@D@2@@std@@U?$hash@V?$basic_string@DU?$char_traits@D@std@@V?$allocator@D@2@@std@@@2@U?$equal_to@V?$basic_string@DU?$char_traits@D@std@@V?$allocator@D@2@@std@@@2@@2@V?$allocator@U?$pair@$$CBV?$basic_string@DU?$char_traits@D@std@@V?$allocator@D@2@@std@@W4level_enum@level@spdlog@@@std@@@2@$0A@@std@@@std@@QEAA@XZ
	??1?$_Hash_vec@V?$allocator@V?$_List_unchecked_iterator@V?$_List_val@U?$_List_simple_types@U?$pair@$$CBDV?$unique_ptr@Vcustom_flag_formatter@spdlog@@U?$default_delete@Vcustom_flag_formatter@spdlog@@@std@@@std@@@std@@@std@@@std@@@std@@@std@@@std@@QEAA@XZ
	??1?$_Hash_vec@V?$allocator@V?$_List_unchecked_iterator@V?$_List_val@U?$_List_simple_types@U?$pair@$$CBV?$basic_string@DU?$char_traits@D@std@@V?$allocator@D@2@@std@@V?$shared_ptr@Vlogger@spdlog@@@2@@std@@@std@@@std@@@std@@@std@@@std@@QEAA@XZ
	??1?$_Hash_vec@V?$allocator@V?$_List_unchecked_iterator@V?$_List_val@U?$_List_simple_types@U?$pair@$$CBV?$basic_string@DU?$char_traits@D@std@@V?$allocator@D@2@@std@@W4level_enum@level@spdlog@@@std@@@std@@@std@@@std@@@std@@@std@@QEAA@XZ
	??1?$_List_node_emplace_op2@V?$allocator@U?$_List_node@U?$pair@$$CBDV?$unique_ptr@Vcustom_flag_formatter@spdlog@@U?$default_delete@Vcustom_flag_formatter@spdlog@@@std@@@std@@@std@@PEAX@std@@@std@@@std@@QEAA@XZ
	??1?$_List_node_emplace_op2@V?$allocator@U?$_List_node@U?$pair@$$CBV?$basic_string@DU?$char_traits@D@std@@V?$allocator@D@2@@std@@V?$shared_ptr@Vlogger@spdlog@@@2@@std@@PEAX@std@@@std@@@std@@QEAA@XZ
	??1?$_Ref_count_obj2@V?$wincolor_stdout_sink@Uconsole_mutex@details@spdlog@@@sinks@spdlog@@@std@@UEAA@XZ
	??1?$_Ref_count_obj2@Vlogger@spdlog@@@std@@UEAA@XZ
	??1?$_String_val@U?$_Simple_types@D@std@@@std@@QEAA@XZ
	??1?$_Tidy_guard@V?$numpunct@D@std@@@std@@QEAA@XZ
	??1?$_Tidy_guard@V?$vector@V?$shared_ptr@Vsink@sinks@spdlog@@@std@@V?$allocator@V?$shared_ptr@Vsink@sinks@spdlog@@@std@@@2@@std@@@std@@QEAA@XZ
	??1?$_Tidy_guard@V?$vector@Vlog_msg_buffer@details@spdlog@@V?$allocator@Vlog_msg_buffer@details@spdlog@@@std@@@std@@@std@@QEAA@XZ
	??1?$_Tree@V?$_Tmap_traits@V?$basic_string@DU?$char_traits@D@std@@V?$allocator@D@2@@std@@V12@U?$less@V?$basic_string@DU?$char_traits@D@std@@V?$allocator@D@2@@std@@@2@V?$allocator@U?$pair@$$CBV?$basic_string@DU?$char_traits@D@std@@V?$allocator@D@2@@std@@V12@@std@@@2@$0A@@std@@@std@@QEAA@XZ
	??1?$_Uninitialized_backout@PEAV?$_List_unchecked_iterator@V?$_List_val@U?$_List_simple_types@U?$pair@$$CBDV?$unique_ptr@Vcustom_flag_formatter@spdlog@@U?$default_delete@Vcustom_flag_formatter@spdlog@@@std@@@std@@@std@@@std@@@std@@@std@@@std@@QEAA@XZ
	??1?$_Uninitialized_backout@PEAV?$_List_unchecked_iterator@V?$_List_val@U?$_List_simple_types@U?$pair@$$CBV?$basic_string@DU?$char_traits@D@std@@V?$allocator@D@2@@std@@V?$shared_ptr@Vlogger@spdlog@@@2@@std@@@std@@@std@@@std@@@std@@QEAA@XZ
	??1?$_Uninitialized_backout@PEAV?$_List_unchecked_iterator@V?$_List_val@U?$_List_simple_types@U?$pair@$$CBV?$basic_string@DU?$char_traits@D@std@@V?$allocator@D@2@@std@@W4level_enum@level@spdlog@@@std@@@std@@@std@@@std@@@std@@QEAA@XZ
	??1?$_Uninitialized_backout_al@V?$allocator@V?$shared_ptr@Vsink@sinks@spdlog@@@std@@@std@@@std@@QEAA@XZ
	??1?$_Uninitialized_backout_al@V?$allocator@V?$unique_ptr@Vflag_formatter@details@spdlog@@U?$default_delete@Vflag_formatter@details@spdlog@@@std@@@std@@@std@@@std@@QEAA@XZ
	??1?$_Uninitialized_backout_al@V?$allocator@Vlog_msg_buffer@details@spdlog@@@std@@@std@@QEAA@XZ
	??1?$_Yarn@D@std@@QEAA@XZ
	??1?$_Yarn@_W@std@@QEAA@XZ
	??1?$a_formatter@Unull_scoped_padder@details@spdlog@@@details@spdlog@@UEAA@XZ
	??1?$a_formatter@Vscoped_padder@details@spdlog@@@details@spdlog@@UEAA@XZ
	??1?$b_formatter@Unull_scoped_padder@details@spdlog@@@details@spdlog@@UEAA@XZ
	??1?$b_formatter@Vscoped_padder@details@spdlog@@@details@spdlog@@UEAA@XZ
	??1?$basic_memory_buffer@D$0BPE@U?$allocator@D@detail@v11@fmt@@@v11@fmt@@QEAA@XZ
	??1?$basic_memory_buffer@D$0PK@U?$allocator@D@detail@v11@fmt@@@v11@fmt@@QEAA@XZ
	??1?$basic_memory_buffer@H$0BPE@U?$allocator@H@detail@v11@fmt@@@v11@fmt@@QEAA@XZ
	??1?$basic_memory_buffer@I$0CA@U?$allocator@I@detail@v11@fmt@@@v11@fmt@@QEAA@XZ
	??1?$basic_string@DU?$char_traits@D@std@@V?$allocator@D@2@@std@@QEAA@XZ
	??1?$c_formatter@Unull_scoped_padder@details@spdlog@@@details@spdlog@@UEAA@XZ
	??1?$c_formatter@Vscoped_padder@details@spdlog@@@details@spdlog@@UEAA@XZ
	??1?$circular_q@Vlog_msg_buffer@details@spdlog@@@details@spdlog@@QEAA@XZ
	??1?$d_formatter@Unull_scoped_padder@details@spdlog@@@details@spdlog@@UEAA@XZ
	??1?$d_formatter@Vscoped_padder@details@spdlog@@@details@spdlog@@UEAA@XZ
	??1?$digit_grouping@D@detail@v11@fmt@@QEAA@XZ
	??1?$e_formatter@Unull_scoped_padder@details@spdlog@@@details@spdlog@@UEAA@XZ
	??1?$e_formatter@Vscoped_padder@details@spdlog@@@details@spdlog@@UEAA@XZ
	??1?$elapsed_formatter@Unull_scoped_padder@details@spdlog@@V?$duration@_JU?$ratio@$00$00@std@@@chrono@std@@@details@spdlog@@UEAA@XZ
	??1?$elapsed_formatter@Unull_scoped_padder@details@spdlog@@V?$duration@_JU?$ratio@$00$0DLJKMKAA@@std@@@chrono@std@@@details@spdlog@@UEAA@XZ
	??1?$elapsed_formatter@Unull_scoped_padder@details@spdlog@@V?$duration@_JU?$ratio@$00$0DOI@@std@@@chrono@std@@@details@spdlog@@UEAA@XZ
	??1?$elapsed_formatter@Unull_scoped_padder@details@spdlog@@V?$duration@_JU?$ratio@$00$0PECEA@@std@@@chrono@std@@@details@spdlog@@UEAA@XZ
	??1?$elapsed_formatter@Vscoped_padder@details@spdlog@@V?$duration@_JU?$ratio@$00$00@std@@@chrono@std@@@details@spdlog@@UEAA@XZ
	??1?$elapsed_formatter@Vscoped_padder@details@spdlog@@V?$duration@_JU?$ratio@$00$0DLJKMKAA@@std@@@chrono@std@@@details@spdlog@@UEAA@XZ
	??1?$elapsed_formatter@Vscoped_padder@details@spdlog@@V?$duration@_JU?$ratio@$00$0DOI@@std@@@chrono@std@@@details@spdlog@@UEAA@XZ
	??1?$elapsed_formatter@Vscoped_padder@details@spdlog@@V?$duration@_JU?$ratio@$00$0PECEA@@std@@@chrono@std@@@details@spdlog@@UEAA@XZ
	??1?$f_formatter@Unull_scoped_padder@details@spdlog@@@details@spdlog@@UEAA@XZ
	??1?$f_formatter@Vscoped_padder@details@spdlog@@@details@spdlog@@UEAA@XZ
	??1?$format_facet@Vlocale@std@@@v11@fmt@@UEAA@XZ
	??1?$function@$$A6AXAEBV?$basic_string@DU?$char_traits@D@std@@V?$allocator@D@2@@std@@@Z@std@@QEAA@XZ
	??1?$level_formatter@Unull_scoped_padder@details@spdlog@@@details@spdlog@@UEAA@XZ
	??1?$level_formatter@Vscoped_padder@details@spdlog@@@details@spdlog@@UEAA@XZ
	??1?$list@U?$pair@$$CBDV?$unique_ptr@Vcustom_flag_formatter@spdlog@@U?$default_delete@Vcustom_flag_formatter@spdlog@@@std@@@std@@@std@@V?$allocator@U?$pair@$$CBDV?$unique_ptr@Vcustom_flag_formatter@spdlog@@U?$default_delete@Vcustom_flag_formatter@spdlog@@@std@@@std@@@std@@@2@@std@@QEAA@XZ
	??1?$list@U?$pair@$$CBV?$basic_string@DU?$char_traits@D@std@@V?$allocator@D@2@@std@@V?$shared_ptr@Vlogger@spdlog@@@2@@std@@V?$allocator@U?$pair@$$CBV?$basic_string@DU?$char_traits@D@std@@V?$allocator@D@2@@std@@V?$shared_ptr@Vlogger@spdlog@@@2@@std@@@2@@std@@QEAA@XZ
	??1?$list@U?$pair@$$CBV?$basic_string@DU?$char_traits@D@std@@V?$allocator@D@2@@std@@W4level_enum@level@spdlog@@@std@@V?$allocator@U?$pair@$$CBV?$basic_string@DU?$char_traits@D@std@@V?$allocator@D@2@@std@@W4level_enum@level@spdlog@@@std@@@2@@std@@QEAA@XZ
	??1?$loc_writer@D@detail@v11@fmt@@QEAA@XZ
	??1?$lock_guard@Vmutex@std@@@std@@QEAA@XZ
	??1?$m_formatter@Unull_scoped_padder@details@spdlog@@@details@spdlog@@UEAA@XZ
	??1?$m_formatter@Vscoped_padder@details@spdlog@@@details@spdlog@@UEAA@XZ
	??1?$map@V?$basic_string@DU?$char_traits@D@std@@V?$allocator@D@2@@std@@V12@U?$less@V?$basic_string@DU?$char_traits@D@std@@V?$allocator@D@2@@std@@@2@V?$allocator@U?$pair@$$CBV?$basic_string@DU?$char_traits@D@std@@V?$allocator@D@2@@std@@V12@@std@@@2@@std@@QEAA@XZ
	??1?$mdc_formatter@Unull_scoped_padder@details@spdlog@@@details@spdlog@@UEAA@XZ
	??1?$mdc_formatter@Vscoped_padder@details@spdlog@@@details@spdlog@@UEAA@XZ
	??1?$name_formatter@Unull_scoped_padder@details@spdlog@@@details@spdlog@@UEAA@XZ
	??1?$name_formatter@Vscoped_padder@details@spdlog@@@details@spdlog@@UEAA@XZ
	??1?$numpunct@D@std@@MEAA@XZ
	??1?$p_formatter@Unull_scoped_padder@details@spdlog@@@details@spdlog@@UEAA@XZ
	??1?$p_formatter@Vscoped_padder@details@spdlog@@@details@spdlog@@UEAA@XZ
	??1?$pair@$$CBDV?$unique_ptr@Vcustom_flag_formatter@spdlog@@U?$default_delete@Vcustom_flag_formatter@spdlog@@@std@@@std@@@std@@QEAA@XZ
	??1?$pair@$$CBV?$basic_string@DU?$char_traits@D@std@@V?$allocator@D@2@@std@@V12@@std@@QEAA@XZ
	??1?$pair@$$CBV?$basic_string@DU?$char_traits@D@std@@V?$allocator@D@2@@std@@V?$shared_ptr@Vlogger@spdlog@@@2@@std@@QEAA@XZ
	??1?$pair@$$CBV?$basic_string@DU?$char_traits@D@std@@V?$allocator@D@2@@std@@W4level_enum@level@spdlog@@@std@@QEAA@XZ
	??1?$pid_formatter@Unull_scoped_padder@details@spdlog@@@details@spdlog@@UEAA@XZ
	??1?$pid_formatter@Vscoped_padder@details@spdlog@@@details@spdlog@@UEAA@XZ
	??1?$r_formatter@Unull_scoped_padder@details@spdlog@@@details@spdlog@@UEAA@XZ
	??1?$r_formatter@Vscoped_padder@details@spdlog@@@details@spdlog@@UEAA@XZ
	??1?$shared_ptr@V?$wincolor_stdout_sink@Uconsole_mutex@details@spdlog@@@sinks@spdlog@@@std@@QEAA@XZ
	??1?$shared_ptr@Vlogger@spdlog@@@std@@QEAA@XZ
	??1?$shared_ptr@Vsink@sinks@spdlog@@@std@@QEAA@XZ
	??1?$shared_ptr@Vthread_pool@details@spdlog@@@std@@QEAA@XZ
	??1?$short_filename_formatter@Unull_scoped_padder@details@spdlog@@@details@spdlog@@UEAA@XZ
	??1?$short_filename_formatter@Vscoped_padder@details@spdlog@@@details@spdlog@@UEAA@XZ
	??1?$short_level_formatter@Unull_scoped_padder@details@spdlog@@@details@spdlog@@UEAA@XZ
	??1?$short_level_formatter@Vscoped_padder@details@spdlog@@@details@spdlog@@UEAA@XZ
	??1?$source_filename_formatter@Unull_scoped_padder@details@spdlog@@@details@spdlog@@UEAA@XZ
	??1?$source_filename_formatter@Vscoped_padder@details@spdlog@@@details@spdlog@@UEAA@XZ
	??1?$source_funcname_formatter@Unull_scoped_padder@details@spdlog@@@details@spdlog@@UEAA@XZ
	??1?$source_funcname_formatter@Vscoped_padder@details@spdlog@@@details@spdlog@@UEAA@XZ
	??1?$source_linenum_formatter@Unull_scoped_padder@details@spdlog@@@details@spdlog@@UEAA@XZ
	??1?$source_linenum_formatter@Vscoped_padder@details@spdlog@@@details@spdlog@@UEAA@XZ
	??1?$source_location_formatter@Unull_scoped_padder@details@spdlog@@@details@spdlog@@UEAA@XZ
	??1?$source_location_formatter@Vscoped_padder@details@spdlog@@@details@spdlog@@UEAA@XZ
	??1?$t_formatter@Unull_scoped_padder@details@spdlog@@@details@spdlog@@UEAA@XZ
	??1?$t_formatter@Vscoped_padder@details@spdlog@@@details@spdlog@@UEAA@XZ
	??1?$thousands_sep_result@D@detail@v11@fmt@@QEAA@XZ
	??1?$unique_ptr@V?$A_formatter@Unull_scoped_padder@details@spdlog@@@details@spdlog@@U?$default_delete@V?$A_formatter@Unull_scoped_padder@details@spdlog@@@details@spdlog@@@std@@@std@@QEAA@XZ
	??1?$unique_ptr@V?$A_formatter@Vscoped_padder@details@spdlog@@@details@spdlog@@U?$default_delete@V?$A_formatter@Vscoped_padder@details@spdlog@@@details@spdlog@@@std@@@std@@QEAA@XZ
	??1?$unique_ptr@V?$B_formatter@Unull_scoped_padder@details@spdlog@@@details@spdlog@@U?$default_delete@V?$B_formatter@Unull_scoped_padder@details@spdlog@@@details@spdlog@@@std@@@std@@QEAA@XZ
	??1?$unique_ptr@V?$B_formatter@Vscoped_padder@details@spdlog@@@details@spdlog@@U?$default_delete@V?$B_formatter@Vscoped_padder@details@spdlog@@@details@spdlog@@@std@@@std@@QEAA@XZ
	??1?$unique_ptr@V?$C_formatter@Unull_scoped_padder@details@spdlog@@@details@spdlog@@U?$default_delete@V?$C_formatter@Unull_scoped_padder@details@spdlog@@@details@spdlog@@@std@@@std@@QEAA@XZ
	??1?$unique_ptr@V?$C_formatter@Vscoped_padder@details@spdlog@@@details@spdlog@@U?$default_delete@V?$C_formatter@Vscoped_padder@details@spdlog@@@details@spdlog@@@std@@@std@@QEAA@XZ
	??1?$unique_ptr@V?$D_formatter@Unull_scoped_padder@details@spdlog@@@details@spdlog@@U?$default_delete@V?$D_formatter@Unull_scoped_padder@details@spdlog@@@details@spdlog@@@std@@@std@@QEAA@XZ
	??1?$unique_ptr@V?$D_formatter@Vscoped_padder@details@spdlog@@@details@spdlog@@U?$default_delete@V?$D_formatter@Vscoped_padder@details@spdlog@@@details@spdlog@@@std@@@std@@QEAA@XZ
	??1?$unique_ptr@V?$E_formatter@Unull_scoped_padder@details@spdlog@@@details@spdlog@@U?$default_delete@V?$E_formatter@Unull_scoped_padder@details@spdlog@@@details@spdlog@@@std@@@std@@QEAA@XZ
	??1?$unique_ptr@V?$E_formatter@Vscoped_padder@details@spdlog@@@details@spdlog@@U?$default_delete@V?$E_formatter@Vscoped_padder@details@spdlog@@@details@spdlog@@@std@@@std@@QEAA@XZ
	??1?$unique_ptr@V?$F_formatter@Unull_scoped_padder@details@spdlog@@@details@spdlog@@U?$default_delete@V?$F_formatter@Unull_scoped_padder@details@spdlog@@@details@spdlog@@@std@@@std@@QEAA@XZ
	??1?$unique_ptr@V?$F_formatter@Vscoped_padder@details@spdlog@@@details@spdlog@@U?$default_delete@V?$F_formatter@Vscoped_padder@details@spdlog@@@details@spdlog@@@std@@@std@@QEAA@XZ
	??1?$unique_ptr@V?$H_formatter@Unull_scoped_padder@details@spdlog@@@details@spdlog@@U?$default_delete@V?$H_formatter@Unull_scoped_padder@details@spdlog@@@details@spdlog@@@std@@@std@@QEAA@XZ
	??1?$unique_ptr@V?$H_formatter@Vscoped_padder@details@spdlog@@@details@spdlog@@U?$default_delete@V?$H_formatter@Vscoped_padder@details@spdlog@@@details@spdlog@@@std@@@std@@QEAA@XZ
	??1?$unique_ptr@V?$I_formatter@Unull_scoped_padder@details@spdlog@@@details@spdlog@@U?$default_delete@V?$I_formatter@Unull_scoped_padder@details@spdlog@@@details@spdlog@@@std@@@std@@QEAA@XZ
	??1?$unique_ptr@V?$I_formatter@Vscoped_padder@details@spdlog@@@details@spdlog@@U?$default_delete@V?$I_formatter@Vscoped_padder@details@spdlog@@@details@spdlog@@@std@@@std@@QEAA@XZ
	??1?$unique_ptr@V?$M_formatter@Unull_scoped_padder@details@spdlog@@@details@spdlog@@U?$default_delete@V?$M_formatter@Unull_scoped_padder@details@spdlog@@@details@spdlog@@@std@@@std@@QEAA@XZ
	??1?$unique_ptr@V?$M_formatter@Vscoped_padder@details@spdlog@@@details@spdlog@@U?$default_delete@V?$M_formatter@Vscoped_padder@details@spdlog@@@details@spdlog@@@std@@@std@@QEAA@XZ
	??1?$unique_ptr@V?$R_formatter@Unull_scoped_padder@details@spdlog@@@details@spdlog@@U?$default_delete@V?$R_formatter@Unull_scoped_padder@details@spdlog@@@details@spdlog@@@std@@@std@@QEAA@XZ
	??1?$unique_ptr@V?$R_formatter@Vscoped_padder@details@spdlog@@@details@spdlog@@U?$default_delete@V?$R_formatter@Vscoped_padder@details@spdlog@@@details@spdlog@@@std@@@std@@QEAA@XZ
	??1?$unique_ptr@V?$S_formatter@Unull_scoped_padder@details@spdlog@@@details@spdlog@@U?$default_delete@V?$S_formatter@Unull_scoped_padder@details@spdlog@@@details@spdlog@@@std@@@std@@QEAA@XZ
	??1?$unique_ptr@V?$S_formatter@Vscoped_padder@details@spdlog@@@details@spdlog@@U?$default_delete@V?$S_formatter@Vscoped_padder@details@spdlog@@@details@spdlog@@@std@@@std@@QEAA@XZ
	??1?$unique_ptr@V?$T_formatter@Unull_scoped_padder@details@spdlog@@@details@spdlog@@U?$default_delete@V?$T_formatter@Unull_scoped_padder@details@spdlog@@@details@spdlog@@@std@@@std@@QEAA@XZ
	??1?$unique_ptr@V?$T_formatter@Vscoped_padder@details@spdlog@@@details@spdlog@@U?$default_delete@V?$T_formatter@Vscoped_padder@details@spdlog@@@details@spdlog@@@std@@@std@@QEAA@XZ
	??1?$unique_ptr@V?$Y_formatter@Unull_scoped_padder@details@spdlog@@@details@spdlog@@U?$default_delete@V?$Y_formatter@Unull_scoped_padder@details@spdlog@@@details@spdlog@@@std@@@std@@QEAA@XZ
	??1?$unique_ptr@V?$Y_formatter@Vscoped_padder@details@spdlog@@@details@spdlog@@U?$default_delete@V?$Y_formatter@Vscoped_padder@details@spdlog@@@details@spdlog@@@std@@@std@@QEAA@XZ
	??1?$unique_ptr@V?$a_formatter@Unull_scoped_padder@details@spdlog@@@details@spdlog@@U?$default_delete@V?$a_formatter@Unull_scoped_padder@details@spdlog@@@details@spdlog@@@std@@@std@@QEAA@XZ
	??1?$unique_ptr@V?$a_formatter@Vscoped_padder@details@spdlog@@@details@spdlog@@U?$default_delete@V?$a_formatter@Vscoped_padder@details@spdlog@@@details@spdlog@@@std@@@std@@QEAA@XZ
	??1?$unique_ptr@V?$b_formatter@Unull_scoped_padder@details@spdlog@@@details@spdlog@@U?$default_delete@V?$b_formatter@Unull_scoped_padder@details@spdlog@@@details@spdlog@@@std@@@std@@QEAA@XZ
	??1?$unique_ptr@V?$b_formatter@Vscoped_padder@details@spdlog@@@details@spdlog@@U?$default_delete@V?$b_formatter@Vscoped_padder@details@spdlog@@@details@spdlog@@@std@@@std@@QEAA@XZ
	??1?$unique_ptr@V?$c_formatter@Unull_scoped_padder@details@spdlog@@@details@spdlog@@U?$default_delete@V?$c_formatter@Unull_scoped_padder@details@spdlog@@@details@spdlog@@@std@@@std@@QEAA@XZ
	??1?$unique_ptr@V?$c_formatter@Vscoped_padder@details@spdlog@@@details@spdlog@@U?$default_delete@V?$c_formatter@Vscoped_padder@details@spdlog@@@details@spdlog@@@std@@@std@@QEAA@XZ
	??1?$unique_ptr@V?$d_formatter@Unull_scoped_padder@details@spdlog@@@details@spdlog@@U?$default_delete@V?$d_formatter@Unull_scoped_padder@details@spdlog@@@details@spdlog@@@std@@@std@@QEAA@XZ
	??1?$unique_ptr@V?$d_formatter@Vscoped_padder@details@spdlog@@@details@spdlog@@U?$default_delete@V?$d_formatter@Vscoped_padder@details@spdlog@@@details@spdlog@@@std@@@std@@QEAA@XZ
	??1?$unique_ptr@V?$e_formatter@Unull_scoped_padder@details@spdlog@@@details@spdlog@@U?$default_delete@V?$e_formatter@Unull_scoped_padder@details@spdlog@@@details@spdlog@@@std@@@std@@QEAA@XZ
	??1?$unique_ptr@V?$e_formatter@Vscoped_padder@details@spdlog@@@details@spdlog@@U?$default_delete@V?$e_formatter@Vscoped_padder@details@spdlog@@@details@spdlog@@@std@@@std@@QEAA@XZ
	??1?$unique_ptr@V?$elapsed_formatter@Unull_scoped_padder@details@spdlog@@V?$duration@_JU?$ratio@$00$00@std@@@chrono@std@@@details@spdlog@@U?$default_delete@V?$elapsed_formatter@Unull_scoped_padder@details@spdlog@@V?$duration@_JU?$ratio@$00$00@std@@@chrono@std@@@details@spdlog@@@std@@@std@@QEAA@XZ
	??1?$unique_ptr@V?$elapsed_formatter@Unull_scoped_padder@details@spdlog@@V?$duration@_JU?$ratio@$00$0DLJKMKAA@@std@@@chrono@std@@@details@spdlog@@U?$default_delete@V?$elapsed_formatter@Unull_scoped_padder@details@spdlog@@V?$duration@_JU?$ratio@$00$0DLJKMKAA@@std@@@chrono@std@@@details@spdlog@@@std@@@std@@QEAA@XZ
	??1?$unique_ptr@V?$elapsed_formatter@Unull_scoped_padder@details@spdlog@@V?$duration@_JU?$ratio@$00$0DOI@@std@@@chrono@std@@@details@spdlog@@U?$default_delete@V?$elapsed_formatter@Unull_scoped_padder@details@spdlog@@V?$duration@_JU?$ratio@$00$0DOI@@std@@@chrono@std@@@details@spdlog@@@std@@@std@@QEAA@XZ
	??1?$unique_ptr@V?$elapsed_formatter@Unull_scoped_padder@details@spdlog@@V?$duration@_JU?$ratio@$00$0PECEA@@std@@@chrono@std@@@details@spdlog@@U?$default_delete@V?$elapsed_formatter@Unull_scoped_padder@details@spdlog@@V?$duration@_JU?$ratio@$00$0PECEA@@std@@@chrono@std@@@details@spdlog@@@std@@@std@@QEAA@XZ
	??1?$unique_ptr@V?$elapsed_formatter@Vscoped_padder@details@spdlog@@V?$duration@_JU?$ratio@$00$00@std@@@chrono@std@@@details@spdlog@@U?$default_delete@V?$elapsed_formatter@Vscoped_padder@details@spdlog@@V?$duration@_JU?$ratio@$00$00@std@@@chrono@std@@@details@spdlog@@@std@@@std@@QEAA@XZ
	??1?$unique_ptr@V?$elapsed_formatter@Vscoped_padder@details@spdlog@@V?$duration@_JU?$ratio@$00$0DLJKMKAA@@std@@@chrono@std@@@details@spdlog@@U?$default_delete@V?$elapsed_formatter@Vscoped_padder@details@spdlog@@V?$duration@_JU?$ratio@$00$0DLJKMKAA@@std@@@chrono@std@@@details@spdlog@@@std@@@std@@QEAA@XZ
	??1?$unique_ptr@V?$elapsed_formatter@Vscoped_padder@details@spdlog@@V?$duration@_JU?$ratio@$00$0DOI@@std@@@chrono@std@@@details@spdlog@@U?$default_delete@V?$elapsed_formatter@Vscoped_padder@details@spdlog@@V?$duration@_JU?$ratio@$00$0DOI@@std@@@chrono@std@@@details@spdlog@@@std@@@std@@QEAA@XZ
	??1?$unique_ptr@V?$elapsed_formatter@Vscoped_padder@details@spdlog@@V?$duration@_JU?$ratio@$00$0PECEA@@std@@@chrono@std@@@details@spdlog@@U?$default_delete@V?$elapsed_formatter@Vscoped_padder@details@spdlog@@V?$duration@_JU?$ratio@$00$0PECEA@@std@@@chrono@std@@@details@spdlog@@@std@@@std@@QEAA@XZ
	??1?$unique_ptr@V?$f_formatter@Unull_scoped_padder@details@spdlog@@@details@spdlog@@U?$default_delete@V?$f_formatter@Unull_scoped_padder@details@spdlog@@@details@spdlog@@@std@@@std@@QEAA@XZ
	??1?$unique_ptr@V?$f_formatter@Vscoped_padder@details@spdlog@@@details@spdlog@@U?$default_delete@V?$f_formatter@Vscoped_padder@details@spdlog@@@details@spdlog@@@std@@@std@@QEAA@XZ
	??1?$unique_ptr@V?$level_formatter@Unull_scoped_padder@details@spdlog@@@details@spdlog@@U?$default_delete@V?$level_formatter@Unull_scoped_padder@details@spdlog@@@details@spdlog@@@std@@@std@@QEAA@XZ
	??1?$unique_ptr@V?$level_formatter@Vscoped_padder@details@spdlog@@@details@spdlog@@U?$default_delete@V?$level_formatter@Vscoped_padder@details@spdlog@@@details@spdlog@@@std@@@std@@QEAA@XZ
	??1?$unique_ptr@V?$m_formatter@Unull_scoped_padder@details@spdlog@@@details@spdlog@@U?$default_delete@V?$m_formatter@Unull_scoped_padder@details@spdlog@@@details@spdlog@@@std@@@std@@QEAA@XZ
	??1?$unique_ptr@V?$m_formatter@Vscoped_padder@details@spdlog@@@details@spdlog@@U?$default_delete@V?$m_formatter@Vscoped_padder@details@spdlog@@@details@spdlog@@@std@@@std@@QEAA@XZ
	??1?$unique_ptr@V?$mdc_formatter@Unull_scoped_padder@details@spdlog@@@details@spdlog@@U?$default_delete@V?$mdc_formatter@Unull_scoped_padder@details@spdlog@@@details@spdlog@@@std@@@std@@QEAA@XZ
	??1?$unique_ptr@V?$mdc_formatter@Vscoped_padder@details@spdlog@@@details@spdlog@@U?$default_delete@V?$mdc_formatter@Vscoped_padder@details@spdlog@@@details@spdlog@@@std@@@std@@QEAA@XZ
	??1?$unique_ptr@V?$name_formatter@Unull_scoped_padder@details@spdlog@@@details@spdlog@@U?$default_delete@V?$name_formatter@Unull_scoped_padder@details@spdlog@@@details@spdlog@@@std@@@std@@QEAA@XZ
	??1?$unique_ptr@V?$name_formatter@Vscoped_padder@details@spdlog@@@details@spdlog@@U?$default_delete@V?$name_formatter@Vscoped_padder@details@spdlog@@@details@spdlog@@@std@@@std@@QEAA@XZ
	??1?$unique_ptr@V?$p_formatter@Unull_scoped_padder@details@spdlog@@@details@spdlog@@U?$default_delete@V?$p_formatter@Unull_scoped_padder@details@spdlog@@@details@spdlog@@@std@@@std@@QEAA@XZ
	??1?$unique_ptr@V?$p_formatter@Vscoped_padder@details@spdlog@@@details@spdlog@@U?$default_delete@V?$p_formatter@Vscoped_padder@details@spdlog@@@details@spdlog@@@std@@@std@@QEAA@XZ
	??1?$unique_ptr@V?$pid_formatter@Unull_scoped_padder@details@spdlog@@@details@spdlog@@U?$default_delete@V?$pid_formatter@Unull_scoped_padder@details@spdlog@@@details@spdlog@@@std@@@std@@QEAA@XZ
	??1?$unique_ptr@V?$pid_formatter@Vscoped_padder@details@spdlog@@@details@spdlog@@U?$default_delete@V?$pid_formatter@Vscoped_padder@details@spdlog@@@details@spdlog@@@std@@@std@@QEAA@XZ
	??1?$unique_ptr@V?$r_formatter@Unull_scoped_padder@details@spdlog@@@details@spdlog@@U?$default_delete@V?$r_formatter@Unull_scoped_padder@details@spdlog@@@details@spdlog@@@std@@@std@@QEAA@XZ
	??1?$unique_ptr@V?$r_formatter@Vscoped_padder@details@spdlog@@@details@spdlog@@U?$default_delete@V?$r_formatter@Vscoped_padder@details@spdlog@@@details@spdlog@@@std@@@std@@QEAA@XZ
	??1?$unique_ptr@V?$short_filename_formatter@Unull_scoped_padder@details@spdlog@@@details@spdlog@@U?$default_delete@V?$short_filename_formatter@Unull_scoped_padder@details@spdlog@@@details@spdlog@@@std@@@std@@QEAA@XZ
	??1?$unique_ptr@V?$short_filename_formatter@Vscoped_padder@details@spdlog@@@details@spdlog@@U?$default_delete@V?$short_filename_formatter@Vscoped_padder@details@spdlog@@@details@spdlog@@@std@@@std@@QEAA@XZ
	??1?$unique_ptr@V?$short_level_formatter@Unull_scoped_padder@details@spdlog@@@details@spdlog@@U?$default_delete@V?$short_level_formatter@Unull_scoped_padder@details@spdlog@@@details@spdlog@@@std@@@std@@QEAA@XZ
	??1?$unique_ptr@V?$short_level_formatter@Vscoped_padder@details@spdlog@@@details@spdlog@@U?$default_delete@V?$short_level_formatter@Vscoped_padder@details@spdlog@@@details@spdlog@@@std@@@std@@QEAA@XZ
	??1?$unique_ptr@V?$source_filename_formatter@Unull_scoped_padder@details@spdlog@@@details@spdlog@@U?$default_delete@V?$source_filename_formatter@Unull_scoped_padder@details@spdlog@@@details@spdlog@@@std@@@std@@QEAA@XZ
	??1?$unique_ptr@V?$source_filename_formatter@Vscoped_padder@details@spdlog@@@details@spdlog@@U?$default_delete@V?$source_filename_formatter@Vscoped_padder@details@spdlog@@@details@spdlog@@@std@@@std@@QEAA@XZ
	??1?$unique_ptr@V?$source_funcname_formatter@Unull_scoped_padder@details@spdlog@@@details@spdlog@@U?$default_delete@V?$source_funcname_formatter@Unull_scoped_padder@details@spdlog@@@details@spdlog@@@std@@@std@@QEAA@XZ
	??1?$unique_ptr@V?$source_funcname_formatter@Vscoped_padder@details@spdlog@@@details@spdlog@@U?$default_delete@V?$source_funcname_formatter@Vscoped_padder@details@spdlog@@@details@spdlog@@@std@@@std@@QEAA@XZ
	??1?$unique_ptr@V?$source_linenum_formatter@Unull_scoped_padder@details@spdlog@@@details@spdlog@@U?$default_delete@V?$source_linenum_formatter@Unull_scoped_padder@details@spdlog@@@details@spdlog@@@std@@@std@@QEAA@XZ
	??1?$unique_ptr@V?$source_linenum_formatter@Vscoped_padder@details@spdlog@@@details@spdlog@@U?$default_delete@V?$source_linenum_formatter@Vscoped_padder@details@spdlog@@@details@spdlog@@@std@@@std@@QEAA@XZ
	??1?$unique_ptr@V?$source_location_formatter@Unull_scoped_padder@details@spdlog@@@details@spdlog@@U?$default_delete@V?$source_location_formatter@Unull_scoped_padder@details@spdlog@@@details@spdlog@@@std@@@std@@QEAA@XZ
	??1?$unique_ptr@V?$source_location_formatter@Vscoped_padder@details@spdlog@@@details@spdlog@@U?$default_delete@V?$source_location_formatter@Vscoped_padder@details@spdlog@@@details@spdlog@@@std@@@std@@QEAA@XZ
	??1?$unique_ptr@V?$t_formatter@Unull_scoped_padder@details@spdlog@@@details@spdlog@@U?$default_delete@V?$t_formatter@Unull_scoped_padder@details@spdlog@@@details@spdlog@@@std@@@std@@QEAA@XZ
	??1?$unique_ptr@V?$t_formatter@Vscoped_padder@details@spdlog@@@details@spdlog@@U?$default_delete@V?$t_formatter@Vscoped_padder@details@spdlog@@@details@spdlog@@@std@@@std@@QEAA@XZ
	??1?$unique_ptr@V?$v_formatter@Unull_scoped_padder@details@spdlog@@@details@spdlog@@U?$default_delete@V?$v_formatter@Unull_scoped_padder@details@spdlog@@@details@spdlog@@@std@@@std@@QEAA@XZ
	??1?$unique_ptr@V?$v_formatter@Vscoped_padder@details@spdlog@@@details@spdlog@@U?$default_delete@V?$v_formatter@Vscoped_padder@details@spdlog@@@details@spdlog@@@std@@@std@@QEAA@XZ
	??1?$unique_ptr@V?$z_formatter@Unull_scoped_padder@details@spdlog@@@details@spdlog@@U?$default_delete@V?$z_formatter@Unull_scoped_padder@details@spdlog@@@details@spdlog@@@std@@@std@@QEAA@XZ
	??1?$unique_ptr@V?$z_formatter@Vscoped_padder@details@spdlog@@@details@spdlog@@U?$default_delete@V?$z_formatter@Vscoped_padder@details@spdlog@@@details@spdlog@@@std@@@std@@QEAA@XZ
	??1?$unique_ptr@V_Facet_base@std@@U?$default_delete@V_Facet_base@std@@@2@@std@@QEAA@XZ
	??1?$unique_ptr@Vaggregate_formatter@details@spdlog@@U?$default_delete@Vaggregate_formatter@details@spdlog@@@std@@@std@@QEAA@XZ
	??1?$unique_ptr@Vch_formatter@details@spdlog@@U?$default_delete@Vch_formatter@details@spdlog@@@std@@@std@@QEAA@XZ
	??1?$unique_ptr@Vcolor_start_formatter@details@spdlog@@U?$default_delete@Vcolor_start_formatter@details@spdlog@@@std@@@std@@QEAA@XZ
	??1?$unique_ptr@Vcolor_stop_formatter@details@spdlog@@U?$default_delete@Vcolor_stop_formatter@details@spdlog@@@std@@@std@@QEAA@XZ
	??1?$unique_ptr@Vcustom_flag_formatter@spdlog@@U?$default_delete@Vcustom_flag_formatter@spdlog@@@std@@@std@@QEAA@XZ
	??1?$unique_ptr@Vflag_formatter@details@spdlog@@U?$default_delete@Vflag_formatter@details@spdlog@@@std@@@std@@QEAA@XZ
	??1?$unique_ptr@Vformatter@spdlog@@U?$default_delete@Vformatter@spdlog@@@std@@@std@@QEAA@XZ
	??1?$unique_ptr@Vfull_formatter@details@spdlog@@U?$default_delete@Vfull_formatter@details@spdlog@@@std@@@std@@QEAA@XZ
	??1?$unique_ptr@Vpattern_formatter@spdlog@@U?$default_delete@Vpattern_formatter@spdlog@@@std@@@std@@QEAA@XZ
	??1?$unique_ptr@Vperiodic_worker@details@spdlog@@U?$default_delete@Vperiodic_worker@details@spdlog@@@std@@@std@@QEAA@XZ
	??1?$unordered_map@DV?$unique_ptr@Vcustom_flag_formatter@spdlog@@U?$default_delete@Vcustom_flag_formatter@spdlog@@@std@@@std@@U?$hash@D@2@U?$equal_to@D@2@V?$allocator@U?$pair@$$CBDV?$unique_ptr@Vcustom_flag_formatter@spdlog@@U?$default_delete@Vcustom_flag_formatter@spdlog@@@std@@@std@@@std@@@2@@std@@QEAA@XZ
	??1?$unordered_map@V?$basic_string@DU?$char_traits@D@std@@V?$allocator@D@2@@std@@V?$shared_ptr@Vlogger@spdlog@@@2@U?$hash@V?$basic_string@DU?$char_traits@D@std@@V?$allocator@D@2@@std@@@2@U?$equal_to@V?$basic_string@DU?$char_traits@D@std@@V?$allocator@D@2@@std@@@2@V?$allocator@U?$pair@$$CBV?$basic_string@DU?$char_traits@D@std@@V?$allocator@D@2@@std@@V?$shared_ptr@Vlogger@spdlog@@@2@@std@@@2@@std@@QEAA@XZ
	??1?$unordered_map@V?$basic_string@DU?$char_traits@D@std@@V?$allocator@D@2@@std@@W4level_enum@level@spdlog@@U?$hash@V?$basic_string@DU?$char_traits@D@std@@V?$allocator@D@2@@std@@@2@U?$equal_to@V?$basic_string@DU?$char_traits@D@std@@V?$allocator@D@2@@std@@@2@V?$allocator@U?$pair@$$CBV?$basic_string@DU?$char_traits@D@std@@V?$allocator@D@2@@std@@W4level_enum@level@spdlog@@@std@@@2@@std@@QEAA@XZ
	??1?$v_formatter@Unull_scoped_padder@details@spdlog@@@details@spdlog@@UEAA@XZ
	??1?$v_formatter@Vscoped_padder@details@spdlog@@@details@spdlog@@UEAA@XZ
	??1?$vector@V?$shared_ptr@Vsink@sinks@spdlog@@@std@@V?$allocator@V?$shared_ptr@Vsink@sinks@spdlog@@@std@@@2@@std@@QEAA@XZ
	??1?$vector@V?$unique_ptr@Vflag_formatter@details@spdlog@@U?$default_delete@Vflag_formatter@details@spdlog@@@std@@@std@@V?$allocator@V?$unique_ptr@Vflag_formatter@details@spdlog@@U?$default_delete@Vflag_formatter@details@spdlog@@@std@@@std@@@2@@std@@QEAA@XZ
	??1?$vector@Vlog_msg_buffer@details@spdlog@@V?$allocator@Vlog_msg_buffer@details@spdlog@@@std@@@std@@QEAA@XZ
	??1?$wincolor_sink@Uconsole_mutex@details@spdlog@@@sinks@spdlog@@UEAA@XZ
	??1?$wincolor_stdout_sink@Uconsole_mutex@details@spdlog@@@sinks@spdlog@@UEAA@XZ
	??1?$z_formatter@Unull_scoped_padder@details@spdlog@@@details@spdlog@@UEAA@XZ
	??1?$z_formatter@Vscoped_padder@details@spdlog@@@details@spdlog@@UEAA@XZ
	??1Application@Hazel@@UEAA@XZ
	??1_Bxty@?$_String_val@U?$_Simple_types@D@std@@@std@@QEAA@XZ
	??1_Clear_guard@?$_Hash@V?$_Umap_traits@DV?$unique_ptr@Vcustom_flag_formatter@spdlog@@U?$default_delete@Vcustom_flag_formatter@spdlog@@@std@@@std@@V?$_Uhash_compare@DU?$hash@D@std@@U?$equal_to@D@2@@2@V?$allocator@U?$pair@$$CBDV?$unique_ptr@Vcustom_flag_formatter@spdlog@@U?$default_delete@Vcustom_flag_formatter@spdlog@@@std@@@std@@@std@@@2@$0A@@std@@@std@@QEAA@XZ
	??1_Clear_guard@?$_Hash@V?$_Umap_traits@V?$basic_string@DU?$char_traits@D@std@@V?$allocator@D@2@@std@@V?$shared_ptr@Vlogger@spdlog@@@2@V?$_Uhash_compare@V?$basic_string@DU?$char_traits@D@std@@V?$allocator@D@2@@std@@U?$hash@V?$basic_string@DU?$char_traits@D@std@@V?$allocator@D@2@@std@@@2@U?$equal_to@V?$basic_string@DU?$char_traits@D@std@@V?$allocator@D@2@@std@@@2@@2@V?$allocator@U?$pair@$$CBV?$basic_string@DU?$char_traits@D@std@@V?$allocator@D@2@@std@@V?$shared_ptr@Vlogger@spdlog@@@2@@std@@@2@$0A@@std@@@std@@QEAA@XZ
	??1_Facet_base@std@@UEAA@XZ
	??1_Generic_error_category@std@@UEAA@XZ
	??1_Locinfo@std@@QEAA@XZ
	??1_Range_eraser@?$_Hash@V?$_Umap_traits@DV?$unique_ptr@Vcustom_flag_formatter@spdlog@@U?$default_delete@Vcustom_flag_formatter@spdlog@@@std@@@std@@V?$_Uhash_compare@DU?$hash@D@std@@U?$equal_to@D@2@@2@V?$allocator@U?$pair@$$CBDV?$unique_ptr@Vcustom_flag_formatter@spdlog@@U?$default_delete@Vcustom_flag_formatter@spdlog@@@std@@@std@@@std@@@2@$0A@@std@@@std@@QEAA@XZ
	??1_Range_eraser@?$_Hash@V?$_Umap_traits@V?$basic_string@DU?$char_traits@D@std@@V?$allocator@D@2@@std@@V?$shared_ptr@Vlogger@spdlog@@@2@V?$_Uhash_compare@V?$basic_string@DU?$char_traits@D@std@@V?$allocator@D@2@@std@@U?$hash@V?$basic_string@DU?$char_traits@D@std@@V?$allocator@D@2@@std@@@2@U?$equal_to@V?$basic_string@DU?$char_traits@D@std@@V?$allocator@D@2@@std@@@2@@2@V?$allocator@U?$pair@$$CBV?$basic_string@DU?$char_traits@D@std@@V?$allocator@D@2@@std@@V?$shared_ptr@Vlogger@spdlog@@@2@@std@@@2@$0A@@std@@@std@@QEAA@XZ
	??1_Reallocation_guard@?$vector@V?$unique_ptr@Vflag_formatter@details@spdlog@@U?$default_delete@Vflag_formatter@details@spdlog@@@std@@@std@@V?$allocator@V?$unique_ptr@Vflag_formatter@details@spdlog@@U?$default_delete@Vflag_formatter@details@spdlog@@@std@@@std@@@2@@std@@QEAA@XZ
	??1_Ref_count_base@std@@UEAA@XZ
	??1_System_error@std@@UEAA@XZ
	??1aggregate_formatter@details@spdlog@@UEAA@XZ
	??1backtracer@details@spdlog@@QEAA@XZ
	??1bad_alloc@std@@UEAA@XZ
	??1bad_array_new_length@std@@UEAA@XZ
	??1bad_cast@std@@UEAA@XZ
	??1bigint@detail@v11@fmt@@QEAA@XZ
	??1ch_formatter@details@spdlog@@UEAA@XZ
	??1color_start_formatter@details@spdlog@@UEAA@XZ
	??1color_stop_formatter@details@spdlog@@UEAA@XZ
	??1error_category@std@@UEAA@XZ
	??1exception@std@@UEAA@XZ
	??1facet@locale@std@@MEAA@XZ
	??1flag_formatter@details@spdlog@@UEAA@XZ
	??1format_error@v11@fmt@@UEAA@XZ
	??1formatter@spdlog@@UEAA@XZ
	??1full_formatter@details@spdlog@@UEAA@XZ
	??1locale@std@@QEAA@XZ
	??1log_msg_buffer@details@spdlog@@QEAA@XZ
	??1logger@spdlog@@UEAA@XZ
	??1pattern_formatter@spdlog@@UEAA@XZ
	??1periodic_worker@details@spdlog@@QEAA@XZ
	??1registry@details@spdlog@@AEAA@XZ
	??1runtime_error@std@@UEAA@XZ
	??1scoped_padder@details@spdlog@@QEAA@XZ
	??1sink@sinks@spdlog@@UEAA@XZ
	??1spdlog_ex@spdlog@@UEAA@XZ
	??1system_error@std@@UEAA@XZ
	??1thread@std@@QEAA@XZ
	??2@YAPEAX_KPEAX@Z
	??4?$atomic@_N@std@@QEAA_N_N@Z
	??4?$basic_appender@D@v11@fmt@@QEAAAEAV012@D@Z
	??4?$basic_string@DU?$char_traits@D@std@@V?$allocator@D@2@@std@@QEAAAEAV01@$$QEAV01@@Z
	??4?$basic_string@DU?$char_traits@D@std@@V?$allocator@D@2@@std@@QEAAAEAV01@AEBV01@@Z
	??4?$circular_q@Vlog_msg_buffer@details@spdlog@@@details@spdlog@@QEAAAEAV012@$$QEAV012@@Z
	??4?$circular_q@Vlog_msg_buffer@details@spdlog@@@details@spdlog@@QEAAAEAV012@AEBV012@@Z
	??4?$function@$$A6AXAEBV?$basic_string@DU?$char_traits@D@std@@V?$allocator@D@2@@std@@@Z@std@@QEAAAEAV01@$$QEAV01@@Z
	??4?$shared_ptr@Vlogger@spdlog@@@std@@QEAAAEAV01@$$QEAV01@@Z
	??4?$shared_ptr@Vlogger@spdlog@@@std@@QEAAAEAV01@AEBV01@@Z
	??4?$vector@Vlog_msg_buffer@details@spdlog@@V?$allocator@Vlog_msg_buffer@details@spdlog@@@std@@@std@@QEAAAEAV01@$$QEAV01@@Z
	??4?$vector@Vlog_msg_buffer@details@spdlog@@V?$allocator@Vlog_msg_buffer@details@spdlog@@@std@@@std@@QEAAAEAV01@AEBV01@@Z
	??4Application@Hazel@@QEAAAEAV01@AEBV01@@Z
	??4Log@Hazel@@QEAAAEAV01@$$QEAV01@@Z
	??4Log@Hazel@@QEAAAEAV01@AEBV01@@Z
	??4log_msg_buffer@details@spdlog@@QEAAAEAV012@AEBV012@@Z
	??5uint128_fallback@detail@v11@fmt@@QEBA?AV0123@H@Z
	??6uint128_fallback@detail@v11@fmt@@QEBA?AV0123@H@Z
	??8?$_List_const_iterator@V?$_List_val@U?$_List_simple_types@U?$pair@$$CBDV?$unique_ptr@Vcustom_flag_formatter@spdlog@@U?$default_delete@Vcustom_flag_formatter@spdlog@@@std@@@std@@@std@@@std@@@std@@@std@@QEBA_NAEBV01@@Z
	??8?$_List_const_iterator@V?$_List_val@U?$_List_simple_types@U?$pair@$$CBV?$basic_string@DU?$char_traits@D@std@@V?$allocator@D@2@@std@@V?$shared_ptr@Vlogger@spdlog@@@2@@std@@@std@@@std@@@std@@QEBA_NAEBV01@@Z
	??8?$_List_const_iterator@V?$_List_val@U?$_List_simple_types@U?$pair@$$CBV?$basic_string@DU?$char_traits@D@std@@V?$allocator@D@2@@std@@W4level_enum@level@spdlog@@@std@@@std@@@std@@@std@@QEBA_NAEBV01@@Z
	??8?$_List_unchecked_const_iterator@V?$_List_val@U?$_List_simple_types@U?$pair@$$CBDV?$unique_ptr@Vcustom_flag_formatter@spdlog@@U?$default_delete@Vcustom_flag_formatter@spdlog@@@std@@@std@@@std@@@std@@@std@@U_Iterator_base0@2@@std@@QEBA_NAEBV01@@Z
	??8?$_List_unchecked_const_iterator@V?$_List_val@U?$_List_simple_types@U?$pair@$$CBV?$basic_string@DU?$char_traits@D@std@@V?$allocator@D@2@@std@@V?$shared_ptr@Vlogger@spdlog@@@2@@std@@@std@@@std@@U_Iterator_base0@2@@std@@QEBA_NAEBV01@@Z
	??8?$_String_const_iterator@V?$_String_val@U?$_Simple_types@D@std@@@std@@@std@@QEBA_NAEBV01@@Z
	??8?$_Tree_const_iterator@V?$_Tree_val@U?$_Tree_simple_types@U?$pair@$$CBV?$basic_string@DU?$char_traits@D@std@@V?$allocator@D@2@@std@@V12@@std@@@std@@@std@@@std@@QEBA_NAEBV01@@Z
	??8?$_Vector_const_iterator@V?$_Vector_val@U?$_Simple_types@V?$shared_ptr@Vsink@sinks@spdlog@@@std@@@std@@@std@@@std@@QEBA_NAEBV01@@Z
	??8detail@v11@fmt@@YA_NAEBVuint128_fallback@012@0@Z
	??8error_category@std@@QEBA_NAEBV01@@Z
	??8std@@YA_NAEBVerror_condition@0@0@Z
	??8v11@fmt@@YA_NV?$basic_string_view@D@01@0@Z
	??9detail@v11@fmt@@YA_NAEBVuint128_fallback@012@0@Z
	??A?$array@G$06@std@@QEAAAEAG_K@Z
	??A?$array@PEBD$06@std@@QEAAAEAPEBD_K@Z
	??A?$array@PEBD$0M@@std@@QEBAAEBQEBD_K@Z
	??A?$basic_string_view@D@v11@fmt@@QEBAAEBD_K@Z
	??A?$unordered_map@DV?$unique_ptr@Vcustom_flag_formatter@spdlog@@U?$default_delete@Vcustom_flag_formatter@spdlog@@@std@@@std@@U?$hash@D@2@U?$equal_to@D@2@V?$allocator@U?$pair@$$CBDV?$unique_ptr@Vcustom_flag_formatter@spdlog@@U?$default_delete@Vcustom_flag_formatter@spdlog@@@std@@@std@@@std@@@2@@std@@QEAAAEAV?$unique_ptr@Vcustom_flag_formatter@spdlog@@U?$default_delete@Vcustom_flag_formatter@spdlog@@@std@@@1@AEBD@Z
	??A?$unordered_map@V?$basic_string@DU?$char_traits@D@std@@V?$allocator@D@2@@std@@V?$shared_ptr@Vlogger@spdlog@@@2@U?$hash@V?$basic_string@DU?$char_traits@D@std@@V?$allocator@D@2@@std@@@2@U?$equal_to@V?$basic_string@DU?$char_traits@D@std@@V?$allocator@D@2@@std@@@2@V?$allocator@U?$pair@$$CBV?$basic_string@DU?$char_traits@D@std@@V?$allocator@D@2@@std@@V?$shared_ptr@Vlogger@spdlog@@@2@@std@@@2@@std@@QEAAAEAV?$shared_ptr@Vlogger@spdlog@@@1@$$QEAV?$basic_string@DU?$char_traits@D@std@@V?$allocator@D@2@@1@@Z
	??A?$unordered_map@V?$basic_string@DU?$char_traits@D@std@@V?$allocator@D@2@@std@@V?$shared_ptr@Vlogger@spdlog@@@2@U?$hash@V?$basic_string@DU?$char_traits@D@std@@V?$allocator@D@2@@std@@@2@U?$equal_to@V?$basic_string@DU?$char_traits@D@std@@V?$allocator@D@2@@std@@@2@V?$allocator@U?$pair@$$CBV?$basic_string@DU?$char_traits@D@std@@V?$allocator@D@2@@std@@V?$shared_ptr@Vlogger@spdlog@@@2@@std@@@2@@std@@QEAAAEAV?$shared_ptr@Vlogger@spdlog@@@1@AEBV?$basic_string@DU?$char_traits@D@std@@V?$allocator@D@2@@1@@Z
	??B?$basic_format_arg@Vcontext@v11@fmt@@@v11@fmt@@QEBA_NXZ
	??B?$function@$$A6AXAEBV?$basic_string@DU?$char_traits@D@std@@V?$allocator@D@2@@std@@@Z@std@@QEBA_NXZ
	??B?$integral_constant@_N$00@std@@QEBA_NXZ
	??B?$integral_constant@_N$0A@@std@@QEBA_NXZ
	??B?$unique_ptr@Vaggregate_formatter@details@spdlog@@U?$default_delete@Vaggregate_formatter@details@spdlog@@@std@@@std@@QEBA_NXZ
	??BFMT_COMPILE_STRING@?1???R<lambda_1>@?6??format_error_code@detail@v11@fmt@@YAXAEAV?$buffer@D@345@HV?$basic_string_view@D@45@@Z@QEBA@XZ@QEBA?AV745@XZ
	??BFMT_COMPILE_STRING@?1???R<lambda_1>@?6??pad2@fmt_helper@details@spdlog@@YAXHAEAV?$basic_memory_buffer@D$0PK@U?$allocator@D@detail@v11@fmt@@@v11@fmt@@@Z@QEBA@XZ@QEBA?AV?$basic_string_view@D@78@XZ
	??BFMT_COMPILE_STRING@?1???R<lambda_1>@?L@??flush_@logger@spdlog@@MEAAXXZ@QEBA@XZ@QEBA?AV?$basic_string_view@D@v11@fmt@@XZ
	??BFMT_COMPILE_STRING@?1???R<lambda_1>@?O@??sink_it_@logger@spdlog@@MEAAXAEBUlog_msg@details@4@@Z@QEBA@XZ@QEBA?AV?$basic_string_view@D@v11@fmt@@XZ
	??BFMT_COMPILE_STRING@?1???R<lambda_2>@?1??format_error_code@detail@v11@fmt@@YAXAEAV?$buffer@D@345@HV?$basic_string_view@D@45@@Z@QEBA@XZ@QEBA?AV745@XZ
	??C?$_List_iterator@V?$_List_val@U?$_List_simple_types@U?$pair@$$CBDV?$unique_ptr@Vcustom_flag_formatter@spdlog@@U?$default_delete@Vcustom_flag_formatter@spdlog@@@std@@@std@@@std@@@std@@@std@@@std@@QEBAPEAU?$pair@$$CBDV?$unique_ptr@Vcustom_flag_formatter@spdlog@@U?$default_delete@Vcustom_flag_formatter@spdlog@@@std@@@std@@@1@XZ
	??C?$_List_iterator@V?$_List_val@U?$_List_simple_types@U?$pair@$$CBV?$basic_string@DU?$char_traits@D@std@@V?$allocator@D@2@@std@@W4level_enum@level@spdlog@@@std@@@std@@@std@@@std@@QEBAPEAU?$pair@$$CBV?$basic_string@DU?$char_traits@D@std@@V?$allocator@D@2@@std@@W4level_enum@level@spdlog@@@1@XZ
	??C?$unique_ptr@Vaggregate_formatter@details@spdlog@@U?$default_delete@Vaggregate_formatter@details@spdlog@@@std@@@std@@QEBAPEAVaggregate_formatter@details@spdlog@@XZ
	??C?$unique_ptr@Vcustom_flag_formatter@spdlog@@U?$default_delete@Vcustom_flag_formatter@spdlog@@@std@@@std@@QEBAPEAVcustom_flag_formatter@spdlog@@XZ
	??C?$unique_ptr@Vflag_formatter@details@spdlog@@U?$default_delete@Vflag_formatter@details@spdlog@@@std@@@std@@QEBAPEAVflag_formatter@details@spdlog@@XZ
	??C?$unique_ptr@Vformatter@spdlog@@U?$default_delete@Vformatter@spdlog@@@std@@@std@@QEBAPEAVformatter@spdlog@@XZ
	??C?$unique_ptr@Vpattern_formatter@spdlog@@U?$default_delete@Vpattern_formatter@spdlog@@@std@@@std@@QEBAPEAVpattern_formatter@spdlog@@XZ
